
civ_001.elf:     file format elf32-littlenios2
civ_001.elf
architecture: nios2:r1, flags 0x00000112:
EXEC_P, HAS_SYMS, D_PAGED
start address 0x00800250

Program Header:
    LOAD off    0x00001000 vaddr 0x00800000 paddr 0x00800000 align 2**12
         filesz 0x00000020 memsz 0x00000020 flags r-x
    LOAD off    0x00001020 vaddr 0x00800020 paddr 0x00800020 align 2**12
         filesz 0x0002d6c4 memsz 0x0002d6c4 flags r-x
    LOAD off    0x0002e6e4 vaddr 0x0082d6e4 paddr 0x0082f244 align 2**12
         filesz 0x00001b60 memsz 0x00001b60 flags rw-
    LOAD off    0x00030da4 vaddr 0x00830da4 paddr 0x00830da4 align 2**12
         filesz 0x00000000 memsz 0x00034368 flags rw-

Sections:
Idx Name          Size      VMA       LMA       File off  Algn
  0 .entry        00000020  00800000  00800000  00001000  2**5
                  CONTENTS, ALLOC, LOAD, READONLY, CODE
  1 .exceptions   00000230  00800020  00800020  00001020  2**2
                  CONTENTS, ALLOC, LOAD, READONLY, CODE
  2 .text         0002b9e0  00800250  00800250  00001250  2**2
                  CONTENTS, ALLOC, LOAD, READONLY, CODE
  3 .rodata       00001ab4  0082bc30  0082bc30  0002cc30  2**2
                  CONTENTS, ALLOC, LOAD, READONLY, DATA
  4 .rwdata       00001b60  0082d6e4  0082f244  0002e6e4  2**2
                  CONTENTS, ALLOC, LOAD, DATA, SMALL_DATA
  5 .bss          00034368  00830da4  00830da4  00030da4  2**2
                  ALLOC, SMALL_DATA
  6 .new_sdram_controller_0 00000000  0086510c  0086510c  00030244  2**0
                  CONTENTS
  7 .comment      00000023  00000000  00000000  00030244  2**0
                  CONTENTS, READONLY
  8 .debug_aranges 00001100  00000000  00000000  00030268  2**3
                  CONTENTS, READONLY, DEBUGGING
  9 .debug_info   0003912c  00000000  00000000  00031368  2**0
                  CONTENTS, READONLY, DEBUGGING
 10 .debug_abbrev 0000c871  00000000  00000000  0006a494  2**0
                  CONTENTS, READONLY, DEBUGGING
 11 .debug_line   00012fad  00000000  00000000  00076d05  2**0
                  CONTENTS, READONLY, DEBUGGING
 12 .debug_frame  00006740  00000000  00000000  00089cb4  2**2
                  CONTENTS, READONLY, DEBUGGING
 13 .debug_str    000092eb  00000000  00000000  000903f4  2**0
                  CONTENTS, READONLY, DEBUGGING
 14 .debug_loc    0001bbdb  00000000  00000000  000996df  2**0
                  CONTENTS, READONLY, DEBUGGING
 15 .debug_alt_sim_info 00000010  00000000  00000000  000b52bc  2**2
                  CONTENTS, READONLY, DEBUGGING
 16 .debug_ranges 000014f8  00000000  00000000  000b52d0  2**3
                  CONTENTS, READONLY, DEBUGGING
 17 .thread_model 00000003  00000000  00000000  000beb0d  2**0
                  CONTENTS, READONLY
 18 .cpu          0000000c  00000000  00000000  000beb10  2**0
                  CONTENTS, READONLY
 19 .qsys         00000001  00000000  00000000  000beb1c  2**0
                  CONTENTS, READONLY
 20 .simulation_enabled 00000001  00000000  00000000  000beb1d  2**0
                  CONTENTS, READONLY
 21 .sysid_hash   00000004  00000000  00000000  000beb1e  2**0
                  CONTENTS, READONLY
 22 .sysid_base   00000004  00000000  00000000  000beb22  2**0
                  CONTENTS, READONLY
 23 .sysid_time   00000004  00000000  00000000  000beb26  2**0
                  CONTENTS, READONLY
 24 .stderr_dev   0000000b  00000000  00000000  000beb2a  2**0
                  CONTENTS, READONLY
 25 .stdin_dev    0000000b  00000000  00000000  000beb35  2**0
                  CONTENTS, READONLY
 26 .stdout_dev   0000000b  00000000  00000000  000beb40  2**0
                  CONTENTS, READONLY
 27 .sopc_system_name 00000004  00000000  00000000  000beb4b  2**0
                  CONTENTS, READONLY
 28 .sopcinfo     00055234  00000000  00000000  000beb4f  2**0
                  CONTENTS, READONLY
SYMBOL TABLE:
00800000 l    d  .entry	00000000 .entry
00800020 l    d  .exceptions	00000000 .exceptions
00800250 l    d  .text	00000000 .text
0082bc30 l    d  .rodata	00000000 .rodata
0082d6e4 l    d  .rwdata	00000000 .rwdata
00830da4 l    d  .bss	00000000 .bss
0086510c l    d  .new_sdram_controller_0	00000000 .new_sdram_controller_0
00000000 l    d  .comment	00000000 .comment
00000000 l    d  .debug_aranges	00000000 .debug_aranges
00000000 l    d  .debug_info	00000000 .debug_info
00000000 l    d  .debug_abbrev	00000000 .debug_abbrev
00000000 l    d  .debug_line	00000000 .debug_line
00000000 l    d  .debug_frame	00000000 .debug_frame
00000000 l    d  .debug_str	00000000 .debug_str
00000000 l    d  .debug_loc	00000000 .debug_loc
00000000 l    d  .debug_alt_sim_info	00000000 .debug_alt_sim_info
00000000 l    d  .debug_ranges	00000000 .debug_ranges
00000000 l    df *ABS*	00000000 ../civ_001_bsp//obj/HAL/src/crt0.o
00800288 l       .text	00000000 alt_after_alt_main
00000000 l    df *ABS*	00000000 obj/default/FreeRTOS/FreeRTOS-Kernel/portable/GCC/NiosII/port_asm.o
00800020 l       .exceptions	00000000 save_context
0080009c l       .exceptions	00000000 save_sp_to_pxCurrentTCB
008000ac l       .exceptions	00000000 hw_irq_test
00800150 l       .exceptions	00000000 soft_exceptions
008000c0 l       .exceptions	00000000 hw_irq_handler
008000d4 l       .exceptions	00000000 restore_context
0080016c l       .exceptions	00000000 call_scheduler
00000000 l    df *ABS*	00000000 alt_irq_handler.c
00000000 l    df *ABS*	00000000 CLI-Commands.c
00830e90 l     O .bss	0000001c hs
0082bc8c l     O .rodata	00000010 xTaskStats
00800338 l     F .text	00000068 prvTaskStatsCommand
0082bcdc l     O .rodata	00000010 xHeapStats
008003a0 l     F .text	000001c4 prvHeapStatsCommand
0082bd38 l     O .rodata	00000010 xTaskTimeStats
00800564 l     F .text	00000068 prvTaskTimeStatCommand
0082bd88 l     O .rodata	00000010 xNetBuf
0080028c l     F .text	000000ac prvTaskNetbufCount
00000000 l    df *ABS*	00000000 http_server.c
00830da4 l     O .bss	00000002 usUsedStackSize
0082f1a8 l     O .rwdata	00000004 xReceiveTimeOut
0082f1ac l     O .rwdata	00000004 xSendTimeOut
00830eac l     O .bss	000005b4 tx_buf
00831460 l     O .bss	000005b4 rx_buf
00800688 l     F .text	00000170 prvHTTPServer
0082f1b0 l     O .rwdata	00000004 xReceiveTimeOut.3424
00000000 l    df *ABS*	00000000 main.c
00831a14 l     O .bss	0000005c xIdleTaskTCB.3377
00831a70 l     O .bss	00001000 uxIdleTaskStack.3378
00000000 l    df *ABS*	00000000 telnet_server.c
00830da6 l     O .bss	00000002 usUsedStackSize
00800a80 l     F .text	000002ac prvConnectionListeningTask
0082f1c8 l     O .rwdata	00000004 xReceiveTimeOut
0082f1cc l     O .rwdata	00000004 xSendTimeOut
0082f1d0 l     O .rwdata	00000004 xReceiveTimeOut.3541
00000000 l    df *ABS*	00000000 croutine.c
00000000 l    df *ABS*	00000000 event_groups.c
008013b0 l     F .text	00000070 prvTestWaitCondition
00000000 l    df *ABS*	00000000 list.c
00000000 l    df *ABS*	00000000 port.c
00801718 l     F .text	00000028 prvReadGp
00801874 l     F .text	00000098 prvSetupTimerInterrupt
00000000 l    df *ABS*	00000000 portTimer.c
00000000 l    df *ABS*	00000000 queue.c
00801d64 l     F .text	0000008c prvInitialiseNewQueue
00801df0 l     F .text	0000005c prvInitialiseMutex
00802c6c l     F .text	0000018c prvCopyDataToQueue
00803018 l     F .text	00000058 prvIsQueueFull
00802e90 l     F .text	000000f0 prvUnlockQueue
00802df8 l     F .text	00000098 prvCopyDataFromQueue
00802f80 l     F .text	00000050 prvIsQueueEmpty
00802c1c l     F .text	00000050 prvGetDisinheritPriorityAfterTimeout
00000000 l    df *ABS*	00000000 stream_buffer.c
00803f78 l     F .text	0000007c prvInitialiseNewStreamBuffer
00803f04 l     F .text	00000074 prvBytesInBuffer
0080368c l     F .text	000000d4 prvWriteMessageToBuffer
00803cfc l     F .text	000000f4 prvWriteBytesToBuffer
00803a5c l     F .text	000000bc prvReadMessageFromBuffer
00803df0 l     F .text	00000114 prvReadBytesFromBuffer
00000000 l    df *ABS*	00000000 tasks.c
00832a70 l     O .bss	000000b4 pxReadyTasksLists
00832b24 l     O .bss	00000014 xDelayedTaskList1
00832b38 l     O .bss	00000014 xDelayedTaskList2
00830dac l     O .bss	00000004 pxDelayedTaskList
00830db0 l     O .bss	00000004 pxOverflowDelayedTaskList
00832b4c l     O .bss	00000014 xPendingReadyList
00832b60 l     O .bss	00000014 xTasksWaitingTermination
00830db4 l     O .bss	00000004 uxDeletedTasksWaitingCleanUp
00832b74 l     O .bss	00000014 xSuspendedTaskList
00830db8 l     O .bss	00000004 uxCurrentNumberOfTasks
00830dbc l     O .bss	00000004 xTickCount
00830dc0 l     O .bss	00000004 uxTopReadyPriority
00830dc4 l     O .bss	00000004 xSchedulerRunning
00830dc8 l     O .bss	00000004 xPendedTicks
00830dcc l     O .bss	00000004 xYieldPending
00830dd0 l     O .bss	00000004 xNumOfOverflows
00830dd4 l     O .bss	00000004 uxTaskNumber
00830dd8 l     O .bss	00000004 xNextTaskUnblockTime
00830ddc l     O .bss	00000004 xIdleTaskHandle
00830de0 l     O .bss	00000004 uxSchedulerSuspended
00830de4 l     O .bss	00000004 ulTaskSwitchedInTime
00830de8 l     O .bss	00000004 ulTotalRunTime
00804160 l     F .text	00000204 prvInitialiseNewTask
00804364 l     F .text	00000110 prvAddNewTaskToReadyList
00805a94 l     F .text	000000bc prvInitialiseTaskLists
00805f1c l     F .text	00000040 prvDeleteTCB
00805f5c l     F .text	00000044 prvResetNextTaskUnblockTime
0080732c l     F .text	000000e4 prvAddCurrentTaskToDelayedList
00804b64 l     F .text	0000006c prvTaskIsTaskSuspended
00805a78 l     F .text	0000001c prvIdleTask
00805d28 l     F .text	00000130 prvListTasksWithinSingleList
00805b50 l     F .text	0000007c prvCheckTasksWaitingTermination
00805e58 l     F .text	00000064 prvTaskCheckFreeStackSpace
00806434 l     F .text	00000090 prvWriteNameToBuffer
00000000 l    df *ABS*	00000000 timers.c
00000000 l    df *ABS*	00000000 FreeRTOS_CLI.c
0082c2a8 l     O .rodata	00000010 xHelpCommand
008077dc l     F .text	00000084 prvHelpCommand
0082f1d8 l     O .rwdata	00000008 xRegisteredCommands
00830dec l     O .bss	00000001 cOutputBuffer
0082f1e0 l     O .rwdata	00000004 pxLastCommandInList.2314
00830df0 l     O .bss	00000004 pxCommand.2322
00807860 l     F .text	000000b0 prvGetNumberOfParameters
00830df4 l     O .bss	00000004 pxCommand.2356
00000000 l    df *ABS*	00000000 FreeRTOS_ARP.c
00807910 l     F .text	00000024 vCastPointerTo_ARPPacket_t
00807934 l     F .text	00000024 vCastPointerTo_IPPacket_t
00832b88 l     O .bss	00000048 xARPCache
00830df8 l     O .bss	00000004 xLastGratuitousARPTime
00808148 l     F .text	00000118 prvCacheLookup
0082c360 l     O .rodata	00000026 xDefaultPartARPPacketHeader.4277
00000000 l    df *ABS*	00000000 FreeRTOS_DHCP.c
0080886c l     F .text	00000024 vCastPointerTo_DHCPMessage_IPv4_t
00808890 l     F .text	00000024 vCastConstPointerTo_DHCPMessage_IPv4_t
00830dfc l     O .bss	00000004 xDHCPSocket
00832bd0 l     O .bss	00000020 xDHCPData
00809080 l     F .text	00000084 prvInitialiseDHCP
00809acc l     F .text	000000ac prvSendDHCPDiscover
00809974 l     F .text	00000158 prvSendDHCPRequest
00809104 l     F .text	000005cc prvProcessDHCPReplies
00808f78 l     F .text	0000003c prvCloseDHCPSocket
00808fb4 l     F .text	000000cc prvCreateDHCPSocket
008096d0 l     F .text	000002a4 prvCreatePartDHCPMessage
0082c5b4 l     O .rodata	00000019 ucDHCPRequestOptions.3609
0082c5cd l     O .rodata	00000012 ucDHCPDiscoverOptions.3619
00000000 l    df *ABS*	00000000 FreeRTOS_DNS.c
00000000 l    df *ABS*	00000000 FreeRTOS_IP.c
00809b78 l     F .text	00000024 vCastPointerTo_EthernetHeader_t
00809b9c l     F .text	00000024 vCastConstPointerTo_EthernetHeader_t
00809bc0 l     F .text	00000024 vCastPointerTo_ARPPacket_t
00809be4 l     F .text	00000024 vCastPointerTo_IPPacket_t
00809c08 l     F .text	00000024 vCastConstPointerTo_IPPacket_t
00809c2c l     F .text	00000024 vCastPointerTo_ICMPPacket_t
00809c50 l     F .text	00000024 vCastConstPointerTo_UDPPacket_t
00809c74 l     F .text	00000024 vCastConstPointerTo_ProtocolPacket_t
00809c98 l     F .text	00000024 vCastPointerTo_FreeRTOS_Socket_t
00809cbc l     F .text	00000024 vCastPointerTo_SocketSelect_t
00809ce0 l     F .text	00000024 vCastPointerTo_NetworkBufferDescriptor_t
00830e08 l     O .bss	00000004 xNetworkDownEventPending
00830e0c l     O .bss	00000004 xIPTaskHandle
00830e10 l     O .bss	00000004 xProcessedTCPMessage
00830e14 l     O .bss	00000004 xNetworkUp
00832c18 l     O .bss	00000014 xARPTimer
00832c2c l     O .bss	00000014 xDHCPTimer
00832c40 l     O .bss	00000014 xTCPTimer
00830e18 l     O .bss	00000004 xIPTaskInitialised
00809d04 l     F .text	00000274 prvIPTask
0080a1f4 l     F .text	00000044 prvIPTimerReload
0080a0ac l     F .text	000000c0 prvCheckNetworkTimers
00809ff0 l     F .text	000000bc prvCalculateSleepTime
0080ac34 l     F .text	00000084 prvProcessNetworkDownEvent
00809fc0 l     F .text	00000030 prvHandleEthernetPacket
0080acfc l     F .text	00000138 prvProcessEthernetPacket
0080a238 l     F .text	000000b8 prvIPTimerCheck
0080a16c l     F .text	00000088 prvIPTimerStart
0082f1ec l     O .rwdata	00000008 xNetworkDownEvent.4339
0082f1f4 l     O .rwdata	00000008 xNetworkDownEvent.4344
0080a4d4 l     F .text	00000074 prvPacketBuffer_to_NetworkBuffer
00830e1c l     O .bss	00000004 xCallEventHook.4417
0080b100 l     F .text	000003c0 prvProcessIPPacket
0080af70 l     F .text	00000190 prvAllowIPPacket
0080b794 l     F .text	00000060 prvProcessICMPPacket
0080b4c0 l     F .text	000002d4 prvProcessICMPEchoRequest
00000000 l    df *ABS*	00000000 FreeRTOS_Sockets.c
0080c824 l     F .text	00000034 FreeRTOS_min_int32
0080c858 l     F .text	00000034 FreeRTOS_min_uint32
0080c88c l     F .text	00000054 FreeRTOS_round_up
0080c8e0 l     F .text	00000034 FreeRTOS_min_BaseType
0080c914 l     F .text	00000040 vStreamBufferClear
0080c954 l     F .text	00000070 uxStreamBufferSpace
0080c9c4 l     F .text	0000006c uxStreamBufferDistance
0080ca30 l     F .text	00000050 uxStreamBufferGetSpace
0080ca80 l     F .text	00000050 uxStreamBufferFrontSpace
0080cad0 l     F .text	00000050 uxStreamBufferGetSize
0080cb20 l     F .text	00000078 uxStreamBufferGetPtr
0080cb98 l     F .text	00000024 vCastPointerTo_FreeRTOS_Socket_t
0080cbbc l     F .text	00000024 vCastPointerTo_SocketSelect_t
0080cbe0 l     F .text	00000024 vCastPointerTo_NetworkBufferDescriptor_t
0080cc04 l     F .text	00000024 vCastPointerTo_StreamBuffer_t
0080cc28 l     F .text	00000090 prvValidSocket
0080ccf4 l     F .text	000000b0 prvDetermineSocketSize
0080d220 l     F .text	00000090 prvFindSelectedSocket
0080e390 l     F .text	00000104 prvGetPrivatePortNumber
0080e494 l     F .text	00000094 pxListFindListItemWithValue
0080dc00 l     F .text	00000130 prvTCPSetSocketCount
0080dd30 l     F .text	00000144 prvSockopt_so_buffer
0080ec38 l     F .text	0000006c bMayConnect
0080eca4 l     F .text	00000218 prvTCPConnectStart
0080f4dc l     F .text	0000010c prvTCPSendCheck
0080fe18 l     F .text	000001b0 prvTCPCreateStream
00830e20 l     O .bss	00000004 xLastTime.4613
00000000 l    df *ABS*	00000000 FreeRTOS_Stream_Buffer.c
00810940 l     F .text	00000034 FreeRTOS_min_uint32
00810974 l     F .text	00000070 uxStreamBufferSpace
008109e4 l     F .text	0000006c uxStreamBufferDistance
00810a50 l     F .text	00000050 uxStreamBufferGetSpace
00810aa0 l     F .text	00000050 uxStreamBufferGetSize
00810af0 l     F .text	000000a8 xStreamBufferLessThenEqual
00000000 l    df *ABS*	00000000 FreeRTOS_TCP_IP.c
00810ee8 l     F .text	00000034 FreeRTOS_min_int32
00810f1c l     F .text	00000034 FreeRTOS_min_uint32
00810f50 l     F .text	00000070 uxStreamBufferSpace
00810fc0 l     F .text	0000006c uxStreamBufferDistance
0081102c l     F .text	00000050 uxStreamBufferGetSpace
0081107c l     F .text	00000050 uxStreamBufferFrontSpace
008110cc l     F .text	00000050 uxStreamBufferMidSpace
0081111c l     F .text	0000009c vStreamBufferMoveMid
008111b8 l     F .text	00000024 vCastConstPointerTo_IPHeader_t
008111dc l     F .text	00000024 vCastPointerTo_TCPPacket_t
00811200 l     F .text	00000024 vCastConstPointerTo_TCPPacket_t
00811224 l     F .text	00000024 vCastPointerTo_ProtocolHeaders_t
00811248 l     F .text	00000024 vCastConstPointerTo_ProtocolHeaders_t
0081126c l     F .text	00000024 vCastPointerTo_FreeRTOS_Socket_t
00811290 l     F .text	00000048 usChar2u16
008112d8 l     F .text	0000005c prvTCPSocketIsActive
00811334 l     F .text	0000013c prvTCPStatusAgeCheck
00813da0 l     F .text	0000009c prvTCPAddTxData
00811518 l     F .text	00000184 prvTCPSendPacket
00813bd8 l     F .text	000001c8 prvTCPNextTimeout
0081169c l     F .text	000000a8 prvTCPSendRepeated
008126a8 l     F .text	0000056c prvTCPPrepareConnect
00813100 l     F .text	00000078 prvSetSynAckOptions
00811744 l     F .text	00000e70 prvTCPReturnPacket
0081367c l     F .text	0000055c prvTCPPrepareSend
008125b4 l     F .text	000000f4 prvTCPCreateWindow
008156d0 l     F .text	000000f4 prvSocketSetMSS
00812c14 l     F .text	00000130 prvTCPFlagMeaning
00832c54 l     O .bss	0000000a retString.4413
00812d44 l     F .text	0000015c prvCheckOptions
00812ea0 l     F .text	00000260 prvSingleStepTCPHeaderOptions
00813178 l     F .text	00000078 prvTCPTouchSocket
00813518 l     F .text	00000164 prvTCPBufferResize
00813e3c l     F .text	0000033c prvTCPHandleFin
00814178 l     F .text	000001ec prvCheckRxData
00814364 l     F .text	00000208 prvStoreRxData
0081569c l     F .text	00000034 prvTCPSendReset
0081456c l     F .text	0000013c prvSetOptions
008146a8 l     F .text	00000480 prvHandleSynReceived
00814b28 l     F .text	0000054c prvHandleEstablished
00815074 l     F .text	00000138 prvSendData
008151ac l     F .text	00000440 prvTCPHandleState
008155ec l     F .text	0000007c prvTCPSendSpecialPacketHelper
00815668 l     F .text	00000034 prvTCPSendChallengeAck
00815f70 l     F .text	000003f4 prvHandleListen
00816364 l     F .text	00000200 prvTCPSocketCopy
0082d174 l     O .rodata	00000034 pcStateNames.4676
00000000 l    df *ABS*	00000000 FreeRTOS_TCP_WIN.c
008166e4 l     F .text	00000048 xSequenceGreaterThanOrEqual
0081672c l     F .text	00000038 vTCPTimerSet
00816764 l     F .text	0000003c ulTimerGetAge
008167a0 l     F .text	00000080 vListInsertGeneric
00816d40 l     F .text	0000004c prvTCPWindowTxHasSpace
00000000 l    df *ABS*	00000000 FreeRTOS_UDP_IP.c
00817020 l     F .text	00000024 vCastPointerTo_UDPPacket_t
00817044 l     F .text	00000024 vCastConstPointerTo_UDPPacket_t
00000000 l    df *ABS*	00000000 NetworkInterface.c
00832c60 l     O .bss	00001770 rx_buffer
008343d0 l     O .bss	00016800 ucBuffers
00000000 l    df *ABS*	00000000 enc.c
00830e28 l     O .bss	00000002 NextPacketPtr
00000000 l    df *ABS*	00000000 heap_4.c
0084abd0 l     O .bss	00019000 ucHeap
0082f1fc l     O .rwdata	00000004 xHeapStructSize
00830e2c l     O .bss	00000008 xStart
00830e34 l     O .bss	00000004 pxEnd
00830e38 l     O .bss	00000004 xFreeBytesRemaining
00830e3c l     O .bss	00000004 xMinimumEverFreeBytesRemaining
00830e40 l     O .bss	00000004 xNumberOfSuccessfulAllocations
00830e44 l     O .bss	00000004 xNumberOfSuccessfulFrees
00830e48 l     O .bss	00000004 xBlockAllocatedBit
0081880c l     F .text	00000120 prvHeapInit
0081892c l     F .text	00000130 prvInsertBlockIntoFreeList
00000000 l    df *ABS*	00000000 BufferAllocation_1.c
00863bd0 l     O .bss	00000014 xFreeBuffersList
00830e4c l     O .bss	00000004 uxMinimumFreeNetworkBuffers
00863be4 l     O .bss	00000870 xNetworkBuffers
00830e50 l     O .bss	00000004 xNetworkBufferSemaphore
00818b64 l     F .text	00000024 bIsValidNetworkDescriptor
00818b88 l     F .text	0000001c prvShowWarnings
00000000 l    df *ABS*	00000000 lib2-divmod.c
0081901c l     F .text	0000006c udivmodsi4
00000000 l    df *ABS*	00000000 lib2-mul.c
00000000 l    df *ABS*	00000000 memcmp.c
00000000 l    df *ABS*	00000000 memcpy.c
00000000 l    df *ABS*	00000000 memmove.c
00000000 l    df *ABS*	00000000 memset.c
00000000 l    df *ABS*	00000000 printf.c
00000000 l    df *ABS*	00000000 puts.c
00000000 l    df *ABS*	00000000 rand.c
00000000 l    df *ABS*	00000000 snprintf.c
00000000 l    df *ABS*	00000000 sprintf.c
00000000 l    df *ABS*	00000000 strcpy.c
00000000 l    df *ABS*	00000000 strlen.c
00000000 l    df *ABS*	00000000 strncmp.c
00000000 l    df *ABS*	00000000 strncpy.c
00000000 l    df *ABS*	00000000 vfprintf.c
0082d3ea l     O .rodata	00000010 zeroes.4166
0082d3fa l     O .rodata	00000010 blanks.4165
00000000 l    df *ABS*	00000000 vfprintf.c
0082d40a l     O .rodata	00000010 zeroes.4181
0082d41a l     O .rodata	00000010 blanks.4180
00000000 l    df *ABS*	00000000 wsetup.c
00000000 l    df *ABS*	00000000 dtoa.c
0081df68 l     F .text	00000228 quorem
00000000 l    df *ABS*	00000000 fflush.c
00000000 l    df *ABS*	00000000 findfp.c
0081fb10 l     F .text	00000008 __fp_lock
0081fb18 l     F .text	00000008 __fp_unlock
0081fb2c l     F .text	000001a0 __sinit.part.1
00000000 l    df *ABS*	00000000 mallocr.c
00000000 l    df *ABS*	00000000 fvwrite.c
00000000 l    df *ABS*	00000000 fwalk.c
00000000 l    df *ABS*	00000000 impure.c
0082d6fc l     O .rwdata	00000424 impure_data
00000000 l    df *ABS*	00000000 locale.c
0082db40 l     O .rwdata	00000020 lc_ctype_charset
0082db20 l     O .rwdata	00000020 lc_message_charset
0082db60 l     O .rwdata	00000038 lconv
00000000 l    df *ABS*	00000000 makebuf.c
00000000 l    df *ABS*	00000000 mallocr.c
00000000 l    df *ABS*	00000000 memchr.c
00000000 l    df *ABS*	00000000 mprec.c
0082d44c l     O .rodata	0000000c p05.2678
00000000 l    df *ABS*	00000000 mallocr.c
00000000 l    df *ABS*	00000000 s_fpclassify.c
00000000 l    df *ABS*	00000000 sbrkr.c
00000000 l    df *ABS*	00000000 stdio.c
00000000 l    df *ABS*	00000000 strcmp.c
00000000 l    df *ABS*	00000000 vfprintf.c
0082d570 l     O .rodata	00000010 zeroes.4110
0082d580 l     O .rodata	00000010 blanks.4109
00000000 l    df *ABS*	00000000 vfprintf.c
0082403c l     F .text	000000fc __sprint_r.part.0
0082d5a0 l     O .rodata	00000010 blanks.4125
0082d590 l     O .rodata	00000010 zeroes.4126
00000000 l    df *ABS*	00000000 writer.c
00000000 l    df *ABS*	00000000 closer.c
00000000 l    df *ABS*	00000000 mallocr.c
00000000 l    df *ABS*	00000000 fclose.c
00000000 l    df *ABS*	00000000 fputwc.c
00000000 l    df *ABS*	00000000 fstatr.c
00000000 l    df *ABS*	00000000 int_errno.c
00000000 l    df *ABS*	00000000 isattyr.c
00000000 l    df *ABS*	00000000 lseekr.c
00000000 l    df *ABS*	00000000 readr.c
00000000 l    df *ABS*	00000000 wbuf.c
00000000 l    df *ABS*	00000000 wcrtomb.c
00000000 l    df *ABS*	00000000 wctomb_r.c
00000000 l    df *ABS*	00000000 libgcc2.c
00000000 l    df *ABS*	00000000 libgcc2.c
00000000 l    df *ABS*	00000000 libgcc2.c
00000000 l    df *ABS*	00000000 adddf3.c
00000000 l    df *ABS*	00000000 divdf3.c
00000000 l    df *ABS*	00000000 eqdf2.c
00000000 l    df *ABS*	00000000 gedf2.c
00000000 l    df *ABS*	00000000 ledf2.c
00000000 l    df *ABS*	00000000 muldf3.c
00000000 l    df *ABS*	00000000 subdf3.c
00000000 l    df *ABS*	00000000 fixdfsi.c
00000000 l    df *ABS*	00000000 floatsidf.c
00000000 l    df *ABS*	00000000 floatunsidf.c
00000000 l    df *ABS*	00000000 libgcc2.c
00000000 l    df *ABS*	00000000 libgcc2.c
00000000 l    df *ABS*	00000000 alt_close.c
00829448 l     F .text	00000050 alt_get_errno
00000000 l    df *ABS*	00000000 alt_dev.c
00829570 l     F .text	0000002c alt_dev_null_write
00000000 l    df *ABS*	00000000 alt_errno.c
00000000 l    df *ABS*	00000000 alt_fstat.c
0082959c l     F .text	00000050 alt_get_errno
00000000 l    df *ABS*	00000000 alt_irq_vars.c
00000000 l    df *ABS*	00000000 alt_isatty.c
008296a4 l     F .text	00000050 alt_get_errno
00000000 l    df *ABS*	00000000 alt_load.c
008297a0 l     F .text	00000064 alt_load_section
00000000 l    df *ABS*	00000000 alt_lseek.c
00829884 l     F .text	00000050 alt_get_errno
00000000 l    df *ABS*	00000000 alt_main.c
00000000 l    df *ABS*	00000000 alt_malloc_lock.c
00000000 l    df *ABS*	00000000 alt_read.c
00829a68 l     F .text	00000050 alt_get_errno
00000000 l    df *ABS*	00000000 alt_release_fd.c
00000000 l    df *ABS*	00000000 alt_sbrk.c
0082f238 l     O .rwdata	00000004 heap_end
00000000 l    df *ABS*	00000000 alt_write.c
00829cec l     F .text	00000050 alt_get_errno
00000000 l    df *ABS*	00000000 alt_sys_init.c
00829e3c l     F .text	00000038 alt_dev_reg
0082e148 l     O .rwdata	00001060 jtag_uart_0
00000000 l    df *ABS*	00000000 altera_avalon_jtag_uart_fd.c
00000000 l    df *ABS*	00000000 altera_avalon_jtag_uart_init.c
0082a150 l     F .text	00000208 altera_avalon_jtag_uart_irq
0082a358 l     F .text	000000a8 altera_avalon_jtag_uart_timeout
00000000 l    df *ABS*	00000000 altera_avalon_jtag_uart_ioctl.c
00000000 l    df *ABS*	00000000 altera_avalon_jtag_uart_read.c
00000000 l    df *ABS*	00000000 altera_avalon_jtag_uart_write.c
00000000 l    df *ABS*	00000000 altera_avalon_spi.c
00000000 l    df *ABS*	00000000 altera_avalon_timer_sc.c
0082ab7c l     F .text	00000078 alt_avalon_timer_sc_irq
00000000 l    df *ABS*	00000000 altera_avalon_timer_ts.c
00000000 l    df *ABS*	00000000 altera_avalon_timer_vars.c
00000000 l    df *ABS*	00000000 alt_alarm_start.c
00000000 l    df *ABS*	00000000 alt_dcache_flush_all.c
00000000 l    df *ABS*	00000000 alt_dev_llist_insert.c
0082af10 l     F .text	00000050 alt_get_errno
00000000 l    df *ABS*	00000000 alt_do_ctors.c
00000000 l    df *ABS*	00000000 alt_do_dtors.c
00000000 l    df *ABS*	00000000 alt_icache_flush_all.c
00000000 l    df *ABS*	00000000 alt_io_redirect.c
0082b0d8 l     F .text	000000e0 alt_open_fd
00000000 l    df *ABS*	00000000 alt_open.c
0082b230 l     F .text	00000050 alt_get_errno
0082b280 l     F .text	000000f4 alt_file_locked
00000000 l    df *ABS*	00000000 alt_tick.c
00000000 l    df *ABS*	00000000 altera_nios2_gen2_irq.c
00000000 l    df *ABS*	00000000 alt_find_dev.c
00000000 l    df *ABS*	00000000 alt_find_file.c
00000000 l    df *ABS*	00000000 alt_get_fd.c
00000000 l    df *ABS*	00000000 atexit.c
00000000 l    df *ABS*	00000000 exit.c
00000000 l    df *ABS*	00000000 __atexit.c
00000000 l    df *ABS*	00000000 __call_atexit.c
00000000 l    df *ABS*	00000000 alt_exit.c
008222e4 g     F .text	00000074 _mprec_log10
0080eab4 g     F .text	0000003c FreeRTOS_inet_addr
008223d0 g     F .text	0000008c __any_on
00825a68 g     F .text	00000054 _isatty_r
0080849c g     F .text	00000098 FreeRTOS_OutputARPRequest
0082d458 g     O .rodata	00000028 __mprec_tinytens
008299b0 g     F .text	00000078 alt_main
008199d4 g     F .text	00000090 strcpy
0080c2c4 g     F .text	0000003c FreeRTOS_UpdateMACAddress
0081960c g     F .text	000000b8 _puts_r
0086500c g     O .bss	00000100 alt_irq
00825abc g     F .text	0000005c _lseek_r
008000c4 g       .exceptions	00000000 restore_sp_from_pxCurrentTCB
00805634 g     F .text	00000060 vTaskPlaceOnUnorderedEventList
008187b0 g     F .text	00000020 xPortGetFreeHeapSize
00801114 g     F .text	0000003c xEventGroupGetBitsFromISR
00817dfc g     F .text	00000074 eth_read_phy
0082f244 g       *ABS*	00000000 __flash_rwdata_start
00800620 g     F .text	00000068 vStartHTTPServer
00827e68 g     F .text	00000084 .hidden __eqdf2
0080d090 g     F .text	00000078 FreeRTOS_FD_CLR
0080acb8 g     F .text	00000044 vIPNetworkUpCalls
008066c8 g     F .text	0000019c vTaskGetRunTimeStats
0080e528 g     F .text	00000060 pxUDPSocketLookup
0080e588 g     F .text	000001dc FreeRTOS_inet_ntoa
0080aa10 g     F .text	000000fc xSendEventStructToIPTask
0086510c g       *ABS*	00000000 __alt_heap_start
008047d8 g     F .text	00000058 uxTaskPriorityGet
0080d2b0 g     F .text	00000220 FreeRTOS_recvfrom
008195d0 g     F .text	0000003c printf
008181a0 g     F .text	00000054 enc_get_buf_len
00817b48 g     F .text	000000c0 eth_read_ctrl_8
00825ce4 g     F .text	0000009c _wcrtomb_r
00822b9c g     F .text	0000005c __sseek
0081fe74 g     F .text	00000010 __sinit
008009b0 g     F .text	00000024 ulDNSHandlePacket
00805bcc g     F .text	0000015c vTaskGetInfo
00825b74 g     F .text	00000154 __swbuf_r
0082f200 g     O .rwdata	00000004 xBufferAllocFixedSize
008157c4 g     F .text	000007ac xProcessReceivedTCPPacket
0080090c g     F .text	0000003c vLoggingPrintf
008208ec g     F .text	0000007c _setlocale_r
00830e04 g     O .bss	00000002 usPacketIdentifier
0081fccc g     F .text	00000078 __sfmoreglue
00803760 g     F .text	00000168 xStreamBufferReceive
008088b4 g     F .text	00000040 xIsDHCPSocket
00829a48 g     F .text	00000020 __malloc_unlock
00817860 g     F .text	000000d4 vNetworkInterfaceAllocateRAMToBuffers
00817d08 g     F .text	00000088 eth_write_ctrl_16
00804558 g     F .text	000000f0 xTaskDelayUntil
008105c8 g     F .text	0000003c FreeRTOS_netstat
0082c028 g     O .rodata	000000eb http_header
0080da70 g     F .text	00000190 vSocketClose
008181f4 g     F .text	000001a0 eth_rx_packet
00830e84 g     O .bss	00000004 altera_avalon_timer_ts_freq
00800d80 g     F .text	00000184 xEventGroupSync
0080eebc g     F .text	00000110 FreeRTOS_connect
00819324 g     F .text	0000015c memmove
00807274 g     F .text	000000b8 ulTaskGenericNotifyValueClear
00806388 g     F .text	00000050 vTaskEnterCritical
0081fe5c g     F .text	00000018 _cleanup
0081982c g     F .text	000000e4 snprintf
008021e8 g     F .text	000000f4 xQueueGenericSendFromISR
00805070 g     F .text	00000040 pcTaskGetName
00821414 g     F .text	000000a8 _Balloc
0082f1b4 g     O .rwdata	00000004 my_ip
008032fc g     F .text	00000088 xStreamBufferSpacesAvailable
0080d010 g     F .text	00000080 FreeRTOS_FD_SET
00827eec g     F .text	000000e0 .hidden __gtdf2
0082b670 g     F .text	00000020 altera_nios2_gen2_irq_init
00000000  w      *UND*	00000000 __errno
00816564 g     F .text	0000006c FreeRTOS_GetTCPStateName
008031e4 g     F .text	000000ac xStreamBufferReset
00832bf0 g     O .bss	00000014 xNetworkAddressing
00800000 g     F .entry	0000000c __reset
00801ea8 g     F .text	00000090 xQueueGiveMutexRecursive
00818fe8 g     F .text	00000034 pxResizeNetworkBufferWithDescriptor
00830da8 g     O .bss	00000004 pxCurrentTCB
0080a5b4 g     F .text	000002dc FreeRTOS_IPInit
00800020 g       *ABS*	00000000 __flash_exceptions_start
00825a10 g     F .text	00000058 _fstat_r
00830e6c g     O .bss	00000004 errno
00822b18 g     F .text	00000008 __seofread
00822e6c g     F .text	000011d0 ___svfiprintf_internal_r
00801420 g     F .text	00000048 uxEventGroupGetNumber
00803594 g     F .text	000000f8 xStreamBufferSendFromISR
00830e78 g     O .bss	00000004 alt_argv
0080763c g     F .text	00000020 FreeRTOS_CLIGetOutputBuffer
0080eb68 g     F .text	000000d0 vSocketWakeUpUser
00810414 g     F .text	00000080 FreeRTOS_issocketconnected
008371a8 g       *ABS*	00000000 _gp
00817a84 g     F .text	00000070 eth_clear_bit
0080487c g     F .text	000001bc vTaskPrioritySet
008058ac g     F .text	00000038 vTaskInternalSetTimeOutState
00800f04 g     F .text	000001a8 xEventGroupWaitBits
0082dfc8 g     O .rwdata	00000180 alt_fd_list
00810b98 g     F .text	000001bc uxStreamBufferAdd
008131f0 g     F .text	00000328 vTCPStateChange
00801820 g     F .text	00000038 xPortStartScheduler
00804e2c g     F .text	00000044 vTaskEndScheduler
0082b690 g     F .text	00000090 alt_find_dev
00817c08 g     F .text	00000084 eth_read_ctrl_16
008191ec g     F .text	00000138 memcpy
008055e8 g     F .text	0000004c vTaskPlaceOnEventList
00805794 g     F .text	000000d0 vTaskRemoveFromUnorderedEventList
0081fb20 g     F .text	0000000c _cleanup_r
00829270 g     F .text	000000d0 .hidden __floatsidf
00810494 g     F .text	0000005c FreeRTOS_mss
0082f1bc g     O .rwdata	00000004 mygate
0082b1b8 g     F .text	00000078 alt_io_redirect
00827fcc g     F .text	000000e0 .hidden __ltdf2
00817a14 g     F .text	00000070 eth_set_bit
00802a1c g     F .text	0000007c xQueuePeekFromISR
0080eaf0 g     F .text	00000078 FreeRTOS_GetLocalAddress
008005cc g     F .text	00000054 vRegisterCLICommands
0082bc30 g       *ABS*	00000000 __DTOR_END__
00807958 g     F .text	000002c0 eARPProcessPacket
0080d160 g     F .text	000000c0 FreeRTOS_select
008196c4 g     F .text	00000014 puts
008186f0 g     F .text	000000c0 vPortFree
0082f1e4 g     O .rwdata	00000006 xBroadcastMACAddress
0080ab5c g     F .text	000000d8 eConsiderFrameForProcessing
008229fc g     F .text	00000074 __fpclassifyd
0080e828 g     F .text	00000078 FreeRTOS_inet_ntop4
00822240 g     F .text	000000a4 __ratio
00825574 g     F .text	00000024 __vfiprintf_internal
00802568 g     F .text	00000218 xQueueSemaphoreTake
00800974 g     F .text	0000003c ulApplicationGetNextSequenceNumber
00802b9c g     F .text	00000028 uxQueueGetQueueNumber
0081054c g     F .text	0000007c FreeRTOS_rx_size
0082a554 g     F .text	0000020c altera_avalon_jtag_uart_read
00000000  w      *UND*	00000000 malloc
008195a4 g     F .text	0000002c _printf_r
00819138 g     F .text	00000008 .hidden __udivsi3
008296f4 g     F .text	000000ac isatty
00801468 g     F .text	00000030 vEventGroupSetNumber
008104f0 g     F .text	0000005c FreeRTOS_connstatus
0082d4a8 g     O .rodata	000000c8 __mprec_tens
00805ebc g     F .text	00000060 uxTaskGetStackHighWaterMark
0080a398 g     F .text	00000094 FreeRTOS_GetUDPPayloadBuffer
00820968 g     F .text	0000000c __locale_charset
00816bfc g     F .text	00000104 ulTCPWindowTxGet
00801524 g     F .text	00000088 vListInsertEnd
00830e68 g     O .bss	00000004 __malloc_top_pad
008068e0 g     F .text	0000011c ulTaskGenericNotifyTake
00817e70 g     F .text	00000050 eth_soft_reset
00800d2c g     F .text	00000054 xEventGroupCreate
0082f20c g     O .rwdata	00000004 __mb_cur_max
00820998 g     F .text	0000000c _localeconv_r
0082183c g     F .text	0000003c __i2b
008202d8 g     F .text	000004a4 __sfvwrite_r
00822a70 g     F .text	00000054 _sbrk_r
00807fb4 g     F .text	00000194 eARPGetCacheEntry
00801340 g     F .text	00000038 vEventGroupSetBitsCallback
00804ca4 g     F .text	000000f4 xTaskResumeFromISR
0080846c g     F .text	00000030 vARPSendGratuitous
00818fc0 g     F .text	00000028 uxGetNumberOfFreeNetworkBuffers
00825b18 g     F .text	0000005c _read_r
008014fc g     F .text	00000028 vListInitialiseItem
0082f22c g     O .rwdata	00000004 alt_max_fd
00811470 g     F .text	000000a8 xTCPSocketCheck
00809f78 g     F .text	00000048 xIsCallingFromIPTask
0080190c g     F .text	00000048 vPortSysTickHandler
00825720 g     F .text	00000100 _fclose_r
0082f1b8 g     O .rwdata	00000004 mymask
008023b8 g     F .text	000001b0 xQueueReceive
0081fae0 g     F .text	00000030 fflush
00830e64 g     O .bss	00000004 __malloc_max_sbrked_mem
00864fe4 g     O .bss	00000014 xBoundTCPSocketsList
00804830 g     F .text	0000004c uxTaskPriorityGetFromISR
008088f4 g     F .text	00000028 eGetDHCPState
00801954 g     F .text	000001a0 alt_irq_register
0080cfc8 g     F .text	00000048 FreeRTOS_DeleteSocketSet
0081689c g     F .text	0000015c vTCPWindowInit
00826c4c g     F .text	0000089c .hidden __adddf3
00821fe8 g     F .text	0000011c __b2d
00826630 g     F .text	0000061c .hidden __umoddi3
008298d4 g     F .text	000000dc lseek
0082f204 g     O .rwdata	00000004 _global_impure_ptr
00801150 g     F .text	00000180 xEventGroupSetBits
0082245c g     F .text	000005a0 _realloc_r
0086510c g       *ABS*	00000000 __bss_end
0082b56c g     F .text	00000104 alt_tick
00825ff0 g     F .text	00000640 .hidden __udivdi3
00825834 g     F .text	00000184 _fputwc_r
0082d480 g     O .rodata	00000028 __mprec_bigtens
00821620 g     F .text	00000104 __s2b
00816a6c g     F .text	00000190 lTCPWindowTxAdd
00829340 g     F .text	000000a4 .hidden __floatunsidf
00821d90 g     F .text	00000060 __mcmp
0080a890 g     F .text	0000009c FreeRTOS_GetAddressConfiguration
008184e4 g     F .text	0000020c pvPortMalloc
0081fe94 g     F .text	00000018 __fp_lock_all
0080ae34 g     F .text	00000084 xIsIPv4Multicast
00802b64 g     F .text	00000038 vQueueDelete
00817730 g     F .text	000000dc process_data_packet
00801858 g     F .text	0000001c vPortEndScheduler
00800a18 g     F .text	00000068 vStartSimpleTCPServerTasks
00801498 g     F .text	00000064 vListInitialise
00803b18 g     F .text	00000058 xStreamBufferIsEmpty
0082b4d4 g     F .text	00000098 alt_alarm_stop
00830e70 g     O .bss	00000004 alt_irq_active
0080017c g     F .exceptions	000000d4 alt_irq_handler
0082dfa0 g     O .rwdata	00000028 alt_dev_null
00804ffc g     F .text	00000028 xTaskGetTickCount
0080202c g     F .text	000001bc xQueueGenericSend
0080ccb8 g     F .text	0000003c vNetworkSocketsInit
0080ffc8 g     F .text	000001a0 lTCPAddRxdata
008033c4 g     F .text	000001d0 xStreamBufferSend
00816d00 g     F .text	00000040 xTCPWindowTxDone
00803c74 g     F .text	00000088 xStreamBufferReceiveCompletedFromISR
0082aef4 g     F .text	0000001c alt_dcache_flush_all
00821724 g     F .text	00000068 __hi0bits
008050b0 g     F .text	000001cc uxTaskGetSystemState
00807074 g     F .text	0000016c vTaskGenericNotifyGiveFromISR
008291e8 g     F .text	00000088 .hidden __fixdfsi
008038c8 g     F .text	000000a8 xStreamBufferNextMessageLengthBytes
00806128 g     F .text	00000108 xTaskPriorityDisinherit
0082f244 g       *ABS*	00000000 __ram_rwdata_end
008175f4 g     F .text	0000013c xProcessReceivedUDPPacket
0082f224 g     O .rwdata	00000008 alt_dev_list
00829d3c g     F .text	00000100 write
0082ad8c g     F .text	00000028 alt_timestamp_freq
00805694 g     F .text	00000100 xTaskRemoveFromEventList
008008c8 g     F .text	00000044 vApplicationMallocFailedHook
0082d6e4 g       *ABS*	00000000 __ram_rodata_end
00818df0 g     F .text	00000084 pxNetworkBufferGetFromISR
008295ec g     F .text	000000b8 fstat
00832c04 g     O .bss	00000014 xDefaultAddressing
008010ac g     F .text	00000068 xEventGroupClearBits
0081780c g     F .text	00000054 xNetworkInterfaceInitialise
00817000 g     F .text	00000020 vTCPWindowDestroy
00827fcc g     F .text	000000e0 .hidden __ledf2
00802780 g     F .text	000001b8 xQueuePeek
00817c8c g     F .text	0000007c eth_write_ctrl_8
00817984 g     F .text	00000030 vNetworkNotifyIFUp
00821b08 g     F .text	00000140 __pow5mult
00824150 g     F .text	00001424 ___vfiprintf_internal_r
00830e5c g     O .bss	00000004 __nlocale_changed
00819140 g     F .text	00000008 .hidden __umodsi3
0080869c g     F .text	00000038 FreeRTOS_ClearARP
0086510c g       *ABS*	00000000 end
00803970 g     F .text	000000ec xStreamBufferReceiveFromISR
00804474 g     F .text	000000e4 vTaskDelete
0082a098 g     F .text	000000b8 altera_avalon_jtag_uart_init
0080f950 g     F .text	00000150 FreeRTOS_listen
0080c29c g     F .text	00000028 FreeRTOS_GetNetmask
008068a8 g     F .text	00000038 pvTaskIncrementMutexHeldCount
0082bc30 g       *ABS*	00000000 __CTOR_LIST__
01000000 g       *ABS*	00000000 __alt_stack_pointer
0082abf4 g     F .text	00000080 alt_avalon_timer_sc_init
008293e4 g     F .text	00000064 .hidden __clzsi2
00819754 g     F .text	000000d8 _snprintf_r
0082a760 g     F .text	00000218 altera_avalon_jtag_uart_write
0080c3dc g     F .text	00000038 vIPReloadDHCPTimer
0081fe84 g     F .text	00000004 __sfp_lock_acquire
0082132c g     F .text	000000e8 memchr
0081bd18 g     F .text	000020fc ___vfprintf_internal_r
00819910 g     F .text	00000058 _sprintf_r
008058e4 g     F .text	000000e8 xTaskCheckForTimeOut
0080de74 g     F .text	0000051c FreeRTOS_setsockopt
0081ffe8 g     F .text	000002f0 _free_r
0081813c g     F .text	00000064 eth_read_buf
0080a548 g     F .text	00000034 pxUDPPayloadBuffer_to_NetworkBuffer
00805fc8 g     F .text	00000160 xTaskPriorityInherit
00810398 g     F .text	0000007c FreeRTOS_tx_size
00820974 g     F .text	00000010 __locale_mb_cur_max
00801b40 g     F .text	00000060 vTaskGetTimestamp
0080d9e4 g     F .text	0000008c FreeRTOS_closesocket
00817934 g     F .text	00000020 xGetPhyLinkStatus
0082ba68 g     F .text	00000194 __call_exitprocs
008069fc g     F .text	00000188 xTaskGenericNotifyWait
00803184 g     F .text	00000060 vStreamBufferDelete
00830e58 g     O .bss	00000004 __mlocale_changed
0082f210 g     O .rwdata	00000004 __malloc_sbrk_base
00800250 g     F .text	0000003c _start
00830e88 g     O .bss	00000004 _alt_tick_rate
00804e70 g     F .text	00000028 vTaskSuspendAll
008046a0 g     F .text	00000138 eTaskGetState
00803b70 g     F .text	0000007c xStreamBufferIsFull
0080d6b4 g     F .text	00000150 FreeRTOS_bind
0080748c g     F .text	000001b0 FreeRTOS_CLIProcessCommand
00805024 g     F .text	0000002c xTaskGetTickCountFromISR
008196f0 g     F .text	00000064 rand
00821c48 g     F .text	00000148 __lshift
0082a978 g     F .text	00000204 alt_avalon_spi_command
00830e8c g     O .bss	00000004 _alt_nticks
00810240 g     F .text	000000d4 FreeRTOS_maywrite
00829ab8 g     F .text	00000104 read
00829ea8 g     F .text	0000008c alt_sys_init
0080401c g     F .text	00000030 vStreamBufferSetStreamBufferNumber
00822ca4 g     F .text	000001c8 __ssprint_r
00801680 g     F .text	00000098 uxListRemove
0082b954 g     F .text	00000114 __register_exitproc
00819afc g     F .text	000000c0 strncmp
008030c0 g     F .text	000000c4 xStreamBufferGenericCreate
00821878 g     F .text	00000290 __multiply
0082a400 g     F .text	00000068 altera_avalon_jtag_uart_close
00819148 g     F .text	00000028 .hidden __mulsi3
0082d6e4 g       *ABS*	00000000 __ram_rwdata_start
0082bc30 g       *ABS*	00000000 __ram_rodata_start
00819bbc g     F .text	000000ec strncpy
00864454 g     O .bss	00000028 __malloc_current_mallinfo
00804bd0 g     F .text	000000d4 vTaskResume
00822104 g     F .text	0000013c __d2b
0080c354 g     F .text	00000030 FreeRTOS_SetGatewayAddress
0080404c g     F .text	0000002c ucStreamBufferGetStreamBufferType
00805490 g     F .text	00000158 vTaskSwitchContext
00818fa0 g     F .text	00000020 uxGetMinimumFreeNetworkBuffers
0080e7c4 g     F .text	00000064 FreeRTOS_inet_ntop
00829f34 g     F .text	00000060 altera_avalon_jtag_uart_read_fd
0082b834 g     F .text	000000d4 alt_get_fd
0080c24c g     F .text	00000028 FreeRTOS_GetGatewayAddress
008255f4 g     F .text	00000054 _close_r
008009d4 g     F .text	00000044 vApplicationGetIdleTaskMemory
00819170 g     F .text	0000007c memcmp
0080f6b4 g     F .text	0000029c FreeRTOS_send
00829ff4 g     F .text	00000050 altera_avalon_jtag_uart_close_fd
0086510c g       *ABS*	00000000 __alt_stack_base
0082a044 g     F .text	00000054 altera_avalon_jtag_uart_ioctl_fd
00818ce4 g     F .text	0000010c pxGetNetworkBufferWithDescriptor
0080faa0 g     F .text	000000a0 FreeRTOS_shutdown
00805a38 g     F .text	00000040 vTaskSetTaskNumber
0081de38 g     F .text	00000130 __swsetup_r
008007f8 g     F .text	00000038 vApplicationStackOverflowHook
00804a38 g     F .text	0000012c vTaskSuspend
008274e8 g     F .text	00000980 .hidden __divdf3
0081fd44 g     F .text	00000118 __sfp
00822358 g     F .text	00000078 __copybits
0080527c g     F .text	00000048 xTaskCatchUpTicks
00805050 g     F .text	00000020 uxTaskGetNumberOfTasks
00817068 g     F .text	0000058c vProcessGeneratedUDPPacket
00000000         *UND*	00000000 save_context
0082db98 g     O .rwdata	00000408 __malloc_av_
0081fe90 g     F .text	00000004 __sinit_lock_release
0082d6e4 g     O .rwdata	00000018 xDefaultPartUDPPacketHeader
008280ac g     F .text	0000086c .hidden __muldf3
00822ac4 g     F .text	00000054 __sread
00810604 g     F .text	0000033c vSocketSelect
00810314 g     F .text	00000084 FreeRTOS_tx_space
0082b720 g     F .text	00000114 alt_find_file
0080fcb0 g     F .text	0000010c pxTCPSocketLookup
0082af60 g     F .text	000000a4 alt_dev_llist_insert
00829a28 g     F .text	00000020 __malloc_lock
00829c3c g     F .text	000000b0 sbrk
00819ca8 g     F .text	00002070 ___svfprintf_internal_r
00801f38 g     F .text	0000009c xQueueTakeMutexRecursive
0081f8b8 g     F .text	00000228 _fflush_r
008012d0 g     F .text	00000070 vEventGroupDelete
00810d54 g     F .text	00000194 uxStreamBufferGet
00816e78 g     F .text	00000144 ulTCPWindowTxAck
00825648 g     F .text	000000d8 _calloc_r
0086447c g     O .bss	000005b4 rx_buf
00806b84 g     F .text	0000025c xTaskGenericNotify
00810168 g     F .text	000000d8 FreeRTOS_GetRemoteAddress
00830da4 g       *ABS*	00000000 __bss_start
00864ff8 g     O .bss	00000014 xBoundUDPSocketsList
008064c4 g     F .text	00000204 vTaskList
008059f0 g     F .text	00000048 uxTaskGetTaskNumber
00819480 g     F .text	00000124 memset
00800830 g     F .text	0000004c main
00830e7c g     O .bss	00000004 alt_envp
00830e60 g     O .bss	00000004 __malloc_max_total_mem
0080e764 g     F .text	00000060 FreeRTOS_inet_pton
00829f94 g     F .text	00000060 altera_avalon_jtag_uart_write_fd
00825cc8 g     F .text	0000001c __swbuf
008196d8 g     F .text	00000018 srand
0080a92c g     F .text	0000009c FreeRTOS_SetAddressConfiguration
008015ac g     F .text	000000d4 vListInsert
0080cf4c g     F .text	0000007c FreeRTOS_CreateSocketSet
0080fb40 g     F .text	00000170 xTCPTimerCheck
00822bf8 g     F .text	00000008 __sclose
01000000 g       *ABS*	00000000 __alt_heap_limit
00818394 g     F .text	00000150 enc_tx_packet
00825820 g     F .text	00000014 fclose
0082ac74 g     F .text	00000088 alt_timestamp_start
0081e190 g     F .text	00001728 _dtoa_r
00820b84 g     F .text	000007a8 _malloc_r
00825e58 g     F .text	00000030 __ascii_wctomb
0080c274 g     F .text	00000028 FreeRTOS_GetDNSServerAddress
00802bf4 g     F .text	00000028 ucQueueGetQueueType
0082f230 g     O .rwdata	00000004 alt_errno
0080765c g     F .text	00000180 FreeRTOS_CLIGetParameter
0082077c g     F .text	000000b8 _fwalk
00816fbc g     F .text	00000044 xTCPWindowRxEmpty
00802938 g     F .text	000000e4 xQueueReceiveFromISR
00805fa0 g     F .text	00000028 xTaskGetCurrentTaskHandle
00818e74 g     F .text	0000005c vNetworkBufferReleaseFromISR
00800948 g     F .text	0000002c xApplicationGetRandomNumber
00819088 g     F .text	00000054 .hidden __divsi3
00801ccc g     F .text	00000098 xQueueGenericCreate
0081fec4 g     F .text	00000124 _malloc_trim_r
0082bc30 g       *ABS*	00000000 __CTOR_END__
00822c00 g     F .text	000000a4 strcmp
00801fd4 g     F .text	00000058 xQueueCreateCountingSemaphore
0082bc30 g       *ABS*	00000000 __flash_rodata_start
00818ed0 g     F .text	000000d0 vReleaseNetworkBufferAndDescriptor
0082bc30 g       *ABS*	00000000 __DTOR_LIST__
00803290 g     F .text	0000006c xStreamBufferSetTriggerLevel
0080c434 g     F .text	00000020 FreeRTOS_IsNetworkUp
00806de0 g     F .text	00000294 xTaskGenericNotifyFromISR
00827e68 g     F .text	00000084 .hidden __nedf2
00802bc4 g     F .text	00000030 vQueueSetQueueNumber
00829e74 g     F .text	00000034 alt_irq_init
00829bbc g     F .text	00000080 alt_release_fd
00830e24 g     O .bss	00000004 xTCPWindowLoggingLevel
00804e98 g     F .text	00000164 xTaskResumeAll
0080f238 g     F .text	000002a4 FreeRTOS_recv
0082f1d4 g     O .rwdata	00000004 uxTopUsedPriority
00802ad8 g     F .text	00000054 uxQueueSpacesAvailable
00819968 g     F .text	0000006c sprintf
0082d5b0 g     O .rodata	00000100 .hidden __clz_tab
00804d98 g     F .text	00000094 vTaskStartScheduler
00830e54 g     O .bss	00000004 _PathLocale
0082b908 g     F .text	00000014 atexit
0080cda4 g     F .text	000001a8 FreeRTOS_socket
00825598 g     F .text	0000005c _write_r
008165d0 g     F .text	00000114 xTCPCheckNewClient
00801af4 g     F .text	0000004c vConfigureTimerForRunTimeStats
008209a4 g     F .text	0000001c setlocale
00803070 g     F .text	00000050 xQueueIsQueueFullFromISR
00864a30 g     O .bss	000005b4 tx_buf
0080c21c g     F .text	00000030 FreeRTOS_SetIPAddress
0082f208 g     O .rwdata	00000004 _impure_ptr
00830e74 g     O .bss	00000004 alt_argc
00803ff4 g     F .text	00000028 uxStreamBufferGetStreamBufferNumber
00830e80 g     O .bss	00000004 altera_avalon_timer_ts_base
0082b060 g     F .text	0000005c _do_dtors
00820990 g     F .text	00000008 __locale_cjk_lang
0080087c g     F .text	0000004c vApplicationIPNetworkEventHook
0080ab0c g     F .text	00000050 xSendDHCPEvent
00807410 g     F .text	0000007c FreeRTOS_CLIRegisterCommand
00821f88 g     F .text	00000060 __ulp
0081feac g     F .text	00000018 __fp_unlock_all
008059cc g     F .text	00000024 vTaskMissedYield
00830e00 g     O .bss	00000004 xNetworkEventQueue
00808260 g     F .text	0000020c vARPAgeCache
00817954 g     F .text	00000030 vNetworkNotifyIFDown
0082f21c g     O .rwdata	00000008 alt_fs_list
00802a98 g     F .text	00000040 uxQueueMessagesWaiting
0080e8a0 g     F .text	00000214 FreeRTOS_inet_pton4
0080efcc g     F .text	0000026c FreeRTOS_accept
0080a42c g     F .text	000000a8 pxDuplicateNetworkBufferWithDescriptor
00816d8c g     F .text	000000ec xTCPWindowTxHasData
0080f5e8 g     F .text	000000cc FreeRTOS_get_tx_head
008052c4 g     F .text	000001cc xTaskIncrementTick
00800020 g       *ABS*	00000000 __ram_exceptions_start
0080c414 g     F .text	00000020 xIPIsNetworkTaskReady
008209c0 g     F .text	0000000c localeconv
0082acfc g     F .text	00000090 alt_timestamp
0082f1c0 g     O .rwdata	00000006 mymac
00800000 g       *ABS*	00000000 __alt_mem_new_sdram_controller_0
00816820 g     F .text	0000007c vTCPWindowCreate
00801ba0 g     F .text	0000012c xQueueGenericReset
0082f244 g       *ABS*	00000000 _edata
0086510c g       *ABS*	00000000 _end
0080c1f4 g     F .text	00000028 FreeRTOS_GetIPAddress
00800250 g       *ABS*	00000000 __ram_exceptions_end
0082a468 g     F .text	000000ec altera_avalon_jtag_uart_ioctl
0080c384 g     F .text	00000058 vIPSetDHCPTimerEnableState
00817ef0 g     F .text	000001ec eth_init
0080c300 g     F .text	00000024 FreeRTOS_GetMACAddress
00804078 g     F .text	000000e8 xTaskCreate
008187f0 g     F .text	0000001c vPortInitialiseBlocks
008071e0 g     F .text	00000094 xTaskGenericNotifyStateClear
00822b20 g     F .text	0000007c __swrite
0082f214 g     O .rwdata	00000004 __malloc_trim_threshold
00820984 g     F .text	0000000c __locale_msgcharset
0082b91c g     F .text	00000038 exit
00820834 g     F .text	000000b8 _fwalk_reent
00821df0 g     F .text	00000198 __mdiff
0080aeb8 g     F .text	000000b8 vSetMultiCastIPv4MacAddress
0080b7f4 g     F .text	00000620 usGenerateProtocolChecksum
00817af4 g     F .text	00000054 eth_set_bank
008190dc g     F .text	0000005c .hidden __modsi3
0080d804 g     F .text	000001e0 vSocketBind
00804648 g     F .text	00000058 vTaskDelay
008086d4 g     F .text	000000ec xCheckLoopback
01000000 g       *ABS*	00000000 __alt_data_end
0081fe88 g     F .text	00000004 __sfp_lock_release
00806230 g     F .text	00000158 vTaskPriorityDisinheritAfterTimeout
0080d108 g     F .text	00000058 FreeRTOS_FD_ISSET
00808534 g     F .text	00000168 vARPGenerateRequestPacket
0082bbfc g     F .text	00000034 _exit
0082adb4 g     F .text	00000140 alt_alarm_start
00825ee4 g     F .text	0000010c .hidden __muldi3
008209cc g     F .text	000001b8 __smakebuf_r
00807c18 g     F .text	0000039c vARPRefreshCacheEntry
008063d8 g     F .text	0000005c vTaskExitCritical
008087c0 g     F .text	000000ac FreeRTOS_PrintARPCache
00819a64 g     F .text	00000098 strlen
0080fdbc g     F .text	0000005c FreeRTOS_get_rx_buf
00801740 g     F .text	000000e0 pxPortInitialiseStack
0082b374 g     F .text	00000160 open
00827eec g     F .text	000000e0 .hidden __gedf2
0080d4d0 g     F .text	000001e4 FreeRTOS_sendto
008169f8 g     F .text	00000074 lTCPWindowRxCheck
0082f218 g     O .rwdata	00000004 __wctomb
00818a5c g     F .text	00000108 vPortGetHeapStats
00824138 g     F .text	00000018 __sprint_r
0082b0bc g     F .text	0000001c alt_icache_flush_all
008179b4 g     F .text	00000060 xNetworkInterfaceOutput
00805864 g     F .text	00000048 vTaskSetTimeOutState
0080a9c8 g     F .text	00000048 xSendEventToIPTask
0080c454 g     F .text	000003d0 FreeRTOS_strerror_r
0080a33c g     F .text	0000005c FreeRTOS_NetworkDownFromISR
0080c15c g     F .text	00000098 vReturnEthernetFrame
0080a2f0 g     F .text	0000004c FreeRTOS_NetworkDown
0082f234 g     O .rwdata	00000004 alt_priority_mask
00817d90 g     F .text	0000006c eth_write_phy
0080c324 g     F .text	00000030 FreeRTOS_SetNetmask
0081de14 g     F .text	00000024 __vfprintf_internal
00825e88 g     F .text	0000005c _wctomb_r
00802b2c g     F .text	00000038 uxQueueMessagesWaitingFromISR
00802fd0 g     F .text	00000048 xQueueIsQueueEmptyFromISR
00803384 g     F .text	00000040 xStreamBufferBytesAvailable
00828918 g     F .text	000008d0 .hidden __subdf3
0082178c g     F .text	000000b0 __lo0bits
008180dc g     F .text	00000060 eth_read_buf_8
0082f23c g     O .rwdata	00000008 alt_alarm_list
0082b004 g     F .text	0000005c _do_ctors
00806864 g     F .text	00000044 uxTaskResetEventItemValue
00825d80 g     F .text	000000d8 wcrtomb
00801e4c g     F .text	0000005c xQueueCreateMutex
0080be14 g     F .text	00000348 usGenerateChecksum
00829498 g     F .text	000000d8 close
0080891c g     F .text	0000065c vDHCPProcess
00818ba4 g     F .text	00000140 xNetworkBuffersInitialise
00829804 g     F .text	00000080 alt_load
00801378 g     F .text	00000038 vEventGroupClearBitsCallback
008187d0 g     F .text	00000020 xPortGetMinimumEverFreeHeapSize
00803bec g     F .text	00000088 xStreamBufferSendCompletedFromISR
008022dc g     F .text	000000dc xQueueGiveFromISR
008259b8 g     F .text	00000058 fputwc
00817ec0 g     F .text	00000030 eth_get_pktcnt
00000000  w      *UND*	00000000 free
0080a57c g     F .text	00000038 FreeRTOS_ReleaseUDPPayloadBuffer
0081fe8c g     F .text	00000004 __sinit_lock_acquire
008214e4 g     F .text	0000013c __multadd
008214bc g     F .text	00000028 _Bfree



Disassembly of section .entry:

00800000 <__reset>:
  800000:	00402034 	movhi	at,128
  800004:	08409414 	ori	at,at,592
  800008:	0800683a 	jmp	at
	...

Disassembly of section .exceptions:

00800020 <save_context>:
  800020:	ef7fff04 	addi	ea,ea,-4
  800024:	deffe304 	addi	sp,sp,-116
  800028:	dfc00015 	stw	ra,0(sp)
  80002c:	d8400215 	stw	at,8(sp)
  800030:	d8800315 	stw	r2,12(sp)
  800034:	d8c00415 	stw	r3,16(sp)
  800038:	d9000515 	stw	r4,20(sp)
  80003c:	d9400615 	stw	r5,24(sp)
  800040:	d9800715 	stw	r6,28(sp)
  800044:	d9c00815 	stw	r7,32(sp)
  800048:	da000915 	stw	r8,36(sp)
  80004c:	da400a15 	stw	r9,40(sp)
  800050:	da800b15 	stw	r10,44(sp)
  800054:	dac00c15 	stw	r11,48(sp)
  800058:	db000d15 	stw	r12,52(sp)
  80005c:	db400e15 	stw	r13,56(sp)
  800060:	db800f15 	stw	r14,60(sp)
  800064:	dbc01015 	stw	r15,64(sp)
  800068:	000b307a 	rdctl	r5,estatus
  80006c:	d9401115 	stw	r5,68(sp)
  800070:	df401215 	stw	ea,72(sp)
  800074:	dc001315 	stw	r16,76(sp)
  800078:	dc401415 	stw	r17,80(sp)
  80007c:	dc801515 	stw	r18,84(sp)
  800080:	dcc01615 	stw	r19,88(sp)
  800084:	dd001715 	stw	r20,92(sp)
  800088:	dd401815 	stw	r21,96(sp)
  80008c:	dd801915 	stw	r22,100(sp)
  800090:	ddc01a15 	stw	r23,104(sp)
  800094:	de801b15 	stw	gp,108(sp)
  800098:	df001c15 	stw	fp,112(sp)

0080009c <save_sp_to_pxCurrentTCB>:
  80009c:	060020f4 	movhi	et,131
  8000a0:	c6036a04 	addi	et,et,3496
  8000a4:	c6000017 	ldw	et,0(et)
  8000a8:	c6c00015 	stw	sp,0(et)

008000ac <hw_irq_test>:
  8000ac:	0009313a 	rdctl	r4,ipending
  8000b0:	000b307a 	rdctl	r5,estatus
  8000b4:	2880004c 	andi	r2,r5,1
  8000b8:	10002526 	beq	r2,zero,800150 <soft_exceptions>
  8000bc:	20002426 	beq	r4,zero,800150 <soft_exceptions>

008000c0 <hw_irq_handler>:
  8000c0:	080017c0 	call	80017c <alt_irq_handler>

008000c4 <restore_sp_from_pxCurrentTCB>:
  8000c4:	060020f4 	movhi	et,131
  8000c8:	c6036a04 	addi	et,et,3496
  8000cc:	c6000017 	ldw	et,0(et)
  8000d0:	c6c00017 	ldw	sp,0(et)

008000d4 <restore_context>:
  8000d4:	dfc00017 	ldw	ra,0(sp)
  8000d8:	d8400217 	ldw	at,8(sp)
  8000dc:	d8800317 	ldw	r2,12(sp)
  8000e0:	d8c00417 	ldw	r3,16(sp)
  8000e4:	d9000517 	ldw	r4,20(sp)
  8000e8:	d9400617 	ldw	r5,24(sp)
  8000ec:	d9800717 	ldw	r6,28(sp)
  8000f0:	d9c00817 	ldw	r7,32(sp)
  8000f4:	da000917 	ldw	r8,36(sp)
  8000f8:	da400a17 	ldw	r9,40(sp)
  8000fc:	da800b17 	ldw	r10,44(sp)
  800100:	dac00c17 	ldw	r11,48(sp)
  800104:	db000d17 	ldw	r12,52(sp)
  800108:	db400e17 	ldw	r13,56(sp)
  80010c:	db800f17 	ldw	r14,60(sp)
  800110:	dbc01017 	ldw	r15,64(sp)
  800114:	de001117 	ldw	et,68(sp)
  800118:	c001707a 	wrctl	estatus,et
  80011c:	df401217 	ldw	ea,72(sp)
  800120:	dc001317 	ldw	r16,76(sp)
  800124:	dc401417 	ldw	r17,80(sp)
  800128:	dc801517 	ldw	r18,84(sp)
  80012c:	dcc01617 	ldw	r19,88(sp)
  800130:	dd001717 	ldw	r20,92(sp)
  800134:	dd401817 	ldw	r21,96(sp)
  800138:	dd801917 	ldw	r22,100(sp)
  80013c:	ddc01a17 	ldw	r23,104(sp)
  800140:	de801b17 	ldw	gp,108(sp)
  800144:	df001c17 	ldw	fp,112(sp)
  800148:	dec01d04 	addi	sp,sp,116
  80014c:	ef80083a 	eret

00800150 <soft_exceptions>:
  800150:	ee000017 	ldw	et,0(ea)
  800154:	00400ef4 	movhi	at,59
  800158:	085a0e94 	ori	at,at,26682
  80015c:	c070c03a 	cmpne	et,et,at
  800160:	c0000226 	beq	et,zero,80016c <call_scheduler>
  800164:	003da03a 	break	0
  800168:	003fda06 	br	8000d4 <restore_context>

0080016c <call_scheduler>:
  80016c:	ef400104 	addi	ea,ea,4
  800170:	df401215 	stw	ea,72(sp)
  800174:	08054900 	call	805490 <vTaskSwitchContext>
  800178:	003fd206 	br	8000c4 <restore_sp_from_pxCurrentTCB>

0080017c <alt_irq_handler>:
  80017c:	defff904 	addi	sp,sp,-28
  800180:	dfc00615 	stw	ra,24(sp)
  800184:	df000515 	stw	fp,20(sp)
  800188:	df000504 	addi	fp,sp,20
  80018c:	0001883a 	nop
  800190:	0005313a 	rdctl	r2,ipending
  800194:	e0bffe15 	stw	r2,-8(fp)
  800198:	e0bffe17 	ldw	r2,-8(fp)
  80019c:	e0bffb15 	stw	r2,-20(fp)
  8001a0:	e03ffd15 	stw	zero,-12(fp)
  8001a4:	00800044 	movi	r2,1
  8001a8:	e0bffc15 	stw	r2,-16(fp)
  8001ac:	e0fffb17 	ldw	r3,-20(fp)
  8001b0:	e0bffc17 	ldw	r2,-16(fp)
  8001b4:	1884703a 	and	r2,r3,r2
  8001b8:	10001526 	beq	r2,zero,800210 <alt_irq_handler+0x94>
  8001bc:	008021b4 	movhi	r2,134
  8001c0:	10940304 	addi	r2,r2,20492
  8001c4:	e0fffd17 	ldw	r3,-12(fp)
  8001c8:	180690fa 	slli	r3,r3,3
  8001cc:	10c5883a 	add	r2,r2,r3
  8001d0:	10c00017 	ldw	r3,0(r2)
  8001d4:	008021b4 	movhi	r2,134
  8001d8:	10940304 	addi	r2,r2,20492
  8001dc:	e13ffd17 	ldw	r4,-12(fp)
  8001e0:	200890fa 	slli	r4,r4,3
  8001e4:	1105883a 	add	r2,r2,r4
  8001e8:	10800104 	addi	r2,r2,4
  8001ec:	10800017 	ldw	r2,0(r2)
  8001f0:	1009883a 	mov	r4,r2
  8001f4:	e17ffd17 	ldw	r5,-12(fp)
  8001f8:	183ee83a 	callr	r3
  8001fc:	0001883a 	nop
  800200:	0005313a 	rdctl	r2,ipending
  800204:	e0bfff15 	stw	r2,-4(fp)
  800208:	e0bfff17 	ldw	r2,-4(fp)
  80020c:	00000706 	br	80022c <alt_irq_handler+0xb0>
  800210:	e0bffc17 	ldw	r2,-16(fp)
  800214:	1085883a 	add	r2,r2,r2
  800218:	e0bffc15 	stw	r2,-16(fp)
  80021c:	e0bffd17 	ldw	r2,-12(fp)
  800220:	10800044 	addi	r2,r2,1
  800224:	e0bffd15 	stw	r2,-12(fp)
  800228:	003fe006 	br	8001ac <alt_irq_handler+0x30>
  80022c:	e0bffb15 	stw	r2,-20(fp)
  800230:	e0bffb17 	ldw	r2,-20(fp)
  800234:	103fda1e 	bne	r2,zero,8001a0 <alt_irq_handler+0x24>
  800238:	0001883a 	nop
  80023c:	e037883a 	mov	sp,fp
  800240:	dfc00117 	ldw	ra,4(sp)
  800244:	df000017 	ldw	fp,0(sp)
  800248:	dec00204 	addi	sp,sp,8
  80024c:	f800283a 	ret

Disassembly of section .text:

00800250 <_start>:
  800250:	06c04034 	movhi	sp,256
  800254:	dec00014 	ori	sp,sp,0
  800258:	068020f4 	movhi	gp,131
  80025c:	d69c6a14 	ori	gp,gp,29096
  800260:	008020f4 	movhi	r2,131
  800264:	10836914 	ori	r2,r2,3492
  800268:	00c021b4 	movhi	r3,134
  80026c:	18d44314 	ori	r3,r3,20748
  800270:	10c00326 	beq	r2,r3,800280 <_start+0x30>
  800274:	10000015 	stw	zero,0(r2)
  800278:	10800104 	addi	r2,r2,4
  80027c:	10fffd36 	bltu	r2,r3,800274 <_start+0x24>
  800280:	08298040 	call	829804 <alt_load>
  800284:	08299b00 	call	8299b0 <alt_main>

00800288 <alt_after_alt_main>:
  800288:	003fff06 	br	800288 <alt_after_alt_main>

0080028c <prvTaskNetbufCount>:
  80028c:	defff904 	addi	sp,sp,-28
  800290:	dfc00615 	stw	ra,24(sp)
  800294:	df000515 	stw	fp,20(sp)
  800298:	dc000415 	stw	r16,16(sp)
  80029c:	df000504 	addi	fp,sp,20
  8002a0:	e13ffc15 	stw	r4,-16(fp)
  8002a4:	e17ffd15 	stw	r5,-12(fp)
  8002a8:	e1bffe15 	stw	r6,-8(fp)
  8002ac:	008020f4 	movhi	r2,131
  8002b0:	10af6604 	addi	r2,r2,-17000
  8002b4:	e0bffb15 	stw	r2,-20(fp)
  8002b8:	e13ffc17 	ldw	r4,-16(fp)
  8002bc:	e17ffb17 	ldw	r5,-20(fp)
  8002c0:	08199d40 	call	8199d4 <strcpy>
  8002c4:	e13ffc17 	ldw	r4,-16(fp)
  8002c8:	0819a640 	call	819a64 <strlen>
  8002cc:	1007883a 	mov	r3,r2
  8002d0:	e0bffc17 	ldw	r2,-16(fp)
  8002d4:	10e1883a 	add	r16,r2,r3
  8002d8:	0818fc00 	call	818fc0 <uxGetNumberOfFreeNetworkBuffers>
  8002dc:	8009883a 	mov	r4,r16
  8002e0:	014020f4 	movhi	r5,131
  8002e4:	296f7804 	addi	r5,r5,-16928
  8002e8:	100d883a 	mov	r6,r2
  8002ec:	08199680 	call	819968 <sprintf>
  8002f0:	e13ffc17 	ldw	r4,-16(fp)
  8002f4:	0819a640 	call	819a64 <strlen>
  8002f8:	1007883a 	mov	r3,r2
  8002fc:	e0bffc17 	ldw	r2,-16(fp)
  800300:	10e1883a 	add	r16,r2,r3
  800304:	0818fa00 	call	818fa0 <uxGetMinimumFreeNetworkBuffers>
  800308:	8009883a 	mov	r4,r16
  80030c:	014020f4 	movhi	r5,131
  800310:	296f8104 	addi	r5,r5,-16892
  800314:	100d883a 	mov	r6,r2
  800318:	08199680 	call	819968 <sprintf>
  80031c:	0005883a 	mov	r2,zero
  800320:	e6ffff04 	addi	sp,fp,-4
  800324:	dfc00217 	ldw	ra,8(sp)
  800328:	df000117 	ldw	fp,4(sp)
  80032c:	dc000017 	ldw	r16,0(sp)
  800330:	dec00304 	addi	sp,sp,12
  800334:	f800283a 	ret

00800338 <prvTaskStatsCommand>:
  800338:	defffa04 	addi	sp,sp,-24
  80033c:	dfc00515 	stw	ra,20(sp)
  800340:	df000415 	stw	fp,16(sp)
  800344:	df000404 	addi	fp,sp,16
  800348:	e13ffd15 	stw	r4,-12(fp)
  80034c:	e17ffe15 	stw	r5,-8(fp)
  800350:	e1bfff15 	stw	r6,-4(fp)
  800354:	008020f4 	movhi	r2,131
  800358:	10af8a04 	addi	r2,r2,-16856
  80035c:	e0bffc15 	stw	r2,-16(fp)
  800360:	e13ffd17 	ldw	r4,-12(fp)
  800364:	e17ffc17 	ldw	r5,-16(fp)
  800368:	08199d40 	call	8199d4 <strcpy>
  80036c:	e13ffd17 	ldw	r4,-12(fp)
  800370:	0819a640 	call	819a64 <strlen>
  800374:	1007883a 	mov	r3,r2
  800378:	e0bffd17 	ldw	r2,-12(fp)
  80037c:	10c5883a 	add	r2,r2,r3
  800380:	1009883a 	mov	r4,r2
  800384:	08064c40 	call	8064c4 <vTaskList>
  800388:	0005883a 	mov	r2,zero
  80038c:	e037883a 	mov	sp,fp
  800390:	dfc00117 	ldw	ra,4(sp)
  800394:	df000017 	ldw	fp,0(sp)
  800398:	dec00204 	addi	sp,sp,8
  80039c:	f800283a 	ret

008003a0 <prvHeapStatsCommand>:
  8003a0:	defffa04 	addi	sp,sp,-24
  8003a4:	dfc00515 	stw	ra,20(sp)
  8003a8:	df000415 	stw	fp,16(sp)
  8003ac:	df000404 	addi	fp,sp,16
  8003b0:	e13ffd15 	stw	r4,-12(fp)
  8003b4:	e17ffe15 	stw	r5,-8(fp)
  8003b8:	e1bfff15 	stw	r6,-4(fp)
  8003bc:	008020f4 	movhi	r2,131
  8003c0:	10af9f04 	addi	r2,r2,-16772
  8003c4:	e0bffc15 	stw	r2,-16(fp)
  8003c8:	e13ffd17 	ldw	r4,-12(fp)
  8003cc:	e17ffc17 	ldw	r5,-16(fp)
  8003d0:	08199d40 	call	8199d4 <strcpy>
  8003d4:	010020f4 	movhi	r4,131
  8003d8:	2103a404 	addi	r4,r4,3728
  8003dc:	0818a5c0 	call	818a5c <vPortGetHeapStats>
  8003e0:	e13ffd17 	ldw	r4,-12(fp)
  8003e4:	0819a640 	call	819a64 <strlen>
  8003e8:	1007883a 	mov	r3,r2
  8003ec:	e0bffd17 	ldw	r2,-12(fp)
  8003f0:	10c7883a 	add	r3,r2,r3
  8003f4:	008020f4 	movhi	r2,131
  8003f8:	1083a404 	addi	r2,r2,3728
  8003fc:	10800017 	ldw	r2,0(r2)
  800400:	1809883a 	mov	r4,r3
  800404:	014020f4 	movhi	r5,131
  800408:	296fb104 	addi	r5,r5,-16700
  80040c:	100d883a 	mov	r6,r2
  800410:	08199680 	call	819968 <sprintf>
  800414:	e13ffd17 	ldw	r4,-12(fp)
  800418:	0819a640 	call	819a64 <strlen>
  80041c:	1007883a 	mov	r3,r2
  800420:	e0bffd17 	ldw	r2,-12(fp)
  800424:	10c7883a 	add	r3,r2,r3
  800428:	008020f4 	movhi	r2,131
  80042c:	1083a404 	addi	r2,r2,3728
  800430:	10800317 	ldw	r2,12(r2)
  800434:	1809883a 	mov	r4,r3
  800438:	014020f4 	movhi	r5,131
  80043c:	296fbb04 	addi	r5,r5,-16660
  800440:	100d883a 	mov	r6,r2
  800444:	08199680 	call	819968 <sprintf>
  800448:	e13ffd17 	ldw	r4,-12(fp)
  80044c:	0819a640 	call	819a64 <strlen>
  800450:	1007883a 	mov	r3,r2
  800454:	e0bffd17 	ldw	r2,-12(fp)
  800458:	10c7883a 	add	r3,r2,r3
  80045c:	008020f4 	movhi	r2,131
  800460:	1083a404 	addi	r2,r2,3728
  800464:	10800417 	ldw	r2,16(r2)
  800468:	1809883a 	mov	r4,r3
  80046c:	014020f4 	movhi	r5,131
  800470:	296fc504 	addi	r5,r5,-16620
  800474:	100d883a 	mov	r6,r2
  800478:	08199680 	call	819968 <sprintf>
  80047c:	e13ffd17 	ldw	r4,-12(fp)
  800480:	0819a640 	call	819a64 <strlen>
  800484:	1007883a 	mov	r3,r2
  800488:	e0bffd17 	ldw	r2,-12(fp)
  80048c:	10c7883a 	add	r3,r2,r3
  800490:	008020f4 	movhi	r2,131
  800494:	1083a404 	addi	r2,r2,3728
  800498:	10800517 	ldw	r2,20(r2)
  80049c:	1809883a 	mov	r4,r3
  8004a0:	014020f4 	movhi	r5,131
  8004a4:	296fcf04 	addi	r5,r5,-16580
  8004a8:	100d883a 	mov	r6,r2
  8004ac:	08199680 	call	819968 <sprintf>
  8004b0:	e13ffd17 	ldw	r4,-12(fp)
  8004b4:	0819a640 	call	819a64 <strlen>
  8004b8:	1007883a 	mov	r3,r2
  8004bc:	e0bffd17 	ldw	r2,-12(fp)
  8004c0:	10c7883a 	add	r3,r2,r3
  8004c4:	008020f4 	movhi	r2,131
  8004c8:	1083a404 	addi	r2,r2,3728
  8004cc:	10800617 	ldw	r2,24(r2)
  8004d0:	1809883a 	mov	r4,r3
  8004d4:	014020f4 	movhi	r5,131
  8004d8:	296fd904 	addi	r5,r5,-16540
  8004dc:	100d883a 	mov	r6,r2
  8004e0:	08199680 	call	819968 <sprintf>
  8004e4:	e13ffd17 	ldw	r4,-12(fp)
  8004e8:	0819a640 	call	819a64 <strlen>
  8004ec:	1007883a 	mov	r3,r2
  8004f0:	e0bffd17 	ldw	r2,-12(fp)
  8004f4:	10c7883a 	add	r3,r2,r3
  8004f8:	008020f4 	movhi	r2,131
  8004fc:	1083a404 	addi	r2,r2,3728
  800500:	10800217 	ldw	r2,8(r2)
  800504:	1809883a 	mov	r4,r3
  800508:	014020f4 	movhi	r5,131
  80050c:	296fe304 	addi	r5,r5,-16500
  800510:	100d883a 	mov	r6,r2
  800514:	08199680 	call	819968 <sprintf>
  800518:	e13ffd17 	ldw	r4,-12(fp)
  80051c:	0819a640 	call	819a64 <strlen>
  800520:	1007883a 	mov	r3,r2
  800524:	e0bffd17 	ldw	r2,-12(fp)
  800528:	10c7883a 	add	r3,r2,r3
  80052c:	008020f4 	movhi	r2,131
  800530:	1083a404 	addi	r2,r2,3728
  800534:	10800117 	ldw	r2,4(r2)
  800538:	1809883a 	mov	r4,r3
  80053c:	014020f4 	movhi	r5,131
  800540:	296fed04 	addi	r5,r5,-16460
  800544:	100d883a 	mov	r6,r2
  800548:	08199680 	call	819968 <sprintf>
  80054c:	0005883a 	mov	r2,zero
  800550:	e037883a 	mov	sp,fp
  800554:	dfc00117 	ldw	ra,4(sp)
  800558:	df000017 	ldw	fp,0(sp)
  80055c:	dec00204 	addi	sp,sp,8
  800560:	f800283a 	ret

00800564 <prvTaskTimeStatCommand>:
  800564:	defffa04 	addi	sp,sp,-24
  800568:	dfc00515 	stw	ra,20(sp)
  80056c:	df000415 	stw	fp,16(sp)
  800570:	df000404 	addi	fp,sp,16
  800574:	e13ffd15 	stw	r4,-12(fp)
  800578:	e17ffe15 	stw	r5,-8(fp)
  80057c:	e1bfff15 	stw	r6,-4(fp)
  800580:	008020f4 	movhi	r2,131
  800584:	10aff704 	addi	r2,r2,-16420
  800588:	e0bffc15 	stw	r2,-16(fp)
  80058c:	e13ffd17 	ldw	r4,-12(fp)
  800590:	e17ffc17 	ldw	r5,-16(fp)
  800594:	08199d40 	call	8199d4 <strcpy>
  800598:	e13ffd17 	ldw	r4,-12(fp)
  80059c:	0819a640 	call	819a64 <strlen>
  8005a0:	1007883a 	mov	r3,r2
  8005a4:	e0bffd17 	ldw	r2,-12(fp)
  8005a8:	10c5883a 	add	r2,r2,r3
  8005ac:	1009883a 	mov	r4,r2
  8005b0:	08066c80 	call	8066c8 <vTaskGetRunTimeStats>
  8005b4:	0005883a 	mov	r2,zero
  8005b8:	e037883a 	mov	sp,fp
  8005bc:	dfc00117 	ldw	ra,4(sp)
  8005c0:	df000017 	ldw	fp,0(sp)
  8005c4:	dec00204 	addi	sp,sp,8
  8005c8:	f800283a 	ret

008005cc <vRegisterCLICommands>:
  8005cc:	defffe04 	addi	sp,sp,-8
  8005d0:	dfc00115 	stw	ra,4(sp)
  8005d4:	df000015 	stw	fp,0(sp)
  8005d8:	d839883a 	mov	fp,sp
  8005dc:	010020f4 	movhi	r4,131
  8005e0:	212f2304 	addi	r4,r4,-17268
  8005e4:	08074100 	call	807410 <FreeRTOS_CLIRegisterCommand>
  8005e8:	010020f4 	movhi	r4,131
  8005ec:	212f3704 	addi	r4,r4,-17188
  8005f0:	08074100 	call	807410 <FreeRTOS_CLIRegisterCommand>
  8005f4:	010020f4 	movhi	r4,131
  8005f8:	212f4e04 	addi	r4,r4,-17096
  8005fc:	08074100 	call	807410 <FreeRTOS_CLIRegisterCommand>
  800600:	010020f4 	movhi	r4,131
  800604:	212f6204 	addi	r4,r4,-17016
  800608:	08074100 	call	807410 <FreeRTOS_CLIRegisterCommand>
  80060c:	e037883a 	mov	sp,fp
  800610:	dfc00117 	ldw	ra,4(sp)
  800614:	df000017 	ldw	fp,0(sp)
  800618:	dec00204 	addi	sp,sp,8
  80061c:	f800283a 	ret

00800620 <vStartHTTPServer>:
  800620:	defffa04 	addi	sp,sp,-24
  800624:	dfc00515 	stw	ra,20(sp)
  800628:	df000415 	stw	fp,16(sp)
  80062c:	df000404 	addi	fp,sp,16
  800630:	2005883a 	mov	r2,r4
  800634:	e17fff15 	stw	r5,-4(fp)
  800638:	e0bffe0d 	sth	r2,-8(fp)
  80063c:	e0fffe0b 	ldhu	r3,-8(fp)
  800640:	e0bfff17 	ldw	r2,-4(fp)
  800644:	10800044 	addi	r2,r2,1
  800648:	d8800015 	stw	r2,0(sp)
  80064c:	d8000115 	stw	zero,4(sp)
  800650:	01002034 	movhi	r4,128
  800654:	2101a204 	addi	r4,r4,1672
  800658:	014020f4 	movhi	r5,131
  80065c:	29704504 	addi	r5,r5,-16108
  800660:	180d883a 	mov	r6,r3
  800664:	000f883a 	mov	r7,zero
  800668:	08040780 	call	804078 <xTaskCreate>
  80066c:	e0bffe0b 	ldhu	r2,-8(fp)
  800670:	d0a6ff0d 	sth	r2,-25604(gp)
  800674:	e037883a 	mov	sp,fp
  800678:	dfc00117 	ldw	ra,4(sp)
  80067c:	df000017 	ldw	fp,0(sp)
  800680:	dec00204 	addi	sp,sp,8
  800684:	f800283a 	ret

00800688 <prvHTTPServer>:
  800688:	defff304 	addi	sp,sp,-52
  80068c:	dfc00c15 	stw	ra,48(sp)
  800690:	df000b15 	stw	fp,44(sp)
  800694:	df000b04 	addi	fp,sp,44
  800698:	e13fff15 	stw	r4,-4(fp)
  80069c:	00800204 	movi	r2,8
  8006a0:	e0bffe15 	stw	r2,-8(fp)
  8006a4:	00800504 	movi	r2,20
  8006a8:	e0bff615 	stw	r2,-40(fp)
  8006ac:	01000084 	movi	r4,2
  8006b0:	01400044 	movi	r5,1
  8006b4:	01800184 	movi	r6,6
  8006b8:	080cda40 	call	80cda4 <FreeRTOS_socket>
  8006bc:	e0bff715 	stw	r2,-36(fp)
  8006c0:	00800104 	movi	r2,4
  8006c4:	d8800015 	stw	r2,0(sp)
  8006c8:	e13ff717 	ldw	r4,-36(fp)
  8006cc:	000b883a 	mov	r5,zero
  8006d0:	000d883a 	mov	r6,zero
  8006d4:	d1e00204 	addi	r7,gp,-32760
  8006d8:	080de740 	call	80de74 <FreeRTOS_setsockopt>
  8006dc:	00801404 	movi	r2,80
  8006e0:	e0bffc8d 	sth	r2,-14(fp)
  8006e4:	e0bffc8b 	ldhu	r2,-14(fp)
  8006e8:	10bfffcc 	andi	r2,r2,65535
  8006ec:	1004923a 	slli	r2,r2,8
  8006f0:	1007883a 	mov	r3,r2
  8006f4:	e0bffc8b 	ldhu	r2,-14(fp)
  8006f8:	10bfffcc 	andi	r2,r2,65535
  8006fc:	1004d23a 	srli	r2,r2,8
  800700:	1884b03a 	or	r2,r3,r2
  800704:	e0bffc8d 	sth	r2,-14(fp)
  800708:	e0bffc04 	addi	r2,fp,-16
  80070c:	e13ff717 	ldw	r4,-36(fp)
  800710:	100b883a 	mov	r5,r2
  800714:	01800204 	movi	r6,8
  800718:	080d6b40 	call	80d6b4 <FreeRTOS_bind>
  80071c:	e13ff717 	ldw	r4,-36(fp)
  800720:	e17ff617 	ldw	r5,-40(fp)
  800724:	080f9500 	call	80f950 <FreeRTOS_listen>
  800728:	e0fffa04 	addi	r3,fp,-24
  80072c:	e0bffe04 	addi	r2,fp,-8
  800730:	e13ff717 	ldw	r4,-36(fp)
  800734:	180b883a 	mov	r5,r3
  800738:	100d883a 	mov	r6,r2
  80073c:	080efcc0 	call	80efcc <FreeRTOS_accept>
  800740:	e0bff815 	stw	r2,-32(fp)
  800744:	e0bff817 	ldw	r2,-32(fp)
  800748:	10bfffe0 	cmpeqi	r2,r2,-1
  80074c:	1000291e 	bne	r2,zero,8007f4 <prvHTTPServer+0x16c>
  800750:	00800104 	movi	r2,4
  800754:	d8800015 	stw	r2,0(sp)
  800758:	e13ff817 	ldw	r4,-32(fp)
  80075c:	000b883a 	mov	r5,zero
  800760:	000d883a 	mov	r6,zero
  800764:	d1e00204 	addi	r7,gp,-32760
  800768:	080de740 	call	80de74 <FreeRTOS_setsockopt>
  80076c:	00800104 	movi	r2,4
  800770:	d8800015 	stw	r2,0(sp)
  800774:	e13ff817 	ldw	r4,-32(fp)
  800778:	000b883a 	mov	r5,zero
  80077c:	01800044 	movi	r6,1
  800780:	d1e00104 	addi	r7,gp,-32764
  800784:	080de740 	call	80de74 <FreeRTOS_setsockopt>
  800788:	e13ff817 	ldw	r4,-32(fp)
  80078c:	014020f4 	movhi	r5,131
  800790:	29700a04 	addi	r5,r5,-16344
  800794:	01803a44 	movi	r6,233
  800798:	000f883a 	mov	r7,zero
  80079c:	080f6b40 	call	80f6b4 <FreeRTOS_send>
  8007a0:	e13ff817 	ldw	r4,-32(fp)
  8007a4:	01400084 	movi	r5,2
  8007a8:	080faa00 	call	80faa0 <FreeRTOS_shutdown>
  8007ac:	0804ffc0 	call	804ffc <xTaskGetTickCount>
  8007b0:	e0bff915 	stw	r2,-28(fp)
  8007b4:	e13ff817 	ldw	r4,-32(fp)
  8007b8:	014020f4 	movhi	r5,131
  8007bc:	29451804 	addi	r5,r5,5216
  8007c0:	01816d04 	movi	r6,1460
  8007c4:	000f883a 	mov	r7,zero
  8007c8:	080f2380 	call	80f238 <FreeRTOS_recv>
  8007cc:	1000010e 	bge	r2,zero,8007d4 <prvHTTPServer+0x14c>
  8007d0:	00000606 	br	8007ec <prvHTTPServer+0x164>
  8007d4:	0804ffc0 	call	804ffc <xTaskGetTickCount>
  8007d8:	1007883a 	mov	r3,r2
  8007dc:	e0bff917 	ldw	r2,-28(fp)
  8007e0:	1885c83a 	sub	r2,r3,r2
  8007e4:	1084e230 	cmpltui	r2,r2,5000
  8007e8:	103ff21e 	bne	r2,zero,8007b4 <prvHTTPServer+0x12c>
  8007ec:	e13ff817 	ldw	r4,-32(fp)
  8007f0:	080d9e40 	call	80d9e4 <FreeRTOS_closesocket>
  8007f4:	003fcc06 	br	800728 <prvHTTPServer+0xa0>

008007f8 <vApplicationStackOverflowHook>:
  8007f8:	defffc04 	addi	sp,sp,-16
  8007fc:	dfc00315 	stw	ra,12(sp)
  800800:	df000215 	stw	fp,8(sp)
  800804:	df000204 	addi	fp,sp,8
  800808:	e13ffe15 	stw	r4,-8(fp)
  80080c:	e17fff15 	stw	r5,-4(fp)
  800810:	010020f4 	movhi	r4,131
  800814:	21304704 	addi	r4,r4,-16100
  800818:	08196c40 	call	8196c4 <puts>
  80081c:	e037883a 	mov	sp,fp
  800820:	dfc00117 	ldw	ra,4(sp)
  800824:	df000017 	ldw	fp,0(sp)
  800828:	dec00204 	addi	sp,sp,8
  80082c:	f800283a 	ret

00800830 <main>:
  800830:	defffd04 	addi	sp,sp,-12
  800834:	dfc00215 	stw	ra,8(sp)
  800838:	df000115 	stw	fp,4(sp)
  80083c:	df000104 	addi	fp,sp,4
  800840:	08005cc0 	call	8005cc <vRegisterCLICommands>
  800844:	d0a00604 	addi	r2,gp,-32744
  800848:	d8800015 	stw	r2,0(sp)
  80084c:	d1200304 	addi	r4,gp,-32756
  800850:	d1600404 	addi	r5,gp,-32752
  800854:	d1a00504 	addi	r6,gp,-32748
  800858:	000f883a 	mov	r7,zero
  80085c:	080a5b40 	call	80a5b4 <FreeRTOS_IPInit>
  800860:	0804d980 	call	804d98 <vTaskStartScheduler>
  800864:	0005883a 	mov	r2,zero
  800868:	e037883a 	mov	sp,fp
  80086c:	dfc00117 	ldw	ra,4(sp)
  800870:	df000017 	ldw	fp,0(sp)
  800874:	dec00204 	addi	sp,sp,8
  800878:	f800283a 	ret

0080087c <vApplicationIPNetworkEventHook>:
  80087c:	defffd04 	addi	sp,sp,-12
  800880:	dfc00215 	stw	ra,8(sp)
  800884:	df000115 	stw	fp,4(sp)
  800888:	df000104 	addi	fp,sp,4
  80088c:	e13fff15 	stw	r4,-4(fp)
  800890:	010020f4 	movhi	r4,131
  800894:	21304f04 	addi	r4,r4,-16068
  800898:	08196c40 	call	8196c4 <puts>
  80089c:	01010004 	movi	r4,1024
  8008a0:	01400244 	movi	r5,9
  8008a4:	0800a180 	call	800a18 <vStartSimpleTCPServerTasks>
  8008a8:	01010004 	movi	r4,1024
  8008ac:	01400244 	movi	r5,9
  8008b0:	08006200 	call	800620 <vStartHTTPServer>
  8008b4:	e037883a 	mov	sp,fp
  8008b8:	dfc00117 	ldw	ra,4(sp)
  8008bc:	df000017 	ldw	fp,0(sp)
  8008c0:	dec00204 	addi	sp,sp,8
  8008c4:	f800283a 	ret

008008c8 <vApplicationMallocFailedHook>:
  8008c8:	defffe04 	addi	sp,sp,-8
  8008cc:	dfc00115 	stw	ra,4(sp)
  8008d0:	df000015 	stw	fp,0(sp)
  8008d4:	d839883a 	mov	fp,sp
  8008d8:	010020f4 	movhi	r4,131
  8008dc:	21305704 	addi	r4,r4,-16036
  8008e0:	08196c40 	call	8196c4 <puts>
  8008e4:	08187b00 	call	8187b0 <xPortGetFreeHeapSize>
  8008e8:	010020f4 	movhi	r4,131
  8008ec:	21305f04 	addi	r4,r4,-16004
  8008f0:	100b883a 	mov	r5,r2
  8008f4:	08195d00 	call	8195d0 <printf>
  8008f8:	e037883a 	mov	sp,fp
  8008fc:	dfc00117 	ldw	ra,4(sp)
  800900:	df000017 	ldw	fp,0(sp)
  800904:	dec00204 	addi	sp,sp,8
  800908:	f800283a 	ret

0080090c <vLoggingPrintf>:
  80090c:	defffa04 	addi	sp,sp,-24
  800910:	dfc00215 	stw	ra,8(sp)
  800914:	df000115 	stw	fp,4(sp)
  800918:	df000104 	addi	fp,sp,4
  80091c:	e1400215 	stw	r5,8(fp)
  800920:	e1800315 	stw	r6,12(fp)
  800924:	e1c00415 	stw	r7,16(fp)
  800928:	e13fff15 	stw	r4,-4(fp)
  80092c:	e13fff17 	ldw	r4,-4(fp)
  800930:	08195d00 	call	8195d0 <printf>
  800934:	e037883a 	mov	sp,fp
  800938:	dfc00117 	ldw	ra,4(sp)
  80093c:	df000017 	ldw	fp,0(sp)
  800940:	dec00504 	addi	sp,sp,20
  800944:	f800283a 	ret

00800948 <xApplicationGetRandomNumber>:
  800948:	defffd04 	addi	sp,sp,-12
  80094c:	dfc00215 	stw	ra,8(sp)
  800950:	df000115 	stw	fp,4(sp)
  800954:	df000104 	addi	fp,sp,4
  800958:	e13fff15 	stw	r4,-4(fp)
  80095c:	08196f00 	call	8196f0 <rand>
  800960:	e037883a 	mov	sp,fp
  800964:	dfc00117 	ldw	ra,4(sp)
  800968:	df000017 	ldw	fp,0(sp)
  80096c:	dec00204 	addi	sp,sp,8
  800970:	f800283a 	ret

00800974 <ulApplicationGetNextSequenceNumber>:
  800974:	defffb04 	addi	sp,sp,-20
  800978:	df000415 	stw	fp,16(sp)
  80097c:	df000404 	addi	fp,sp,16
  800980:	e13ffc15 	stw	r4,-16(fp)
  800984:	2807883a 	mov	r3,r5
  800988:	e1bffe15 	stw	r6,-8(fp)
  80098c:	3805883a 	mov	r2,r7
  800990:	e0fffd0d 	sth	r3,-12(fp)
  800994:	e0bfff0d 	sth	r2,-4(fp)
  800998:	00b7abb4 	movhi	r2,57006
  80099c:	10aeae84 	addi	r2,r2,-17734
  8009a0:	e037883a 	mov	sp,fp
  8009a4:	df000017 	ldw	fp,0(sp)
  8009a8:	dec00104 	addi	sp,sp,4
  8009ac:	f800283a 	ret

008009b0 <ulDNSHandlePacket>:
  8009b0:	defffe04 	addi	sp,sp,-8
  8009b4:	df000115 	stw	fp,4(sp)
  8009b8:	df000104 	addi	fp,sp,4
  8009bc:	e13fff15 	stw	r4,-4(fp)
  8009c0:	0005883a 	mov	r2,zero
  8009c4:	e037883a 	mov	sp,fp
  8009c8:	df000017 	ldw	fp,0(sp)
  8009cc:	dec00104 	addi	sp,sp,4
  8009d0:	f800283a 	ret

008009d4 <vApplicationGetIdleTaskMemory>:
  8009d4:	defffc04 	addi	sp,sp,-16
  8009d8:	df000315 	stw	fp,12(sp)
  8009dc:	df000304 	addi	fp,sp,12
  8009e0:	e13ffd15 	stw	r4,-12(fp)
  8009e4:	e17ffe15 	stw	r5,-8(fp)
  8009e8:	e1bfff15 	stw	r6,-4(fp)
  8009ec:	e0fffd17 	ldw	r3,-12(fp)
  8009f0:	008020f4 	movhi	r2,131
  8009f4:	10868504 	addi	r2,r2,6676
  8009f8:	18800015 	stw	r2,0(r3)
  8009fc:	e0bfff17 	ldw	r2,-4(fp)
  800a00:	00c10004 	movi	r3,1024
  800a04:	10c00015 	stw	r3,0(r2)
  800a08:	e037883a 	mov	sp,fp
  800a0c:	df000017 	ldw	fp,0(sp)
  800a10:	dec00104 	addi	sp,sp,4
  800a14:	f800283a 	ret

00800a18 <vStartSimpleTCPServerTasks>:
  800a18:	defffa04 	addi	sp,sp,-24
  800a1c:	dfc00515 	stw	ra,20(sp)
  800a20:	df000415 	stw	fp,16(sp)
  800a24:	df000404 	addi	fp,sp,16
  800a28:	2005883a 	mov	r2,r4
  800a2c:	e17fff15 	stw	r5,-4(fp)
  800a30:	e0bffe0d 	sth	r2,-8(fp)
  800a34:	e0fffe0b 	ldhu	r3,-8(fp)
  800a38:	e0bfff17 	ldw	r2,-4(fp)
  800a3c:	10800044 	addi	r2,r2,1
  800a40:	d8800015 	stw	r2,0(sp)
  800a44:	d8000115 	stw	zero,4(sp)
  800a48:	01002034 	movhi	r4,128
  800a4c:	2102a004 	addi	r4,r4,2688
  800a50:	014020f4 	movhi	r5,131
  800a54:	29706304 	addi	r5,r5,-15988
  800a58:	180d883a 	mov	r6,r3
  800a5c:	000f883a 	mov	r7,zero
  800a60:	08040780 	call	804078 <xTaskCreate>
  800a64:	e0bffe0b 	ldhu	r2,-8(fp)
  800a68:	d0a6ff8d 	sth	r2,-25602(gp)
  800a6c:	e037883a 	mov	sp,fp
  800a70:	dfc00117 	ldw	ra,4(sp)
  800a74:	df000017 	ldw	fp,0(sp)
  800a78:	dec00204 	addi	sp,sp,8
  800a7c:	f800283a 	ret

00800a80 <prvConnectionListeningTask>:
  800a80:	deffee04 	addi	sp,sp,-72
  800a84:	dfc01115 	stw	ra,68(sp)
  800a88:	df001015 	stw	fp,64(sp)
  800a8c:	dc000f15 	stw	r16,60(sp)
  800a90:	df001004 	addi	fp,sp,64
  800a94:	e13ffe15 	stw	r4,-8(fp)
  800a98:	00800204 	movi	r2,8
  800a9c:	e0bffd15 	stw	r2,-12(fp)
  800aa0:	00800504 	movi	r2,20
  800aa4:	e0bff115 	stw	r2,-60(fp)
  800aa8:	008020f4 	movhi	r2,131
  800aac:	10b06504 	addi	r2,r2,-15980
  800ab0:	e0bff215 	stw	r2,-56(fp)
  800ab4:	e13ff217 	ldw	r4,-56(fp)
  800ab8:	0819a640 	call	819a64 <strlen>
  800abc:	e0bff315 	stw	r2,-52(fp)
  800ac0:	01000084 	movi	r4,2
  800ac4:	01400044 	movi	r5,1
  800ac8:	01800184 	movi	r6,6
  800acc:	080cda40 	call	80cda4 <FreeRTOS_socket>
  800ad0:	e0bff415 	stw	r2,-48(fp)
  800ad4:	00800104 	movi	r2,4
  800ad8:	d8800015 	stw	r2,0(sp)
  800adc:	e13ff417 	ldw	r4,-48(fp)
  800ae0:	000b883a 	mov	r5,zero
  800ae4:	000d883a 	mov	r6,zero
  800ae8:	d1e00a04 	addi	r7,gp,-32728
  800aec:	080de740 	call	80de74 <FreeRTOS_setsockopt>
  800af0:	008005c4 	movi	r2,23
  800af4:	e0bffb8d 	sth	r2,-18(fp)
  800af8:	e0bffb8b 	ldhu	r2,-18(fp)
  800afc:	10bfffcc 	andi	r2,r2,65535
  800b00:	1004923a 	slli	r2,r2,8
  800b04:	1007883a 	mov	r3,r2
  800b08:	e0bffb8b 	ldhu	r2,-18(fp)
  800b0c:	10bfffcc 	andi	r2,r2,65535
  800b10:	1004d23a 	srli	r2,r2,8
  800b14:	1884b03a 	or	r2,r3,r2
  800b18:	e0bffb8d 	sth	r2,-18(fp)
  800b1c:	e0bffb04 	addi	r2,fp,-20
  800b20:	e13ff417 	ldw	r4,-48(fp)
  800b24:	100b883a 	mov	r5,r2
  800b28:	01800204 	movi	r6,8
  800b2c:	080d6b40 	call	80d6b4 <FreeRTOS_bind>
  800b30:	e13ff417 	ldw	r4,-48(fp)
  800b34:	e17ff117 	ldw	r5,-60(fp)
  800b38:	080f9500 	call	80f950 <FreeRTOS_listen>
  800b3c:	e0fff904 	addi	r3,fp,-28
  800b40:	e0bffd04 	addi	r2,fp,-12
  800b44:	e13ff417 	ldw	r4,-48(fp)
  800b48:	180b883a 	mov	r5,r3
  800b4c:	100d883a 	mov	r6,r2
  800b50:	080efcc0 	call	80efcc <FreeRTOS_accept>
  800b54:	e0bff515 	stw	r2,-44(fp)
  800b58:	e0bff517 	ldw	r2,-44(fp)
  800b5c:	10bfffe0 	cmpeqi	r2,r2,-1
  800b60:	1000711e 	bne	r2,zero,800d28 <prvConnectionListeningTask+0x2a8>
  800b64:	00800104 	movi	r2,4
  800b68:	d8800015 	stw	r2,0(sp)
  800b6c:	e13ff517 	ldw	r4,-44(fp)
  800b70:	000b883a 	mov	r5,zero
  800b74:	000d883a 	mov	r6,zero
  800b78:	d1e00a04 	addi	r7,gp,-32728
  800b7c:	080de740 	call	80de74 <FreeRTOS_setsockopt>
  800b80:	00800104 	movi	r2,4
  800b84:	d8800015 	stw	r2,0(sp)
  800b88:	e13ff517 	ldw	r4,-44(fp)
  800b8c:	000b883a 	mov	r5,zero
  800b90:	01800044 	movi	r6,1
  800b94:	d1e00904 	addi	r7,gp,-32732
  800b98:	080de740 	call	80de74 <FreeRTOS_setsockopt>
  800b9c:	e13ff217 	ldw	r4,-56(fp)
  800ba0:	0819a640 	call	819a64 <strlen>
  800ba4:	e13ff517 	ldw	r4,-44(fp)
  800ba8:	e17ff217 	ldw	r5,-56(fp)
  800bac:	100d883a 	mov	r6,r2
  800bb0:	000f883a 	mov	r7,zero
  800bb4:	080f6b40 	call	80f6b4 <FreeRTOS_send>
  800bb8:	e0bff315 	stw	r2,-52(fp)
  800bbc:	e43ff317 	ldw	r16,-52(fp)
  800bc0:	e13ff217 	ldw	r4,-56(fp)
  800bc4:	0819a640 	call	819a64 <strlen>
  800bc8:	8080421e 	bne	r16,r2,800cd4 <prvConnectionListeningTask+0x254>
  800bcc:	010021b4 	movhi	r4,134
  800bd0:	21111f04 	addi	r4,r4,17532
  800bd4:	000b883a 	mov	r5,zero
  800bd8:	01816d04 	movi	r6,1460
  800bdc:	08194800 	call	819480 <memset>
  800be0:	e13ff517 	ldw	r4,-44(fp)
  800be4:	014021b4 	movhi	r5,134
  800be8:	29511f04 	addi	r5,r5,17532
  800bec:	01816d04 	movi	r6,1460
  800bf0:	000f883a 	mov	r7,zero
  800bf4:	080f2380 	call	80f238 <FreeRTOS_recv>
  800bf8:	e0bff715 	stw	r2,-36(fp)
  800bfc:	e0bff717 	ldw	r2,-36(fp)
  800c00:	10003216 	blt	r2,zero,800ccc <prvConnectionListeningTask+0x24c>
  800c04:	008021b4 	movhi	r2,134
  800c08:	10911f04 	addi	r2,r2,17532
  800c0c:	10800003 	ldbu	r2,0(r2)
  800c10:	10803fcc 	andi	r2,r2,255
  800c14:	1080201c 	xori	r2,r2,128
  800c18:	10bfe004 	addi	r2,r2,-128
  800c1c:	10bfffd8 	cmpnei	r2,r2,-1
  800c20:	1000041e 	bne	r2,zero,800c34 <prvConnectionListeningTask+0x1b4>
  800c24:	010020f4 	movhi	r4,131
  800c28:	21308b04 	addi	r4,r4,-15828
  800c2c:	08196c40 	call	8196c4 <puts>
  800c30:	00002706 	br	800cd0 <prvConnectionListeningTask+0x250>
  800c34:	e0bff717 	ldw	r2,-36(fp)
  800c38:	10ffff84 	addi	r3,r2,-2
  800c3c:	008021b4 	movhi	r2,134
  800c40:	10911f04 	addi	r2,r2,17532
  800c44:	10c5883a 	add	r2,r2,r3
  800c48:	10000005 	stb	zero,0(r2)
  800c4c:	010021b4 	movhi	r4,134
  800c50:	21111f04 	addi	r4,r4,17532
  800c54:	014021b4 	movhi	r5,134
  800c58:	29528c04 	addi	r5,r5,18992
  800c5c:	01816d04 	movi	r6,1460
  800c60:	080748c0 	call	80748c <FreeRTOS_CLIProcessCommand>
  800c64:	e0bff815 	stw	r2,-32(fp)
  800c68:	010021b4 	movhi	r4,134
  800c6c:	21128c04 	addi	r4,r4,18992
  800c70:	0819a640 	call	819a64 <strlen>
  800c74:	e13ff517 	ldw	r4,-44(fp)
  800c78:	014021b4 	movhi	r5,134
  800c7c:	29528c04 	addi	r5,r5,18992
  800c80:	100d883a 	mov	r6,r2
  800c84:	000f883a 	mov	r7,zero
  800c88:	080f6b40 	call	80f6b4 <FreeRTOS_send>
  800c8c:	e0bff315 	stw	r2,-52(fp)
  800c90:	e0bff817 	ldw	r2,-32(fp)
  800c94:	103fed1e 	bne	r2,zero,800c4c <prvConnectionListeningTask+0x1cc>
  800c98:	e0bff317 	ldw	r2,-52(fp)
  800c9c:	1000010e 	bge	r2,zero,800ca4 <prvConnectionListeningTask+0x224>
  800ca0:	00000c06 	br	800cd4 <prvConnectionListeningTask+0x254>
  800ca4:	e13ff517 	ldw	r4,-44(fp)
  800ca8:	014020f4 	movhi	r5,131
  800cac:	29708e04 	addi	r5,r5,-15816
  800cb0:	018000c4 	movi	r6,3
  800cb4:	000f883a 	mov	r7,zero
  800cb8:	080f6b40 	call	80f6b4 <FreeRTOS_send>
  800cbc:	e0bff315 	stw	r2,-52(fp)
  800cc0:	e0bff317 	ldw	r2,-52(fp)
  800cc4:	1000020e 	bge	r2,zero,800cd0 <prvConnectionListeningTask+0x250>
  800cc8:	00000206 	br	800cd4 <prvConnectionListeningTask+0x254>
  800ccc:	00000106 	br	800cd4 <prvConnectionListeningTask+0x254>
  800cd0:	003fbe06 	br	800bcc <prvConnectionListeningTask+0x14c>
  800cd4:	e13ff517 	ldw	r4,-44(fp)
  800cd8:	01400084 	movi	r5,2
  800cdc:	080faa00 	call	80faa0 <FreeRTOS_shutdown>
  800ce0:	0804ffc0 	call	804ffc <xTaskGetTickCount>
  800ce4:	e0bff615 	stw	r2,-40(fp)
  800ce8:	e13ff517 	ldw	r4,-44(fp)
  800cec:	014021b4 	movhi	r5,134
  800cf0:	29511f04 	addi	r5,r5,17532
  800cf4:	01816d04 	movi	r6,1460
  800cf8:	000f883a 	mov	r7,zero
  800cfc:	080f2380 	call	80f238 <FreeRTOS_recv>
  800d00:	1000010e 	bge	r2,zero,800d08 <prvConnectionListeningTask+0x288>
  800d04:	00000606 	br	800d20 <prvConnectionListeningTask+0x2a0>
  800d08:	0804ffc0 	call	804ffc <xTaskGetTickCount>
  800d0c:	1007883a 	mov	r3,r2
  800d10:	e0bff617 	ldw	r2,-40(fp)
  800d14:	1885c83a 	sub	r2,r3,r2
  800d18:	1084e230 	cmpltui	r2,r2,5000
  800d1c:	103ff21e 	bne	r2,zero,800ce8 <prvConnectionListeningTask+0x268>
  800d20:	e13ff517 	ldw	r4,-44(fp)
  800d24:	080d9e40 	call	80d9e4 <FreeRTOS_closesocket>
  800d28:	003f8406 	br	800b3c <prvConnectionListeningTask+0xbc>

00800d2c <xEventGroupCreate>:
  800d2c:	defffd04 	addi	sp,sp,-12
  800d30:	dfc00215 	stw	ra,8(sp)
  800d34:	df000115 	stw	fp,4(sp)
  800d38:	df000104 	addi	fp,sp,4
  800d3c:	01000704 	movi	r4,28
  800d40:	08184e40 	call	8184e4 <pvPortMalloc>
  800d44:	e0bfff15 	stw	r2,-4(fp)
  800d48:	e0bfff17 	ldw	r2,-4(fp)
  800d4c:	10000626 	beq	r2,zero,800d68 <xEventGroupCreate+0x3c>
  800d50:	e0bfff17 	ldw	r2,-4(fp)
  800d54:	10000015 	stw	zero,0(r2)
  800d58:	e0bfff17 	ldw	r2,-4(fp)
  800d5c:	10800104 	addi	r2,r2,4
  800d60:	1009883a 	mov	r4,r2
  800d64:	08014980 	call	801498 <vListInitialise>
  800d68:	e0bfff17 	ldw	r2,-4(fp)
  800d6c:	e037883a 	mov	sp,fp
  800d70:	dfc00117 	ldw	ra,4(sp)
  800d74:	df000017 	ldw	fp,0(sp)
  800d78:	dec00204 	addi	sp,sp,8
  800d7c:	f800283a 	ret

00800d80 <xEventGroupSync>:
  800d80:	defff504 	addi	sp,sp,-44
  800d84:	dfc00a15 	stw	ra,40(sp)
  800d88:	df000915 	stw	fp,36(sp)
  800d8c:	df000904 	addi	fp,sp,36
  800d90:	e13ffc15 	stw	r4,-16(fp)
  800d94:	e17ffd15 	stw	r5,-12(fp)
  800d98:	e1bffe15 	stw	r6,-8(fp)
  800d9c:	e1ffff15 	stw	r7,-4(fp)
  800da0:	e0bffc17 	ldw	r2,-16(fp)
  800da4:	e0bff815 	stw	r2,-32(fp)
  800da8:	e03ff915 	stw	zero,-28(fp)
  800dac:	0804e700 	call	804e70 <vTaskSuspendAll>
  800db0:	e0bff817 	ldw	r2,-32(fp)
  800db4:	10800017 	ldw	r2,0(r2)
  800db8:	e0bffa15 	stw	r2,-24(fp)
  800dbc:	e13ffc17 	ldw	r4,-16(fp)
  800dc0:	e17ffd17 	ldw	r5,-12(fp)
  800dc4:	08011500 	call	801150 <xEventGroupSetBits>
  800dc8:	e0fffa17 	ldw	r3,-24(fp)
  800dcc:	e0bffd17 	ldw	r2,-12(fp)
  800dd0:	1886b03a 	or	r3,r3,r2
  800dd4:	e0bffe17 	ldw	r2,-8(fp)
  800dd8:	1886703a 	and	r3,r3,r2
  800ddc:	e0bffe17 	ldw	r2,-8(fp)
  800de0:	18800d1e 	bne	r3,r2,800e18 <xEventGroupSync+0x98>
  800de4:	e0fffa17 	ldw	r3,-24(fp)
  800de8:	e0bffd17 	ldw	r2,-12(fp)
  800dec:	1884b03a 	or	r2,r3,r2
  800df0:	e0bff715 	stw	r2,-36(fp)
  800df4:	e0bff817 	ldw	r2,-32(fp)
  800df8:	10c00017 	ldw	r3,0(r2)
  800dfc:	e0bffe17 	ldw	r2,-8(fp)
  800e00:	0084303a 	nor	r2,zero,r2
  800e04:	1886703a 	and	r3,r3,r2
  800e08:	e0bff817 	ldw	r2,-32(fp)
  800e0c:	10c00015 	stw	r3,0(r2)
  800e10:	e03fff15 	stw	zero,-4(fp)
  800e14:	00001106 	br	800e5c <xEventGroupSync+0xdc>
  800e18:	e0bfff17 	ldw	r2,-4(fp)
  800e1c:	10000a26 	beq	r2,zero,800e48 <xEventGroupSync+0xc8>
  800e20:	e0bff817 	ldw	r2,-32(fp)
  800e24:	10c00104 	addi	r3,r2,4
  800e28:	e0bffe17 	ldw	r2,-8(fp)
  800e2c:	10814034 	orhi	r2,r2,1280
  800e30:	1809883a 	mov	r4,r3
  800e34:	100b883a 	mov	r5,r2
  800e38:	e1bfff17 	ldw	r6,-4(fp)
  800e3c:	08056340 	call	805634 <vTaskPlaceOnUnorderedEventList>
  800e40:	e03ff715 	stw	zero,-36(fp)
  800e44:	00000506 	br	800e5c <xEventGroupSync+0xdc>
  800e48:	e0bff817 	ldw	r2,-32(fp)
  800e4c:	10800017 	ldw	r2,0(r2)
  800e50:	e0bff715 	stw	r2,-36(fp)
  800e54:	00800044 	movi	r2,1
  800e58:	e0bff915 	stw	r2,-28(fp)
  800e5c:	0804e980 	call	804e98 <xTaskResumeAll>
  800e60:	e0bffb15 	stw	r2,-20(fp)
  800e64:	e0bfff17 	ldw	r2,-4(fp)
  800e68:	10002026 	beq	r2,zero,800eec <xEventGroupSync+0x16c>
  800e6c:	e0bffb17 	ldw	r2,-20(fp)
  800e70:	1000011e 	bne	r2,zero,800e78 <xEventGroupSync+0xf8>
  800e74:	003b683a 	trap	0
  800e78:	08068640 	call	806864 <uxTaskResetEventItemValue>
  800e7c:	e0bff715 	stw	r2,-36(fp)
  800e80:	e0bff717 	ldw	r2,-36(fp)
  800e84:	1080802c 	andhi	r2,r2,512
  800e88:	1000131e 	bne	r2,zero,800ed8 <xEventGroupSync+0x158>
  800e8c:	08063880 	call	806388 <vTaskEnterCritical>
  800e90:	e0bff817 	ldw	r2,-32(fp)
  800e94:	10800017 	ldw	r2,0(r2)
  800e98:	e0bff715 	stw	r2,-36(fp)
  800e9c:	e0fff717 	ldw	r3,-36(fp)
  800ea0:	e0bffe17 	ldw	r2,-8(fp)
  800ea4:	1886703a 	and	r3,r3,r2
  800ea8:	e0bffe17 	ldw	r2,-8(fp)
  800eac:	1880071e 	bne	r3,r2,800ecc <xEventGroupSync+0x14c>
  800eb0:	e0bff817 	ldw	r2,-32(fp)
  800eb4:	10c00017 	ldw	r3,0(r2)
  800eb8:	e0bffe17 	ldw	r2,-8(fp)
  800ebc:	0084303a 	nor	r2,zero,r2
  800ec0:	1886703a 	and	r3,r3,r2
  800ec4:	e0bff817 	ldw	r2,-32(fp)
  800ec8:	10c00015 	stw	r3,0(r2)
  800ecc:	08063d80 	call	8063d8 <vTaskExitCritical>
  800ed0:	00800044 	movi	r2,1
  800ed4:	e0bff915 	stw	r2,-28(fp)
  800ed8:	e0fff717 	ldw	r3,-36(fp)
  800edc:	00804034 	movhi	r2,256
  800ee0:	10bfffc4 	addi	r2,r2,-1
  800ee4:	1884703a 	and	r2,r3,r2
  800ee8:	e0bff715 	stw	r2,-36(fp)
  800eec:	e0bff717 	ldw	r2,-36(fp)
  800ef0:	e037883a 	mov	sp,fp
  800ef4:	dfc00117 	ldw	ra,4(sp)
  800ef8:	df000017 	ldw	fp,0(sp)
  800efc:	dec00204 	addi	sp,sp,8
  800f00:	f800283a 	ret

00800f04 <xEventGroupWaitBits>:
  800f04:	defff304 	addi	sp,sp,-52
  800f08:	dfc00c15 	stw	ra,48(sp)
  800f0c:	df000b15 	stw	fp,44(sp)
  800f10:	df000b04 	addi	fp,sp,44
  800f14:	e13ffc15 	stw	r4,-16(fp)
  800f18:	e17ffd15 	stw	r5,-12(fp)
  800f1c:	e1bffe15 	stw	r6,-8(fp)
  800f20:	e1ffff15 	stw	r7,-4(fp)
  800f24:	e0bffc17 	ldw	r2,-16(fp)
  800f28:	e0bff715 	stw	r2,-36(fp)
  800f2c:	e03ff615 	stw	zero,-40(fp)
  800f30:	e03ff815 	stw	zero,-32(fp)
  800f34:	0804e700 	call	804e70 <vTaskSuspendAll>
  800f38:	e0bff717 	ldw	r2,-36(fp)
  800f3c:	10800017 	ldw	r2,0(r2)
  800f40:	e0bff915 	stw	r2,-28(fp)
  800f44:	e13ff917 	ldw	r4,-28(fp)
  800f48:	e17ffd17 	ldw	r5,-12(fp)
  800f4c:	e1bfff17 	ldw	r6,-4(fp)
  800f50:	08013b00 	call	8013b0 <prvTestWaitCondition>
  800f54:	e0bffa15 	stw	r2,-24(fp)
  800f58:	e0bffa17 	ldw	r2,-24(fp)
  800f5c:	10000d26 	beq	r2,zero,800f94 <xEventGroupWaitBits+0x90>
  800f60:	e0bff917 	ldw	r2,-28(fp)
  800f64:	e0bff515 	stw	r2,-44(fp)
  800f68:	e0000215 	stw	zero,8(fp)
  800f6c:	e0bffe17 	ldw	r2,-8(fp)
  800f70:	10002226 	beq	r2,zero,800ffc <xEventGroupWaitBits+0xf8>
  800f74:	e0bff717 	ldw	r2,-36(fp)
  800f78:	10c00017 	ldw	r3,0(r2)
  800f7c:	e0bffd17 	ldw	r2,-12(fp)
  800f80:	0084303a 	nor	r2,zero,r2
  800f84:	1886703a 	and	r3,r3,r2
  800f88:	e0bff717 	ldw	r2,-36(fp)
  800f8c:	10c00015 	stw	r3,0(r2)
  800f90:	00001a06 	br	800ffc <xEventGroupWaitBits+0xf8>
  800f94:	e0800217 	ldw	r2,8(fp)
  800f98:	1000051e 	bne	r2,zero,800fb0 <xEventGroupWaitBits+0xac>
  800f9c:	e0bff917 	ldw	r2,-28(fp)
  800fa0:	e0bff515 	stw	r2,-44(fp)
  800fa4:	00800044 	movi	r2,1
  800fa8:	e0bff815 	stw	r2,-32(fp)
  800fac:	00001306 	br	800ffc <xEventGroupWaitBits+0xf8>
  800fb0:	e0bffe17 	ldw	r2,-8(fp)
  800fb4:	10000326 	beq	r2,zero,800fc4 <xEventGroupWaitBits+0xc0>
  800fb8:	e0bff617 	ldw	r2,-40(fp)
  800fbc:	10804034 	orhi	r2,r2,256
  800fc0:	e0bff615 	stw	r2,-40(fp)
  800fc4:	e0bfff17 	ldw	r2,-4(fp)
  800fc8:	10000326 	beq	r2,zero,800fd8 <xEventGroupWaitBits+0xd4>
  800fcc:	e0bff617 	ldw	r2,-40(fp)
  800fd0:	10810034 	orhi	r2,r2,1024
  800fd4:	e0bff615 	stw	r2,-40(fp)
  800fd8:	e0bff717 	ldw	r2,-36(fp)
  800fdc:	11000104 	addi	r4,r2,4
  800fe0:	e0fffd17 	ldw	r3,-12(fp)
  800fe4:	e0bff617 	ldw	r2,-40(fp)
  800fe8:	1884b03a 	or	r2,r3,r2
  800fec:	100b883a 	mov	r5,r2
  800ff0:	e1800217 	ldw	r6,8(fp)
  800ff4:	08056340 	call	805634 <vTaskPlaceOnUnorderedEventList>
  800ff8:	e03ff515 	stw	zero,-44(fp)
  800ffc:	0804e980 	call	804e98 <xTaskResumeAll>
  801000:	e0bffb15 	stw	r2,-20(fp)
  801004:	e0800217 	ldw	r2,8(fp)
  801008:	10002226 	beq	r2,zero,801094 <xEventGroupWaitBits+0x190>
  80100c:	e0bffb17 	ldw	r2,-20(fp)
  801010:	1000011e 	bne	r2,zero,801018 <xEventGroupWaitBits+0x114>
  801014:	003b683a 	trap	0
  801018:	08068640 	call	806864 <uxTaskResetEventItemValue>
  80101c:	e0bff515 	stw	r2,-44(fp)
  801020:	e0bff517 	ldw	r2,-44(fp)
  801024:	1080802c 	andhi	r2,r2,512
  801028:	1000151e 	bne	r2,zero,801080 <xEventGroupWaitBits+0x17c>
  80102c:	08063880 	call	806388 <vTaskEnterCritical>
  801030:	e0bff717 	ldw	r2,-36(fp)
  801034:	10800017 	ldw	r2,0(r2)
  801038:	e0bff515 	stw	r2,-44(fp)
  80103c:	e13ff517 	ldw	r4,-44(fp)
  801040:	e17ffd17 	ldw	r5,-12(fp)
  801044:	e1bfff17 	ldw	r6,-4(fp)
  801048:	08013b00 	call	8013b0 <prvTestWaitCondition>
  80104c:	10000926 	beq	r2,zero,801074 <xEventGroupWaitBits+0x170>
  801050:	e0bffe17 	ldw	r2,-8(fp)
  801054:	10000726 	beq	r2,zero,801074 <xEventGroupWaitBits+0x170>
  801058:	e0bff717 	ldw	r2,-36(fp)
  80105c:	10c00017 	ldw	r3,0(r2)
  801060:	e0bffd17 	ldw	r2,-12(fp)
  801064:	0084303a 	nor	r2,zero,r2
  801068:	1886703a 	and	r3,r3,r2
  80106c:	e0bff717 	ldw	r2,-36(fp)
  801070:	10c00015 	stw	r3,0(r2)
  801074:	00800044 	movi	r2,1
  801078:	e0bff815 	stw	r2,-32(fp)
  80107c:	08063d80 	call	8063d8 <vTaskExitCritical>
  801080:	e0fff517 	ldw	r3,-44(fp)
  801084:	00804034 	movhi	r2,256
  801088:	10bfffc4 	addi	r2,r2,-1
  80108c:	1884703a 	and	r2,r3,r2
  801090:	e0bff515 	stw	r2,-44(fp)
  801094:	e0bff517 	ldw	r2,-44(fp)
  801098:	e037883a 	mov	sp,fp
  80109c:	dfc00117 	ldw	ra,4(sp)
  8010a0:	df000017 	ldw	fp,0(sp)
  8010a4:	dec00204 	addi	sp,sp,8
  8010a8:	f800283a 	ret

008010ac <xEventGroupClearBits>:
  8010ac:	defffa04 	addi	sp,sp,-24
  8010b0:	dfc00515 	stw	ra,20(sp)
  8010b4:	df000415 	stw	fp,16(sp)
  8010b8:	df000404 	addi	fp,sp,16
  8010bc:	e13ffe15 	stw	r4,-8(fp)
  8010c0:	e17fff15 	stw	r5,-4(fp)
  8010c4:	e0bffe17 	ldw	r2,-8(fp)
  8010c8:	e0bffc15 	stw	r2,-16(fp)
  8010cc:	08063880 	call	806388 <vTaskEnterCritical>
  8010d0:	e0bffc17 	ldw	r2,-16(fp)
  8010d4:	10800017 	ldw	r2,0(r2)
  8010d8:	e0bffd15 	stw	r2,-12(fp)
  8010dc:	e0bffc17 	ldw	r2,-16(fp)
  8010e0:	10c00017 	ldw	r3,0(r2)
  8010e4:	e0bfff17 	ldw	r2,-4(fp)
  8010e8:	0084303a 	nor	r2,zero,r2
  8010ec:	1886703a 	and	r3,r3,r2
  8010f0:	e0bffc17 	ldw	r2,-16(fp)
  8010f4:	10c00015 	stw	r3,0(r2)
  8010f8:	08063d80 	call	8063d8 <vTaskExitCritical>
  8010fc:	e0bffd17 	ldw	r2,-12(fp)
  801100:	e037883a 	mov	sp,fp
  801104:	dfc00117 	ldw	ra,4(sp)
  801108:	df000017 	ldw	fp,0(sp)
  80110c:	dec00204 	addi	sp,sp,8
  801110:	f800283a 	ret

00801114 <xEventGroupGetBitsFromISR>:
  801114:	defffb04 	addi	sp,sp,-20
  801118:	df000415 	stw	fp,16(sp)
  80111c:	df000404 	addi	fp,sp,16
  801120:	e13fff15 	stw	r4,-4(fp)
  801124:	e0bfff17 	ldw	r2,-4(fp)
  801128:	e0bffc15 	stw	r2,-16(fp)
  80112c:	e03ffd15 	stw	zero,-12(fp)
  801130:	e0bffc17 	ldw	r2,-16(fp)
  801134:	10800017 	ldw	r2,0(r2)
  801138:	e0bffe15 	stw	r2,-8(fp)
  80113c:	e0bffe17 	ldw	r2,-8(fp)
  801140:	e037883a 	mov	sp,fp
  801144:	df000017 	ldw	fp,0(sp)
  801148:	dec00104 	addi	sp,sp,4
  80114c:	f800283a 	ret

00801150 <xEventGroupSetBits>:
  801150:	defff304 	addi	sp,sp,-52
  801154:	dfc00c15 	stw	ra,48(sp)
  801158:	df000b15 	stw	fp,44(sp)
  80115c:	df000b04 	addi	fp,sp,44
  801160:	e13ffe15 	stw	r4,-8(fp)
  801164:	e17fff15 	stw	r5,-4(fp)
  801168:	e03ff615 	stw	zero,-40(fp)
  80116c:	e0bffe17 	ldw	r2,-8(fp)
  801170:	e0bff815 	stw	r2,-32(fp)
  801174:	e03ff715 	stw	zero,-36(fp)
  801178:	e0bff817 	ldw	r2,-32(fp)
  80117c:	10800104 	addi	r2,r2,4
  801180:	e0bff915 	stw	r2,-28(fp)
  801184:	e0bff917 	ldw	r2,-28(fp)
  801188:	10800204 	addi	r2,r2,8
  80118c:	e0bffa15 	stw	r2,-24(fp)
  801190:	0804e700 	call	804e70 <vTaskSuspendAll>
  801194:	e0bff917 	ldw	r2,-28(fp)
  801198:	10800317 	ldw	r2,12(r2)
  80119c:	e0bff515 	stw	r2,-44(fp)
  8011a0:	e0bff817 	ldw	r2,-32(fp)
  8011a4:	10c00017 	ldw	r3,0(r2)
  8011a8:	e0bfff17 	ldw	r2,-4(fp)
  8011ac:	1886b03a 	or	r3,r3,r2
  8011b0:	e0bff817 	ldw	r2,-32(fp)
  8011b4:	10c00015 	stw	r3,0(r2)
  8011b8:	00003306 	br	801288 <xEventGroupSetBits+0x138>
  8011bc:	e0bff517 	ldw	r2,-44(fp)
  8011c0:	10800117 	ldw	r2,4(r2)
  8011c4:	e0bffb15 	stw	r2,-20(fp)
  8011c8:	e0bff517 	ldw	r2,-44(fp)
  8011cc:	10800017 	ldw	r2,0(r2)
  8011d0:	e0bffc15 	stw	r2,-16(fp)
  8011d4:	e03ff715 	stw	zero,-36(fp)
  8011d8:	e0bffc17 	ldw	r2,-16(fp)
  8011dc:	10bfc02c 	andhi	r2,r2,65280
  8011e0:	e0bffd15 	stw	r2,-12(fp)
  8011e4:	e0fffc17 	ldw	r3,-16(fp)
  8011e8:	00804034 	movhi	r2,256
  8011ec:	10bfffc4 	addi	r2,r2,-1
  8011f0:	1884703a 	and	r2,r3,r2
  8011f4:	e0bffc15 	stw	r2,-16(fp)
  8011f8:	e0bffd17 	ldw	r2,-12(fp)
  8011fc:	1081002c 	andhi	r2,r2,1024
  801200:	1000081e 	bne	r2,zero,801224 <xEventGroupSetBits+0xd4>
  801204:	e0bff817 	ldw	r2,-32(fp)
  801208:	10c00017 	ldw	r3,0(r2)
  80120c:	e0bffc17 	ldw	r2,-16(fp)
  801210:	1884703a 	and	r2,r3,r2
  801214:	10000b26 	beq	r2,zero,801244 <xEventGroupSetBits+0xf4>
  801218:	00800044 	movi	r2,1
  80121c:	e0bff715 	stw	r2,-36(fp)
  801220:	00000806 	br	801244 <xEventGroupSetBits+0xf4>
  801224:	e0bff817 	ldw	r2,-32(fp)
  801228:	10c00017 	ldw	r3,0(r2)
  80122c:	e0bffc17 	ldw	r2,-16(fp)
  801230:	1886703a 	and	r3,r3,r2
  801234:	e0bffc17 	ldw	r2,-16(fp)
  801238:	1880021e 	bne	r3,r2,801244 <xEventGroupSetBits+0xf4>
  80123c:	00800044 	movi	r2,1
  801240:	e0bff715 	stw	r2,-36(fp)
  801244:	e0bff717 	ldw	r2,-36(fp)
  801248:	10000d26 	beq	r2,zero,801280 <xEventGroupSetBits+0x130>
  80124c:	e0bffd17 	ldw	r2,-12(fp)
  801250:	1080402c 	andhi	r2,r2,256
  801254:	10000426 	beq	r2,zero,801268 <xEventGroupSetBits+0x118>
  801258:	e0fff617 	ldw	r3,-40(fp)
  80125c:	e0bffc17 	ldw	r2,-16(fp)
  801260:	1884b03a 	or	r2,r3,r2
  801264:	e0bff615 	stw	r2,-40(fp)
  801268:	e0bff817 	ldw	r2,-32(fp)
  80126c:	10800017 	ldw	r2,0(r2)
  801270:	10808034 	orhi	r2,r2,512
  801274:	e13ff517 	ldw	r4,-44(fp)
  801278:	100b883a 	mov	r5,r2
  80127c:	08057940 	call	805794 <vTaskRemoveFromUnorderedEventList>
  801280:	e0bffb17 	ldw	r2,-20(fp)
  801284:	e0bff515 	stw	r2,-44(fp)
  801288:	e0fff517 	ldw	r3,-44(fp)
  80128c:	e0bffa17 	ldw	r2,-24(fp)
  801290:	18bfca1e 	bne	r3,r2,8011bc <xEventGroupSetBits+0x6c>
  801294:	e0bff817 	ldw	r2,-32(fp)
  801298:	10c00017 	ldw	r3,0(r2)
  80129c:	e0bff617 	ldw	r2,-40(fp)
  8012a0:	0084303a 	nor	r2,zero,r2
  8012a4:	1886703a 	and	r3,r3,r2
  8012a8:	e0bff817 	ldw	r2,-32(fp)
  8012ac:	10c00015 	stw	r3,0(r2)
  8012b0:	0804e980 	call	804e98 <xTaskResumeAll>
  8012b4:	e0bff817 	ldw	r2,-32(fp)
  8012b8:	10800017 	ldw	r2,0(r2)
  8012bc:	e037883a 	mov	sp,fp
  8012c0:	dfc00117 	ldw	ra,4(sp)
  8012c4:	df000017 	ldw	fp,0(sp)
  8012c8:	dec00204 	addi	sp,sp,8
  8012cc:	f800283a 	ret

008012d0 <vEventGroupDelete>:
  8012d0:	defffb04 	addi	sp,sp,-20
  8012d4:	dfc00415 	stw	ra,16(sp)
  8012d8:	df000315 	stw	fp,12(sp)
  8012dc:	df000304 	addi	fp,sp,12
  8012e0:	e13fff15 	stw	r4,-4(fp)
  8012e4:	e0bfff17 	ldw	r2,-4(fp)
  8012e8:	e0bffd15 	stw	r2,-12(fp)
  8012ec:	e0bffd17 	ldw	r2,-12(fp)
  8012f0:	10800104 	addi	r2,r2,4
  8012f4:	e0bffe15 	stw	r2,-8(fp)
  8012f8:	0804e700 	call	804e70 <vTaskSuspendAll>
  8012fc:	00000506 	br	801314 <vEventGroupDelete+0x44>
  801300:	e0bffe17 	ldw	r2,-8(fp)
  801304:	10800317 	ldw	r2,12(r2)
  801308:	1009883a 	mov	r4,r2
  80130c:	01408034 	movhi	r5,512
  801310:	08057940 	call	805794 <vTaskRemoveFromUnorderedEventList>
  801314:	e0bffe17 	ldw	r2,-8(fp)
  801318:	10800017 	ldw	r2,0(r2)
  80131c:	103ff81e 	bne	r2,zero,801300 <vEventGroupDelete+0x30>
  801320:	e13ffd17 	ldw	r4,-12(fp)
  801324:	08186f00 	call	8186f0 <vPortFree>
  801328:	0804e980 	call	804e98 <xTaskResumeAll>
  80132c:	e037883a 	mov	sp,fp
  801330:	dfc00117 	ldw	ra,4(sp)
  801334:	df000017 	ldw	fp,0(sp)
  801338:	dec00204 	addi	sp,sp,8
  80133c:	f800283a 	ret

00801340 <vEventGroupSetBitsCallback>:
  801340:	defffc04 	addi	sp,sp,-16
  801344:	dfc00315 	stw	ra,12(sp)
  801348:	df000215 	stw	fp,8(sp)
  80134c:	df000204 	addi	fp,sp,8
  801350:	e13ffe15 	stw	r4,-8(fp)
  801354:	e17fff15 	stw	r5,-4(fp)
  801358:	e13ffe17 	ldw	r4,-8(fp)
  80135c:	e17fff17 	ldw	r5,-4(fp)
  801360:	08011500 	call	801150 <xEventGroupSetBits>
  801364:	e037883a 	mov	sp,fp
  801368:	dfc00117 	ldw	ra,4(sp)
  80136c:	df000017 	ldw	fp,0(sp)
  801370:	dec00204 	addi	sp,sp,8
  801374:	f800283a 	ret

00801378 <vEventGroupClearBitsCallback>:
  801378:	defffc04 	addi	sp,sp,-16
  80137c:	dfc00315 	stw	ra,12(sp)
  801380:	df000215 	stw	fp,8(sp)
  801384:	df000204 	addi	fp,sp,8
  801388:	e13ffe15 	stw	r4,-8(fp)
  80138c:	e17fff15 	stw	r5,-4(fp)
  801390:	e13ffe17 	ldw	r4,-8(fp)
  801394:	e17fff17 	ldw	r5,-4(fp)
  801398:	08010ac0 	call	8010ac <xEventGroupClearBits>
  80139c:	e037883a 	mov	sp,fp
  8013a0:	dfc00117 	ldw	ra,4(sp)
  8013a4:	df000017 	ldw	fp,0(sp)
  8013a8:	dec00204 	addi	sp,sp,8
  8013ac:	f800283a 	ret

008013b0 <prvTestWaitCondition>:
  8013b0:	defffb04 	addi	sp,sp,-20
  8013b4:	df000415 	stw	fp,16(sp)
  8013b8:	df000404 	addi	fp,sp,16
  8013bc:	e13ffd15 	stw	r4,-12(fp)
  8013c0:	e17ffe15 	stw	r5,-8(fp)
  8013c4:	e1bfff15 	stw	r6,-4(fp)
  8013c8:	e03ffc15 	stw	zero,-16(fp)
  8013cc:	e0bfff17 	ldw	r2,-4(fp)
  8013d0:	1000071e 	bne	r2,zero,8013f0 <prvTestWaitCondition+0x40>
  8013d4:	e0fffd17 	ldw	r3,-12(fp)
  8013d8:	e0bffe17 	ldw	r2,-8(fp)
  8013dc:	1884703a 	and	r2,r3,r2
  8013e0:	10000a26 	beq	r2,zero,80140c <prvTestWaitCondition+0x5c>
  8013e4:	00800044 	movi	r2,1
  8013e8:	e0bffc15 	stw	r2,-16(fp)
  8013ec:	00000706 	br	80140c <prvTestWaitCondition+0x5c>
  8013f0:	e0fffd17 	ldw	r3,-12(fp)
  8013f4:	e0bffe17 	ldw	r2,-8(fp)
  8013f8:	1886703a 	and	r3,r3,r2
  8013fc:	e0bffe17 	ldw	r2,-8(fp)
  801400:	1880021e 	bne	r3,r2,80140c <prvTestWaitCondition+0x5c>
  801404:	00800044 	movi	r2,1
  801408:	e0bffc15 	stw	r2,-16(fp)
  80140c:	e0bffc17 	ldw	r2,-16(fp)
  801410:	e037883a 	mov	sp,fp
  801414:	df000017 	ldw	fp,0(sp)
  801418:	dec00104 	addi	sp,sp,4
  80141c:	f800283a 	ret

00801420 <uxEventGroupGetNumber>:
  801420:	defffc04 	addi	sp,sp,-16
  801424:	df000315 	stw	fp,12(sp)
  801428:	df000304 	addi	fp,sp,12
  80142c:	e13fff15 	stw	r4,-4(fp)
  801430:	e0bfff17 	ldw	r2,-4(fp)
  801434:	e0bffe15 	stw	r2,-8(fp)
  801438:	e0bfff17 	ldw	r2,-4(fp)
  80143c:	1000021e 	bne	r2,zero,801448 <uxEventGroupGetNumber+0x28>
  801440:	e03ffd15 	stw	zero,-12(fp)
  801444:	00000306 	br	801454 <uxEventGroupGetNumber+0x34>
  801448:	e0bffe17 	ldw	r2,-8(fp)
  80144c:	10800617 	ldw	r2,24(r2)
  801450:	e0bffd15 	stw	r2,-12(fp)
  801454:	e0bffd17 	ldw	r2,-12(fp)
  801458:	e037883a 	mov	sp,fp
  80145c:	df000017 	ldw	fp,0(sp)
  801460:	dec00104 	addi	sp,sp,4
  801464:	f800283a 	ret

00801468 <vEventGroupSetNumber>:
  801468:	defffd04 	addi	sp,sp,-12
  80146c:	df000215 	stw	fp,8(sp)
  801470:	df000204 	addi	fp,sp,8
  801474:	e13ffe15 	stw	r4,-8(fp)
  801478:	e17fff15 	stw	r5,-4(fp)
  80147c:	e0bffe17 	ldw	r2,-8(fp)
  801480:	e0ffff17 	ldw	r3,-4(fp)
  801484:	10c00615 	stw	r3,24(r2)
  801488:	e037883a 	mov	sp,fp
  80148c:	df000017 	ldw	fp,0(sp)
  801490:	dec00104 	addi	sp,sp,4
  801494:	f800283a 	ret

00801498 <vListInitialise>:
  801498:	defffe04 	addi	sp,sp,-8
  80149c:	df000115 	stw	fp,4(sp)
  8014a0:	df000104 	addi	fp,sp,4
  8014a4:	e13fff15 	stw	r4,-4(fp)
  8014a8:	e0bfff17 	ldw	r2,-4(fp)
  8014ac:	10c00204 	addi	r3,r2,8
  8014b0:	e0bfff17 	ldw	r2,-4(fp)
  8014b4:	10c00115 	stw	r3,4(r2)
  8014b8:	e0bfff17 	ldw	r2,-4(fp)
  8014bc:	00ffffc4 	movi	r3,-1
  8014c0:	10c00215 	stw	r3,8(r2)
  8014c4:	e0bfff17 	ldw	r2,-4(fp)
  8014c8:	10c00204 	addi	r3,r2,8
  8014cc:	e0bfff17 	ldw	r2,-4(fp)
  8014d0:	10c00315 	stw	r3,12(r2)
  8014d4:	e0bfff17 	ldw	r2,-4(fp)
  8014d8:	10c00204 	addi	r3,r2,8
  8014dc:	e0bfff17 	ldw	r2,-4(fp)
  8014e0:	10c00415 	stw	r3,16(r2)
  8014e4:	e0bfff17 	ldw	r2,-4(fp)
  8014e8:	10000015 	stw	zero,0(r2)
  8014ec:	e037883a 	mov	sp,fp
  8014f0:	df000017 	ldw	fp,0(sp)
  8014f4:	dec00104 	addi	sp,sp,4
  8014f8:	f800283a 	ret

008014fc <vListInitialiseItem>:
  8014fc:	defffe04 	addi	sp,sp,-8
  801500:	df000115 	stw	fp,4(sp)
  801504:	df000104 	addi	fp,sp,4
  801508:	e13fff15 	stw	r4,-4(fp)
  80150c:	e0bfff17 	ldw	r2,-4(fp)
  801510:	10000415 	stw	zero,16(r2)
  801514:	e037883a 	mov	sp,fp
  801518:	df000017 	ldw	fp,0(sp)
  80151c:	dec00104 	addi	sp,sp,4
  801520:	f800283a 	ret

00801524 <vListInsertEnd>:
  801524:	defffc04 	addi	sp,sp,-16
  801528:	df000315 	stw	fp,12(sp)
  80152c:	df000304 	addi	fp,sp,12
  801530:	e13ffe15 	stw	r4,-8(fp)
  801534:	e17fff15 	stw	r5,-4(fp)
  801538:	e0bffe17 	ldw	r2,-8(fp)
  80153c:	10800117 	ldw	r2,4(r2)
  801540:	e0bffd15 	stw	r2,-12(fp)
  801544:	e0bfff17 	ldw	r2,-4(fp)
  801548:	e0fffd17 	ldw	r3,-12(fp)
  80154c:	10c00115 	stw	r3,4(r2)
  801550:	e0bffd17 	ldw	r2,-12(fp)
  801554:	10c00217 	ldw	r3,8(r2)
  801558:	e0bfff17 	ldw	r2,-4(fp)
  80155c:	10c00215 	stw	r3,8(r2)
  801560:	e0bffd17 	ldw	r2,-12(fp)
  801564:	10800217 	ldw	r2,8(r2)
  801568:	e0ffff17 	ldw	r3,-4(fp)
  80156c:	10c00115 	stw	r3,4(r2)
  801570:	e0bffd17 	ldw	r2,-12(fp)
  801574:	e0ffff17 	ldw	r3,-4(fp)
  801578:	10c00215 	stw	r3,8(r2)
  80157c:	e0bfff17 	ldw	r2,-4(fp)
  801580:	e0fffe17 	ldw	r3,-8(fp)
  801584:	10c00415 	stw	r3,16(r2)
  801588:	e0bffe17 	ldw	r2,-8(fp)
  80158c:	10800017 	ldw	r2,0(r2)
  801590:	10c00044 	addi	r3,r2,1
  801594:	e0bffe17 	ldw	r2,-8(fp)
  801598:	10c00015 	stw	r3,0(r2)
  80159c:	e037883a 	mov	sp,fp
  8015a0:	df000017 	ldw	fp,0(sp)
  8015a4:	dec00104 	addi	sp,sp,4
  8015a8:	f800283a 	ret

008015ac <vListInsert>:
  8015ac:	defffb04 	addi	sp,sp,-20
  8015b0:	df000415 	stw	fp,16(sp)
  8015b4:	df000404 	addi	fp,sp,16
  8015b8:	e13ffe15 	stw	r4,-8(fp)
  8015bc:	e17fff15 	stw	r5,-4(fp)
  8015c0:	e0bfff17 	ldw	r2,-4(fp)
  8015c4:	10800017 	ldw	r2,0(r2)
  8015c8:	e0bffd15 	stw	r2,-12(fp)
  8015cc:	e0bffd17 	ldw	r2,-12(fp)
  8015d0:	10bfffd8 	cmpnei	r2,r2,-1
  8015d4:	1000041e 	bne	r2,zero,8015e8 <vListInsert+0x3c>
  8015d8:	e0bffe17 	ldw	r2,-8(fp)
  8015dc:	10800417 	ldw	r2,16(r2)
  8015e0:	e0bffc15 	stw	r2,-16(fp)
  8015e4:	00000c06 	br	801618 <vListInsert+0x6c>
  8015e8:	e0bffe17 	ldw	r2,-8(fp)
  8015ec:	10800204 	addi	r2,r2,8
  8015f0:	e0bffc15 	stw	r2,-16(fp)
  8015f4:	00000306 	br	801604 <vListInsert+0x58>
  8015f8:	e0bffc17 	ldw	r2,-16(fp)
  8015fc:	10800117 	ldw	r2,4(r2)
  801600:	e0bffc15 	stw	r2,-16(fp)
  801604:	e0bffc17 	ldw	r2,-16(fp)
  801608:	10800117 	ldw	r2,4(r2)
  80160c:	10800017 	ldw	r2,0(r2)
  801610:	e0fffd17 	ldw	r3,-12(fp)
  801614:	18bff82e 	bgeu	r3,r2,8015f8 <vListInsert+0x4c>
  801618:	e0bffc17 	ldw	r2,-16(fp)
  80161c:	10c00117 	ldw	r3,4(r2)
  801620:	e0bfff17 	ldw	r2,-4(fp)
  801624:	10c00115 	stw	r3,4(r2)
  801628:	e0bfff17 	ldw	r2,-4(fp)
  80162c:	10800117 	ldw	r2,4(r2)
  801630:	e0ffff17 	ldw	r3,-4(fp)
  801634:	10c00215 	stw	r3,8(r2)
  801638:	e0bfff17 	ldw	r2,-4(fp)
  80163c:	e0fffc17 	ldw	r3,-16(fp)
  801640:	10c00215 	stw	r3,8(r2)
  801644:	e0bffc17 	ldw	r2,-16(fp)
  801648:	e0ffff17 	ldw	r3,-4(fp)
  80164c:	10c00115 	stw	r3,4(r2)
  801650:	e0bfff17 	ldw	r2,-4(fp)
  801654:	e0fffe17 	ldw	r3,-8(fp)
  801658:	10c00415 	stw	r3,16(r2)
  80165c:	e0bffe17 	ldw	r2,-8(fp)
  801660:	10800017 	ldw	r2,0(r2)
  801664:	10c00044 	addi	r3,r2,1
  801668:	e0bffe17 	ldw	r2,-8(fp)
  80166c:	10c00015 	stw	r3,0(r2)
  801670:	e037883a 	mov	sp,fp
  801674:	df000017 	ldw	fp,0(sp)
  801678:	dec00104 	addi	sp,sp,4
  80167c:	f800283a 	ret

00801680 <uxListRemove>:
  801680:	defffd04 	addi	sp,sp,-12
  801684:	df000215 	stw	fp,8(sp)
  801688:	df000204 	addi	fp,sp,8
  80168c:	e13fff15 	stw	r4,-4(fp)
  801690:	e0bfff17 	ldw	r2,-4(fp)
  801694:	10800417 	ldw	r2,16(r2)
  801698:	e0bffe15 	stw	r2,-8(fp)
  80169c:	e0bfff17 	ldw	r2,-4(fp)
  8016a0:	10800117 	ldw	r2,4(r2)
  8016a4:	e0ffff17 	ldw	r3,-4(fp)
  8016a8:	18c00217 	ldw	r3,8(r3)
  8016ac:	10c00215 	stw	r3,8(r2)
  8016b0:	e0bfff17 	ldw	r2,-4(fp)
  8016b4:	10800217 	ldw	r2,8(r2)
  8016b8:	e0ffff17 	ldw	r3,-4(fp)
  8016bc:	18c00117 	ldw	r3,4(r3)
  8016c0:	10c00115 	stw	r3,4(r2)
  8016c4:	e0bffe17 	ldw	r2,-8(fp)
  8016c8:	10c00117 	ldw	r3,4(r2)
  8016cc:	e0bfff17 	ldw	r2,-4(fp)
  8016d0:	1880041e 	bne	r3,r2,8016e4 <uxListRemove+0x64>
  8016d4:	e0bfff17 	ldw	r2,-4(fp)
  8016d8:	10c00217 	ldw	r3,8(r2)
  8016dc:	e0bffe17 	ldw	r2,-8(fp)
  8016e0:	10c00115 	stw	r3,4(r2)
  8016e4:	e0bfff17 	ldw	r2,-4(fp)
  8016e8:	10000415 	stw	zero,16(r2)
  8016ec:	e0bffe17 	ldw	r2,-8(fp)
  8016f0:	10800017 	ldw	r2,0(r2)
  8016f4:	10ffffc4 	addi	r3,r2,-1
  8016f8:	e0bffe17 	ldw	r2,-8(fp)
  8016fc:	10c00015 	stw	r3,0(r2)
  801700:	e0bffe17 	ldw	r2,-8(fp)
  801704:	10800017 	ldw	r2,0(r2)
  801708:	e037883a 	mov	sp,fp
  80170c:	df000017 	ldw	fp,0(sp)
  801710:	dec00104 	addi	sp,sp,4
  801714:	f800283a 	ret

00801718 <prvReadGp>:
  801718:	defffe04 	addi	sp,sp,-8
  80171c:	df000115 	stw	fp,4(sp)
  801720:	df000104 	addi	fp,sp,4
  801724:	e13fff15 	stw	r4,-4(fp)
  801728:	e0bfff17 	ldw	r2,-4(fp)
  80172c:	16800015 	stw	gp,0(r2)
  801730:	e037883a 	mov	sp,fp
  801734:	df000017 	ldw	fp,0(sp)
  801738:	dec00104 	addi	sp,sp,4
  80173c:	f800283a 	ret

00801740 <pxPortInitialiseStack>:
  801740:	defff904 	addi	sp,sp,-28
  801744:	dfc00615 	stw	ra,24(sp)
  801748:	df000515 	stw	fp,20(sp)
  80174c:	df000504 	addi	fp,sp,20
  801750:	e13ffd15 	stw	r4,-12(fp)
  801754:	e17ffe15 	stw	r5,-8(fp)
  801758:	e1bfff15 	stw	r6,-4(fp)
  80175c:	e0bffd17 	ldw	r2,-12(fp)
  801760:	10bfff04 	addi	r2,r2,-4
  801764:	e0bffb15 	stw	r2,-20(fp)
  801768:	e0bffc04 	addi	r2,fp,-16
  80176c:	1009883a 	mov	r4,r2
  801770:	08017180 	call	801718 <prvReadGp>
  801774:	e0fffd17 	ldw	r3,-12(fp)
  801778:	00b7abb4 	movhi	r2,57006
  80177c:	10afbbc4 	addi	r2,r2,-16657
  801780:	18800015 	stw	r2,0(r3)
  801784:	e0bffd17 	ldw	r2,-12(fp)
  801788:	10bfff04 	addi	r2,r2,-4
  80178c:	e0bffd15 	stw	r2,-12(fp)
  801790:	e0fffb17 	ldw	r3,-20(fp)
  801794:	e0bffd17 	ldw	r2,-12(fp)
  801798:	10c00015 	stw	r3,0(r2)
  80179c:	e0bffd17 	ldw	r2,-12(fp)
  8017a0:	10bfff04 	addi	r2,r2,-4
  8017a4:	e0bffd15 	stw	r2,-12(fp)
  8017a8:	e0fffc17 	ldw	r3,-16(fp)
  8017ac:	e0bffd17 	ldw	r2,-12(fp)
  8017b0:	10c00015 	stw	r3,0(r2)
  8017b4:	e0bffd17 	ldw	r2,-12(fp)
  8017b8:	10bff704 	addi	r2,r2,-36
  8017bc:	e0bffd15 	stw	r2,-12(fp)
  8017c0:	e0fffe17 	ldw	r3,-8(fp)
  8017c4:	e0bffd17 	ldw	r2,-12(fp)
  8017c8:	10c00015 	stw	r3,0(r2)
  8017cc:	e0bffd17 	ldw	r2,-12(fp)
  8017d0:	10bfff04 	addi	r2,r2,-4
  8017d4:	e0bffd15 	stw	r2,-12(fp)
  8017d8:	e0bffd17 	ldw	r2,-12(fp)
  8017dc:	00c00044 	movi	r3,1
  8017e0:	10c00015 	stw	r3,0(r2)
  8017e4:	e0bffd17 	ldw	r2,-12(fp)
  8017e8:	10bff404 	addi	r2,r2,-48
  8017ec:	e0bffd15 	stw	r2,-12(fp)
  8017f0:	e0ffff17 	ldw	r3,-4(fp)
  8017f4:	e0bffd17 	ldw	r2,-12(fp)
  8017f8:	10c00015 	stw	r3,0(r2)
  8017fc:	e0bffd17 	ldw	r2,-12(fp)
  801800:	10bffb04 	addi	r2,r2,-20
  801804:	e0bffd15 	stw	r2,-12(fp)
  801808:	e0bffd17 	ldw	r2,-12(fp)
  80180c:	e037883a 	mov	sp,fp
  801810:	dfc00117 	ldw	ra,4(sp)
  801814:	df000017 	ldw	fp,0(sp)
  801818:	dec00204 	addi	sp,sp,8
  80181c:	f800283a 	ret

00801820 <xPortStartScheduler>:
  801820:	defffe04 	addi	sp,sp,-8
  801824:	dfc00115 	stw	ra,4(sp)
  801828:	df000015 	stw	fp,0(sp)
  80182c:	d839883a 	mov	fp,sp
  801830:	08018740 	call	801874 <prvSetupTimerInterrupt>
  801834:	00802034 	movhi	r2,128
  801838:	10803104 	addi	r2,r2,196
  80183c:	1000683a 	jmp	r2
  801840:	0005883a 	mov	r2,zero
  801844:	e037883a 	mov	sp,fp
  801848:	dfc00117 	ldw	ra,4(sp)
  80184c:	df000017 	ldw	fp,0(sp)
  801850:	dec00204 	addi	sp,sp,8
  801854:	f800283a 	ret

00801858 <vPortEndScheduler>:
  801858:	deffff04 	addi	sp,sp,-4
  80185c:	df000015 	stw	fp,0(sp)
  801860:	d839883a 	mov	fp,sp
  801864:	e037883a 	mov	sp,fp
  801868:	df000017 	ldw	fp,0(sp)
  80186c:	dec00104 	addi	sp,sp,4
  801870:	f800283a 	ret

00801874 <prvSetupTimerInterrupt>:
  801874:	defffe04 	addi	sp,sp,-8
  801878:	dfc00115 	stw	ra,4(sp)
  80187c:	df000015 	stw	fp,0(sp)
  801880:	d839883a 	mov	fp,sp
  801884:	01000084 	movi	r4,2
  801888:	000b883a 	mov	r5,zero
  80188c:	01802034 	movhi	r6,128
  801890:	31864304 	addi	r6,r6,6412
  801894:	08019540 	call	801954 <alt_irq_register>
  801898:	10bffa98 	cmpnei	r2,r2,-22
  80189c:	1000021e 	bne	r2,zero,8018a8 <prvSetupTimerInterrupt+0x34>
  8018a0:	003da03a 	break	0
  8018a4:	00001006 	br	8018e8 <prvSetupTimerInterrupt+0x74>
  8018a8:	00c00204 	movi	r3,8
  8018ac:	00804034 	movhi	r2,256
  8018b0:	10841104 	addi	r2,r2,4164
  8018b4:	10c00035 	stwio	r3,0(r2)
  8018b8:	00f0d414 	movui	r3,50000
  8018bc:	00804034 	movhi	r2,256
  8018c0:	10841204 	addi	r2,r2,4168
  8018c4:	10c00035 	stwio	r3,0(r2)
  8018c8:	0007883a 	mov	r3,zero
  8018cc:	00804034 	movhi	r2,256
  8018d0:	10841304 	addi	r2,r2,4172
  8018d4:	10c00035 	stwio	r3,0(r2)
  8018d8:	00c001c4 	movi	r3,7
  8018dc:	00804034 	movhi	r2,256
  8018e0:	10841104 	addi	r2,r2,4164
  8018e4:	10c00035 	stwio	r3,0(r2)
  8018e8:	00ffff84 	movi	r3,-2
  8018ec:	00804034 	movhi	r2,256
  8018f0:	10841004 	addi	r2,r2,4160
  8018f4:	10c00035 	stwio	r3,0(r2)
  8018f8:	e037883a 	mov	sp,fp
  8018fc:	dfc00117 	ldw	ra,4(sp)
  801900:	df000017 	ldw	fp,0(sp)
  801904:	dec00204 	addi	sp,sp,8
  801908:	f800283a 	ret

0080190c <vPortSysTickHandler>:
  80190c:	defffc04 	addi	sp,sp,-16
  801910:	dfc00315 	stw	ra,12(sp)
  801914:	df000215 	stw	fp,8(sp)
  801918:	df000204 	addi	fp,sp,8
  80191c:	e13ffe15 	stw	r4,-8(fp)
  801920:	e17fff15 	stw	r5,-4(fp)
  801924:	08052c40 	call	8052c4 <xTaskIncrementTick>
  801928:	10000126 	beq	r2,zero,801930 <vPortSysTickHandler+0x24>
  80192c:	08054900 	call	805490 <vTaskSwitchContext>
  801930:	00ffff84 	movi	r3,-2
  801934:	00804034 	movhi	r2,256
  801938:	10841004 	addi	r2,r2,4160
  80193c:	10c00035 	stwio	r3,0(r2)
  801940:	e037883a 	mov	sp,fp
  801944:	dfc00117 	ldw	ra,4(sp)
  801948:	df000017 	ldw	fp,0(sp)
  80194c:	dec00204 	addi	sp,sp,8
  801950:	f800283a 	ret

00801954 <alt_irq_register>:
  801954:	defff104 	addi	sp,sp,-60
  801958:	df000e15 	stw	fp,56(sp)
  80195c:	df000e04 	addi	fp,sp,56
  801960:	e13ffd15 	stw	r4,-12(fp)
  801964:	e17ffe15 	stw	r5,-8(fp)
  801968:	e1bfff15 	stw	r6,-4(fp)
  80196c:	00bffa84 	movi	r2,-22
  801970:	e0bff215 	stw	r2,-56(fp)
  801974:	e0bffd17 	ldw	r2,-12(fp)
  801978:	10800828 	cmpgeui	r2,r2,32
  80197c:	1000581e 	bne	r2,zero,801ae0 <alt_irq_register+0x18c>
  801980:	0005303a 	rdctl	r2,status
  801984:	e0bff415 	stw	r2,-48(fp)
  801988:	e0fff417 	ldw	r3,-48(fp)
  80198c:	00bfff84 	movi	r2,-2
  801990:	1884703a 	and	r2,r3,r2
  801994:	1001703a 	wrctl	status,r2
  801998:	e0bff417 	ldw	r2,-48(fp)
  80199c:	e0bff315 	stw	r2,-52(fp)
  8019a0:	008021b4 	movhi	r2,134
  8019a4:	10940304 	addi	r2,r2,20492
  8019a8:	e0fffd17 	ldw	r3,-12(fp)
  8019ac:	180690fa 	slli	r3,r3,3
  8019b0:	10c5883a 	add	r2,r2,r3
  8019b4:	e0ffff17 	ldw	r3,-4(fp)
  8019b8:	10c00015 	stw	r3,0(r2)
  8019bc:	008021b4 	movhi	r2,134
  8019c0:	10940304 	addi	r2,r2,20492
  8019c4:	e0fffd17 	ldw	r3,-12(fp)
  8019c8:	180690fa 	slli	r3,r3,3
  8019cc:	10c5883a 	add	r2,r2,r3
  8019d0:	10800104 	addi	r2,r2,4
  8019d4:	e0fffe17 	ldw	r3,-8(fp)
  8019d8:	10c00015 	stw	r3,0(r2)
  8019dc:	e0bfff17 	ldw	r2,-4(fp)
  8019e0:	10001f26 	beq	r2,zero,801a60 <alt_irq_register+0x10c>
  8019e4:	e0bffd17 	ldw	r2,-12(fp)
  8019e8:	e0bff515 	stw	r2,-44(fp)
  8019ec:	0005303a 	rdctl	r2,status
  8019f0:	e0bff615 	stw	r2,-40(fp)
  8019f4:	e0fff617 	ldw	r3,-40(fp)
  8019f8:	00bfff84 	movi	r2,-2
  8019fc:	1884703a 	and	r2,r3,r2
  801a00:	1001703a 	wrctl	status,r2
  801a04:	e0bff617 	ldw	r2,-40(fp)
  801a08:	e0bff715 	stw	r2,-36(fp)
  801a0c:	e0bff517 	ldw	r2,-44(fp)
  801a10:	00c00044 	movi	r3,1
  801a14:	1884983a 	sll	r2,r3,r2
  801a18:	1007883a 	mov	r3,r2
  801a1c:	008020f4 	movhi	r2,131
  801a20:	10839c04 	addi	r2,r2,3696
  801a24:	10800017 	ldw	r2,0(r2)
  801a28:	1886b03a 	or	r3,r3,r2
  801a2c:	008020f4 	movhi	r2,131
  801a30:	10839c04 	addi	r2,r2,3696
  801a34:	10c00015 	stw	r3,0(r2)
  801a38:	008020f4 	movhi	r2,131
  801a3c:	10839c04 	addi	r2,r2,3696
  801a40:	10800017 	ldw	r2,0(r2)
  801a44:	100170fa 	wrctl	ienable,r2
  801a48:	e0bff717 	ldw	r2,-36(fp)
  801a4c:	e0bff815 	stw	r2,-32(fp)
  801a50:	e0bff817 	ldw	r2,-32(fp)
  801a54:	1001703a 	wrctl	status,r2
  801a58:	0005883a 	mov	r2,zero
  801a5c:	00001f06 	br	801adc <alt_irq_register+0x188>
  801a60:	e0bffd17 	ldw	r2,-12(fp)
  801a64:	e0bff915 	stw	r2,-28(fp)
  801a68:	0005303a 	rdctl	r2,status
  801a6c:	e0bffa15 	stw	r2,-24(fp)
  801a70:	e0fffa17 	ldw	r3,-24(fp)
  801a74:	00bfff84 	movi	r2,-2
  801a78:	1884703a 	and	r2,r3,r2
  801a7c:	1001703a 	wrctl	status,r2
  801a80:	e0bffa17 	ldw	r2,-24(fp)
  801a84:	e0bffb15 	stw	r2,-20(fp)
  801a88:	e0bff917 	ldw	r2,-28(fp)
  801a8c:	00c00044 	movi	r3,1
  801a90:	1884983a 	sll	r2,r3,r2
  801a94:	0084303a 	nor	r2,zero,r2
  801a98:	1007883a 	mov	r3,r2
  801a9c:	008020f4 	movhi	r2,131
  801aa0:	10839c04 	addi	r2,r2,3696
  801aa4:	10800017 	ldw	r2,0(r2)
  801aa8:	1886703a 	and	r3,r3,r2
  801aac:	008020f4 	movhi	r2,131
  801ab0:	10839c04 	addi	r2,r2,3696
  801ab4:	10c00015 	stw	r3,0(r2)
  801ab8:	008020f4 	movhi	r2,131
  801abc:	10839c04 	addi	r2,r2,3696
  801ac0:	10800017 	ldw	r2,0(r2)
  801ac4:	100170fa 	wrctl	ienable,r2
  801ac8:	e0bffb17 	ldw	r2,-20(fp)
  801acc:	e0bffc15 	stw	r2,-16(fp)
  801ad0:	e0bffc17 	ldw	r2,-16(fp)
  801ad4:	1001703a 	wrctl	status,r2
  801ad8:	0005883a 	mov	r2,zero
  801adc:	e0bff215 	stw	r2,-56(fp)
  801ae0:	e0bff217 	ldw	r2,-56(fp)
  801ae4:	e037883a 	mov	sp,fp
  801ae8:	df000017 	ldw	fp,0(sp)
  801aec:	dec00104 	addi	sp,sp,4
  801af0:	f800283a 	ret

00801af4 <vConfigureTimerForRunTimeStats>:
  801af4:	deffff04 	addi	sp,sp,-4
  801af8:	df000015 	stw	fp,0(sp)
  801afc:	d839883a 	mov	fp,sp
  801b00:	00c4e204 	movi	r3,5000
  801b04:	00804034 	movhi	r2,256
  801b08:	10840a04 	addi	r2,r2,4136
  801b0c:	10c00035 	stwio	r3,0(r2)
  801b10:	0007883a 	mov	r3,zero
  801b14:	00804034 	movhi	r2,256
  801b18:	10840b04 	addi	r2,r2,4140
  801b1c:	10c00035 	stwio	r3,0(r2)
  801b20:	00c00044 	movi	r3,1
  801b24:	00804034 	movhi	r2,256
  801b28:	10840904 	addi	r2,r2,4132
  801b2c:	10c00035 	stwio	r3,0(r2)
  801b30:	e037883a 	mov	sp,fp
  801b34:	df000017 	ldw	fp,0(sp)
  801b38:	dec00104 	addi	sp,sp,4
  801b3c:	f800283a 	ret

00801b40 <vTaskGetTimestamp>:
  801b40:	defffe04 	addi	sp,sp,-8
  801b44:	df000115 	stw	fp,4(sp)
  801b48:	df000104 	addi	fp,sp,4
  801b4c:	00804034 	movhi	r2,256
  801b50:	10840d04 	addi	r2,r2,4148
  801b54:	10800037 	ldwio	r2,0(r2)
  801b58:	e0bfff15 	stw	r2,-4(fp)
  801b5c:	e0bfff17 	ldw	r2,-4(fp)
  801b60:	1004943a 	slli	r2,r2,16
  801b64:	e0ffff17 	ldw	r3,-4(fp)
  801b68:	1884b03a 	or	r2,r3,r2
  801b6c:	e0bfff15 	stw	r2,-4(fp)
  801b70:	00804034 	movhi	r2,256
  801b74:	10840c04 	addi	r2,r2,4144
  801b78:	10800037 	ldwio	r2,0(r2)
  801b7c:	1007883a 	mov	r3,r2
  801b80:	e0bfff17 	ldw	r2,-4(fp)
  801b84:	10c4b03a 	or	r2,r2,r3
  801b88:	e0bfff15 	stw	r2,-4(fp)
  801b8c:	e0bfff17 	ldw	r2,-4(fp)
  801b90:	e037883a 	mov	sp,fp
  801b94:	df000017 	ldw	fp,0(sp)
  801b98:	dec00104 	addi	sp,sp,4
  801b9c:	f800283a 	ret

00801ba0 <xQueueGenericReset>:
  801ba0:	defffa04 	addi	sp,sp,-24
  801ba4:	dfc00515 	stw	ra,20(sp)
  801ba8:	df000415 	stw	fp,16(sp)
  801bac:	dc000315 	stw	r16,12(sp)
  801bb0:	df000404 	addi	fp,sp,16
  801bb4:	e13ffd15 	stw	r4,-12(fp)
  801bb8:	e17ffe15 	stw	r5,-8(fp)
  801bbc:	e0bffd17 	ldw	r2,-12(fp)
  801bc0:	e0bffc15 	stw	r2,-16(fp)
  801bc4:	08063880 	call	806388 <vTaskEnterCritical>
  801bc8:	e0bffc17 	ldw	r2,-16(fp)
  801bcc:	14000017 	ldw	r16,0(r2)
  801bd0:	e0bffc17 	ldw	r2,-16(fp)
  801bd4:	10c00f17 	ldw	r3,60(r2)
  801bd8:	e0bffc17 	ldw	r2,-16(fp)
  801bdc:	10801017 	ldw	r2,64(r2)
  801be0:	1809883a 	mov	r4,r3
  801be4:	100b883a 	mov	r5,r2
  801be8:	08191480 	call	819148 <__mulsi3>
  801bec:	8087883a 	add	r3,r16,r2
  801bf0:	e0bffc17 	ldw	r2,-16(fp)
  801bf4:	10c00215 	stw	r3,8(r2)
  801bf8:	e0bffc17 	ldw	r2,-16(fp)
  801bfc:	10000e15 	stw	zero,56(r2)
  801c00:	e0bffc17 	ldw	r2,-16(fp)
  801c04:	10c00017 	ldw	r3,0(r2)
  801c08:	e0bffc17 	ldw	r2,-16(fp)
  801c0c:	10c00115 	stw	r3,4(r2)
  801c10:	e0bffc17 	ldw	r2,-16(fp)
  801c14:	14000017 	ldw	r16,0(r2)
  801c18:	e0bffc17 	ldw	r2,-16(fp)
  801c1c:	10800f17 	ldw	r2,60(r2)
  801c20:	10ffffc4 	addi	r3,r2,-1
  801c24:	e0bffc17 	ldw	r2,-16(fp)
  801c28:	10801017 	ldw	r2,64(r2)
  801c2c:	1809883a 	mov	r4,r3
  801c30:	100b883a 	mov	r5,r2
  801c34:	08191480 	call	819148 <__mulsi3>
  801c38:	8087883a 	add	r3,r16,r2
  801c3c:	e0bffc17 	ldw	r2,-16(fp)
  801c40:	10c00315 	stw	r3,12(r2)
  801c44:	e0bffc17 	ldw	r2,-16(fp)
  801c48:	00ffffc4 	movi	r3,-1
  801c4c:	10c01105 	stb	r3,68(r2)
  801c50:	e0bffc17 	ldw	r2,-16(fp)
  801c54:	00ffffc4 	movi	r3,-1
  801c58:	10c01145 	stb	r3,69(r2)
  801c5c:	e0bffe17 	ldw	r2,-8(fp)
  801c60:	10000a1e 	bne	r2,zero,801c8c <xQueueGenericReset+0xec>
  801c64:	e0bffc17 	ldw	r2,-16(fp)
  801c68:	10800417 	ldw	r2,16(r2)
  801c6c:	10000f26 	beq	r2,zero,801cac <xQueueGenericReset+0x10c>
  801c70:	e0bffc17 	ldw	r2,-16(fp)
  801c74:	10800404 	addi	r2,r2,16
  801c78:	1009883a 	mov	r4,r2
  801c7c:	08056940 	call	805694 <xTaskRemoveFromEventList>
  801c80:	10000a26 	beq	r2,zero,801cac <xQueueGenericReset+0x10c>
  801c84:	003b683a 	trap	0
  801c88:	00000806 	br	801cac <xQueueGenericReset+0x10c>
  801c8c:	e0bffc17 	ldw	r2,-16(fp)
  801c90:	10800404 	addi	r2,r2,16
  801c94:	1009883a 	mov	r4,r2
  801c98:	08014980 	call	801498 <vListInitialise>
  801c9c:	e0bffc17 	ldw	r2,-16(fp)
  801ca0:	10800904 	addi	r2,r2,36
  801ca4:	1009883a 	mov	r4,r2
  801ca8:	08014980 	call	801498 <vListInitialise>
  801cac:	08063d80 	call	8063d8 <vTaskExitCritical>
  801cb0:	00800044 	movi	r2,1
  801cb4:	e6ffff04 	addi	sp,fp,-4
  801cb8:	dfc00217 	ldw	ra,8(sp)
  801cbc:	df000117 	ldw	fp,4(sp)
  801cc0:	dc000017 	ldw	r16,0(sp)
  801cc4:	dec00304 	addi	sp,sp,12
  801cc8:	f800283a 	ret

00801ccc <xQueueGenericCreate>:
  801ccc:	defff704 	addi	sp,sp,-36
  801cd0:	dfc00815 	stw	ra,32(sp)
  801cd4:	df000715 	stw	fp,28(sp)
  801cd8:	df000704 	addi	fp,sp,28
  801cdc:	e13ffd15 	stw	r4,-12(fp)
  801ce0:	e17ffe15 	stw	r5,-8(fp)
  801ce4:	3005883a 	mov	r2,r6
  801ce8:	e0bfff05 	stb	r2,-4(fp)
  801cec:	e13ffd17 	ldw	r4,-12(fp)
  801cf0:	e17ffe17 	ldw	r5,-8(fp)
  801cf4:	08191480 	call	819148 <__mulsi3>
  801cf8:	e0bffa15 	stw	r2,-24(fp)
  801cfc:	e0bffa17 	ldw	r2,-24(fp)
  801d00:	10801404 	addi	r2,r2,80
  801d04:	1009883a 	mov	r4,r2
  801d08:	08184e40 	call	8184e4 <pvPortMalloc>
  801d0c:	e0bffb15 	stw	r2,-20(fp)
  801d10:	e0bffb17 	ldw	r2,-20(fp)
  801d14:	10000d26 	beq	r2,zero,801d4c <xQueueGenericCreate+0x80>
  801d18:	e0bffb17 	ldw	r2,-20(fp)
  801d1c:	e0bffc15 	stw	r2,-16(fp)
  801d20:	e0bffc17 	ldw	r2,-16(fp)
  801d24:	10801404 	addi	r2,r2,80
  801d28:	e0bffc15 	stw	r2,-16(fp)
  801d2c:	e0ffff03 	ldbu	r3,-4(fp)
  801d30:	e0bffb17 	ldw	r2,-20(fp)
  801d34:	d8800015 	stw	r2,0(sp)
  801d38:	e13ffd17 	ldw	r4,-12(fp)
  801d3c:	e17ffe17 	ldw	r5,-8(fp)
  801d40:	e1bffc17 	ldw	r6,-16(fp)
  801d44:	180f883a 	mov	r7,r3
  801d48:	0801d640 	call	801d64 <prvInitialiseNewQueue>
  801d4c:	e0bffb17 	ldw	r2,-20(fp)
  801d50:	e037883a 	mov	sp,fp
  801d54:	dfc00117 	ldw	ra,4(sp)
  801d58:	df000017 	ldw	fp,0(sp)
  801d5c:	dec00204 	addi	sp,sp,8
  801d60:	f800283a 	ret

00801d64 <prvInitialiseNewQueue>:
  801d64:	defffa04 	addi	sp,sp,-24
  801d68:	dfc00515 	stw	ra,20(sp)
  801d6c:	df000415 	stw	fp,16(sp)
  801d70:	df000404 	addi	fp,sp,16
  801d74:	e13ffc15 	stw	r4,-16(fp)
  801d78:	e17ffd15 	stw	r5,-12(fp)
  801d7c:	e1bffe15 	stw	r6,-8(fp)
  801d80:	3805883a 	mov	r2,r7
  801d84:	e0bfff05 	stb	r2,-4(fp)
  801d88:	e0bffd17 	ldw	r2,-12(fp)
  801d8c:	1000041e 	bne	r2,zero,801da0 <prvInitialiseNewQueue+0x3c>
  801d90:	e0800217 	ldw	r2,8(fp)
  801d94:	e0c00217 	ldw	r3,8(fp)
  801d98:	10c00015 	stw	r3,0(r2)
  801d9c:	00000306 	br	801dac <prvInitialiseNewQueue+0x48>
  801da0:	e0800217 	ldw	r2,8(fp)
  801da4:	e0fffe17 	ldw	r3,-8(fp)
  801da8:	10c00015 	stw	r3,0(r2)
  801dac:	e0800217 	ldw	r2,8(fp)
  801db0:	e0fffc17 	ldw	r3,-16(fp)
  801db4:	10c00f15 	stw	r3,60(r2)
  801db8:	e0800217 	ldw	r2,8(fp)
  801dbc:	e0fffd17 	ldw	r3,-12(fp)
  801dc0:	10c01015 	stw	r3,64(r2)
  801dc4:	e1000217 	ldw	r4,8(fp)
  801dc8:	01400044 	movi	r5,1
  801dcc:	0801ba00 	call	801ba0 <xQueueGenericReset>
  801dd0:	e0800217 	ldw	r2,8(fp)
  801dd4:	e0ffff03 	ldbu	r3,-4(fp)
  801dd8:	10c01305 	stb	r3,76(r2)
  801ddc:	e037883a 	mov	sp,fp
  801de0:	dfc00117 	ldw	ra,4(sp)
  801de4:	df000017 	ldw	fp,0(sp)
  801de8:	dec00204 	addi	sp,sp,8
  801dec:	f800283a 	ret

00801df0 <prvInitialiseMutex>:
  801df0:	defffd04 	addi	sp,sp,-12
  801df4:	dfc00215 	stw	ra,8(sp)
  801df8:	df000115 	stw	fp,4(sp)
  801dfc:	df000104 	addi	fp,sp,4
  801e00:	e13fff15 	stw	r4,-4(fp)
  801e04:	e0bfff17 	ldw	r2,-4(fp)
  801e08:	10000b26 	beq	r2,zero,801e38 <prvInitialiseMutex+0x48>
  801e0c:	e0bfff17 	ldw	r2,-4(fp)
  801e10:	10000215 	stw	zero,8(r2)
  801e14:	e0bfff17 	ldw	r2,-4(fp)
  801e18:	10000015 	stw	zero,0(r2)
  801e1c:	e0bfff17 	ldw	r2,-4(fp)
  801e20:	10000315 	stw	zero,12(r2)
  801e24:	e13fff17 	ldw	r4,-4(fp)
  801e28:	000b883a 	mov	r5,zero
  801e2c:	000d883a 	mov	r6,zero
  801e30:	000f883a 	mov	r7,zero
  801e34:	080202c0 	call	80202c <xQueueGenericSend>
  801e38:	e037883a 	mov	sp,fp
  801e3c:	dfc00117 	ldw	ra,4(sp)
  801e40:	df000017 	ldw	fp,0(sp)
  801e44:	dec00204 	addi	sp,sp,8
  801e48:	f800283a 	ret

00801e4c <xQueueCreateMutex>:
  801e4c:	defffa04 	addi	sp,sp,-24
  801e50:	dfc00515 	stw	ra,20(sp)
  801e54:	df000415 	stw	fp,16(sp)
  801e58:	df000404 	addi	fp,sp,16
  801e5c:	2005883a 	mov	r2,r4
  801e60:	e0bfff05 	stb	r2,-4(fp)
  801e64:	00800044 	movi	r2,1
  801e68:	e0bffc15 	stw	r2,-16(fp)
  801e6c:	e03ffd15 	stw	zero,-12(fp)
  801e70:	e0bfff03 	ldbu	r2,-4(fp)
  801e74:	e13ffc17 	ldw	r4,-16(fp)
  801e78:	e17ffd17 	ldw	r5,-12(fp)
  801e7c:	100d883a 	mov	r6,r2
  801e80:	0801ccc0 	call	801ccc <xQueueGenericCreate>
  801e84:	e0bffe15 	stw	r2,-8(fp)
  801e88:	e13ffe17 	ldw	r4,-8(fp)
  801e8c:	0801df00 	call	801df0 <prvInitialiseMutex>
  801e90:	e0bffe17 	ldw	r2,-8(fp)
  801e94:	e037883a 	mov	sp,fp
  801e98:	dfc00117 	ldw	ra,4(sp)
  801e9c:	df000017 	ldw	fp,0(sp)
  801ea0:	dec00204 	addi	sp,sp,8
  801ea4:	f800283a 	ret

00801ea8 <xQueueGiveMutexRecursive>:
  801ea8:	defffa04 	addi	sp,sp,-24
  801eac:	dfc00515 	stw	ra,20(sp)
  801eb0:	df000415 	stw	fp,16(sp)
  801eb4:	dc000315 	stw	r16,12(sp)
  801eb8:	df000404 	addi	fp,sp,16
  801ebc:	e13ffe15 	stw	r4,-8(fp)
  801ec0:	e0bffe17 	ldw	r2,-8(fp)
  801ec4:	e0bffd15 	stw	r2,-12(fp)
  801ec8:	e0bffd17 	ldw	r2,-12(fp)
  801ecc:	14000217 	ldw	r16,8(r2)
  801ed0:	0805fa00 	call	805fa0 <xTaskGetCurrentTaskHandle>
  801ed4:	8080101e 	bne	r16,r2,801f18 <xQueueGiveMutexRecursive+0x70>
  801ed8:	e0bffd17 	ldw	r2,-12(fp)
  801edc:	10800317 	ldw	r2,12(r2)
  801ee0:	10ffffc4 	addi	r3,r2,-1
  801ee4:	e0bffd17 	ldw	r2,-12(fp)
  801ee8:	10c00315 	stw	r3,12(r2)
  801eec:	e0bffd17 	ldw	r2,-12(fp)
  801ef0:	10800317 	ldw	r2,12(r2)
  801ef4:	1000051e 	bne	r2,zero,801f0c <xQueueGiveMutexRecursive+0x64>
  801ef8:	e13ffd17 	ldw	r4,-12(fp)
  801efc:	000b883a 	mov	r5,zero
  801f00:	000d883a 	mov	r6,zero
  801f04:	000f883a 	mov	r7,zero
  801f08:	080202c0 	call	80202c <xQueueGenericSend>
  801f0c:	00800044 	movi	r2,1
  801f10:	e0bffc15 	stw	r2,-16(fp)
  801f14:	00000106 	br	801f1c <xQueueGiveMutexRecursive+0x74>
  801f18:	e03ffc15 	stw	zero,-16(fp)
  801f1c:	e0bffc17 	ldw	r2,-16(fp)
  801f20:	e6ffff04 	addi	sp,fp,-4
  801f24:	dfc00217 	ldw	ra,8(sp)
  801f28:	df000117 	ldw	fp,4(sp)
  801f2c:	dc000017 	ldw	r16,0(sp)
  801f30:	dec00304 	addi	sp,sp,12
  801f34:	f800283a 	ret

00801f38 <xQueueTakeMutexRecursive>:
  801f38:	defff904 	addi	sp,sp,-28
  801f3c:	dfc00615 	stw	ra,24(sp)
  801f40:	df000515 	stw	fp,20(sp)
  801f44:	dc000415 	stw	r16,16(sp)
  801f48:	df000504 	addi	fp,sp,20
  801f4c:	e13ffd15 	stw	r4,-12(fp)
  801f50:	e17ffe15 	stw	r5,-8(fp)
  801f54:	e0bffd17 	ldw	r2,-12(fp)
  801f58:	e0bffc15 	stw	r2,-16(fp)
  801f5c:	e0bffc17 	ldw	r2,-16(fp)
  801f60:	14000217 	ldw	r16,8(r2)
  801f64:	0805fa00 	call	805fa0 <xTaskGetCurrentTaskHandle>
  801f68:	8080081e 	bne	r16,r2,801f8c <xQueueTakeMutexRecursive+0x54>
  801f6c:	e0bffc17 	ldw	r2,-16(fp)
  801f70:	10800317 	ldw	r2,12(r2)
  801f74:	10c00044 	addi	r3,r2,1
  801f78:	e0bffc17 	ldw	r2,-16(fp)
  801f7c:	10c00315 	stw	r3,12(r2)
  801f80:	00800044 	movi	r2,1
  801f84:	e0bffb15 	stw	r2,-20(fp)
  801f88:	00000b06 	br	801fb8 <xQueueTakeMutexRecursive+0x80>
  801f8c:	e13ffc17 	ldw	r4,-16(fp)
  801f90:	e17ffe17 	ldw	r5,-8(fp)
  801f94:	08025680 	call	802568 <xQueueSemaphoreTake>
  801f98:	e0bffb15 	stw	r2,-20(fp)
  801f9c:	e0bffb17 	ldw	r2,-20(fp)
  801fa0:	10000526 	beq	r2,zero,801fb8 <xQueueTakeMutexRecursive+0x80>
  801fa4:	e0bffc17 	ldw	r2,-16(fp)
  801fa8:	10800317 	ldw	r2,12(r2)
  801fac:	10c00044 	addi	r3,r2,1
  801fb0:	e0bffc17 	ldw	r2,-16(fp)
  801fb4:	10c00315 	stw	r3,12(r2)
  801fb8:	e0bffb17 	ldw	r2,-20(fp)
  801fbc:	e6ffff04 	addi	sp,fp,-4
  801fc0:	dfc00217 	ldw	ra,8(sp)
  801fc4:	df000117 	ldw	fp,4(sp)
  801fc8:	dc000017 	ldw	r16,0(sp)
  801fcc:	dec00304 	addi	sp,sp,12
  801fd0:	f800283a 	ret

00801fd4 <xQueueCreateCountingSemaphore>:
  801fd4:	defffb04 	addi	sp,sp,-20
  801fd8:	dfc00415 	stw	ra,16(sp)
  801fdc:	df000315 	stw	fp,12(sp)
  801fe0:	df000304 	addi	fp,sp,12
  801fe4:	e13ffe15 	stw	r4,-8(fp)
  801fe8:	e17fff15 	stw	r5,-4(fp)
  801fec:	e13ffe17 	ldw	r4,-8(fp)
  801ff0:	000b883a 	mov	r5,zero
  801ff4:	01800084 	movi	r6,2
  801ff8:	0801ccc0 	call	801ccc <xQueueGenericCreate>
  801ffc:	e0bffd15 	stw	r2,-12(fp)
  802000:	e0bffd17 	ldw	r2,-12(fp)
  802004:	10000326 	beq	r2,zero,802014 <xQueueCreateCountingSemaphore+0x40>
  802008:	e0bffd17 	ldw	r2,-12(fp)
  80200c:	e0ffff17 	ldw	r3,-4(fp)
  802010:	10c00e15 	stw	r3,56(r2)
  802014:	e0bffd17 	ldw	r2,-12(fp)
  802018:	e037883a 	mov	sp,fp
  80201c:	dfc00117 	ldw	ra,4(sp)
  802020:	df000017 	ldw	fp,0(sp)
  802024:	dec00204 	addi	sp,sp,8
  802028:	f800283a 	ret

0080202c <xQueueGenericSend>:
  80202c:	defff504 	addi	sp,sp,-44
  802030:	dfc00a15 	stw	ra,40(sp)
  802034:	df000915 	stw	fp,36(sp)
  802038:	df000904 	addi	fp,sp,36
  80203c:	e13ffc15 	stw	r4,-16(fp)
  802040:	e17ffd15 	stw	r5,-12(fp)
  802044:	e1bffe15 	stw	r6,-8(fp)
  802048:	e1ffff15 	stw	r7,-4(fp)
  80204c:	e03ff715 	stw	zero,-36(fp)
  802050:	e0bffc17 	ldw	r2,-16(fp)
  802054:	e0bff815 	stw	r2,-32(fp)
  802058:	08063880 	call	806388 <vTaskEnterCritical>
  80205c:	e0bff817 	ldw	r2,-32(fp)
  802060:	10c00e17 	ldw	r3,56(r2)
  802064:	e0bff817 	ldw	r2,-32(fp)
  802068:	10800f17 	ldw	r2,60(r2)
  80206c:	18800336 	bltu	r3,r2,80207c <xQueueGenericSend+0x50>
  802070:	e0bfff17 	ldw	r2,-4(fp)
  802074:	10800098 	cmpnei	r2,r2,2
  802078:	1000151e 	bne	r2,zero,8020d0 <xQueueGenericSend+0xa4>
  80207c:	e13ff817 	ldw	r4,-32(fp)
  802080:	e17ffd17 	ldw	r5,-12(fp)
  802084:	e1bfff17 	ldw	r6,-4(fp)
  802088:	0802c6c0 	call	802c6c <prvCopyDataToQueue>
  80208c:	e0bff915 	stw	r2,-28(fp)
  802090:	e0bff817 	ldw	r2,-32(fp)
  802094:	10800917 	ldw	r2,36(r2)
  802098:	10000726 	beq	r2,zero,8020b8 <xQueueGenericSend+0x8c>
  80209c:	e0bff817 	ldw	r2,-32(fp)
  8020a0:	10800904 	addi	r2,r2,36
  8020a4:	1009883a 	mov	r4,r2
  8020a8:	08056940 	call	805694 <xTaskRemoveFromEventList>
  8020ac:	10000526 	beq	r2,zero,8020c4 <xQueueGenericSend+0x98>
  8020b0:	003b683a 	trap	0
  8020b4:	00000306 	br	8020c4 <xQueueGenericSend+0x98>
  8020b8:	e0bff917 	ldw	r2,-28(fp)
  8020bc:	10000126 	beq	r2,zero,8020c4 <xQueueGenericSend+0x98>
  8020c0:	003b683a 	trap	0
  8020c4:	08063d80 	call	8063d8 <vTaskExitCritical>
  8020c8:	00800044 	movi	r2,1
  8020cc:	00004106 	br	8021d4 <xQueueGenericSend+0x1a8>
  8020d0:	e0bffe17 	ldw	r2,-8(fp)
  8020d4:	1000031e 	bne	r2,zero,8020e4 <xQueueGenericSend+0xb8>
  8020d8:	08063d80 	call	8063d8 <vTaskExitCritical>
  8020dc:	0005883a 	mov	r2,zero
  8020e0:	00003c06 	br	8021d4 <xQueueGenericSend+0x1a8>
  8020e4:	e0bff717 	ldw	r2,-36(fp)
  8020e8:	1000051e 	bne	r2,zero,802100 <xQueueGenericSend+0xd4>
  8020ec:	e0bffa04 	addi	r2,fp,-24
  8020f0:	1009883a 	mov	r4,r2
  8020f4:	08058ac0 	call	8058ac <vTaskInternalSetTimeOutState>
  8020f8:	00800044 	movi	r2,1
  8020fc:	e0bff715 	stw	r2,-36(fp)
  802100:	08063d80 	call	8063d8 <vTaskExitCritical>
  802104:	0804e700 	call	804e70 <vTaskSuspendAll>
  802108:	08063880 	call	806388 <vTaskEnterCritical>
  80210c:	e0bff817 	ldw	r2,-32(fp)
  802110:	10801103 	ldbu	r2,68(r2)
  802114:	10803fcc 	andi	r2,r2,255
  802118:	1080201c 	xori	r2,r2,128
  80211c:	10bfe004 	addi	r2,r2,-128
  802120:	10bfffd8 	cmpnei	r2,r2,-1
  802124:	1000021e 	bne	r2,zero,802130 <xQueueGenericSend+0x104>
  802128:	e0bff817 	ldw	r2,-32(fp)
  80212c:	10001105 	stb	zero,68(r2)
  802130:	e0bff817 	ldw	r2,-32(fp)
  802134:	10801143 	ldbu	r2,69(r2)
  802138:	10803fcc 	andi	r2,r2,255
  80213c:	1080201c 	xori	r2,r2,128
  802140:	10bfe004 	addi	r2,r2,-128
  802144:	10bfffd8 	cmpnei	r2,r2,-1
  802148:	1000021e 	bne	r2,zero,802154 <xQueueGenericSend+0x128>
  80214c:	e0bff817 	ldw	r2,-32(fp)
  802150:	10001145 	stb	zero,69(r2)
  802154:	08063d80 	call	8063d8 <vTaskExitCritical>
  802158:	e0fffa04 	addi	r3,fp,-24
  80215c:	e0bffe04 	addi	r2,fp,-8
  802160:	1809883a 	mov	r4,r3
  802164:	100b883a 	mov	r5,r2
  802168:	08058e40 	call	8058e4 <xTaskCheckForTimeOut>
  80216c:	1000131e 	bne	r2,zero,8021bc <xQueueGenericSend+0x190>
  802170:	e13ff817 	ldw	r4,-32(fp)
  802174:	08030180 	call	803018 <prvIsQueueFull>
  802178:	10000c26 	beq	r2,zero,8021ac <xQueueGenericSend+0x180>
  80217c:	e0bff817 	ldw	r2,-32(fp)
  802180:	10c00404 	addi	r3,r2,16
  802184:	e0bffe17 	ldw	r2,-8(fp)
  802188:	1809883a 	mov	r4,r3
  80218c:	100b883a 	mov	r5,r2
  802190:	08055e80 	call	8055e8 <vTaskPlaceOnEventList>
  802194:	e13ff817 	ldw	r4,-32(fp)
  802198:	0802e900 	call	802e90 <prvUnlockQueue>
  80219c:	0804e980 	call	804e98 <xTaskResumeAll>
  8021a0:	10000b1e 	bne	r2,zero,8021d0 <xQueueGenericSend+0x1a4>
  8021a4:	003b683a 	trap	0
  8021a8:	00000906 	br	8021d0 <xQueueGenericSend+0x1a4>
  8021ac:	e13ff817 	ldw	r4,-32(fp)
  8021b0:	0802e900 	call	802e90 <prvUnlockQueue>
  8021b4:	0804e980 	call	804e98 <xTaskResumeAll>
  8021b8:	003fa706 	br	802058 <xQueueGenericSend+0x2c>
  8021bc:	e13ff817 	ldw	r4,-32(fp)
  8021c0:	0802e900 	call	802e90 <prvUnlockQueue>
  8021c4:	0804e980 	call	804e98 <xTaskResumeAll>
  8021c8:	0005883a 	mov	r2,zero
  8021cc:	00000106 	br	8021d4 <xQueueGenericSend+0x1a8>
  8021d0:	003fa106 	br	802058 <xQueueGenericSend+0x2c>
  8021d4:	e037883a 	mov	sp,fp
  8021d8:	dfc00117 	ldw	ra,4(sp)
  8021dc:	df000017 	ldw	fp,0(sp)
  8021e0:	dec00204 	addi	sp,sp,8
  8021e4:	f800283a 	ret

008021e8 <xQueueGenericSendFromISR>:
  8021e8:	defff504 	addi	sp,sp,-44
  8021ec:	dfc00a15 	stw	ra,40(sp)
  8021f0:	df000915 	stw	fp,36(sp)
  8021f4:	df000904 	addi	fp,sp,36
  8021f8:	e13ffc15 	stw	r4,-16(fp)
  8021fc:	e17ffd15 	stw	r5,-12(fp)
  802200:	e1bffe15 	stw	r6,-8(fp)
  802204:	e1ffff15 	stw	r7,-4(fp)
  802208:	e0bffc17 	ldw	r2,-16(fp)
  80220c:	e0bff815 	stw	r2,-32(fp)
  802210:	e03ff915 	stw	zero,-28(fp)
  802214:	e0bff817 	ldw	r2,-32(fp)
  802218:	10c00e17 	ldw	r3,56(r2)
  80221c:	e0bff817 	ldw	r2,-32(fp)
  802220:	10800f17 	ldw	r2,60(r2)
  802224:	18800336 	bltu	r3,r2,802234 <xQueueGenericSendFromISR+0x4c>
  802228:	e0bfff17 	ldw	r2,-4(fp)
  80222c:	10800098 	cmpnei	r2,r2,2
  802230:	1000231e 	bne	r2,zero,8022c0 <xQueueGenericSendFromISR+0xd8>
  802234:	e0bff817 	ldw	r2,-32(fp)
  802238:	10801143 	ldbu	r2,69(r2)
  80223c:	e0bffa05 	stb	r2,-24(fp)
  802240:	e0bff817 	ldw	r2,-32(fp)
  802244:	10800e17 	ldw	r2,56(r2)
  802248:	e0bffb15 	stw	r2,-20(fp)
  80224c:	e13ff817 	ldw	r4,-32(fp)
  802250:	e17ffd17 	ldw	r5,-12(fp)
  802254:	e1bfff17 	ldw	r6,-4(fp)
  802258:	0802c6c0 	call	802c6c <prvCopyDataToQueue>
  80225c:	e0bffa07 	ldb	r2,-24(fp)
  802260:	10bfffd8 	cmpnei	r2,r2,-1
  802264:	10000e1e 	bne	r2,zero,8022a0 <xQueueGenericSendFromISR+0xb8>
  802268:	e0bff817 	ldw	r2,-32(fp)
  80226c:	10800917 	ldw	r2,36(r2)
  802270:	10001026 	beq	r2,zero,8022b4 <xQueueGenericSendFromISR+0xcc>
  802274:	e0bff817 	ldw	r2,-32(fp)
  802278:	10800904 	addi	r2,r2,36
  80227c:	1009883a 	mov	r4,r2
  802280:	08056940 	call	805694 <xTaskRemoveFromEventList>
  802284:	10000b26 	beq	r2,zero,8022b4 <xQueueGenericSendFromISR+0xcc>
  802288:	e0bffe17 	ldw	r2,-8(fp)
  80228c:	10000926 	beq	r2,zero,8022b4 <xQueueGenericSendFromISR+0xcc>
  802290:	e0bffe17 	ldw	r2,-8(fp)
  802294:	00c00044 	movi	r3,1
  802298:	10c00015 	stw	r3,0(r2)
  80229c:	00000506 	br	8022b4 <xQueueGenericSendFromISR+0xcc>
  8022a0:	e0bffa03 	ldbu	r2,-24(fp)
  8022a4:	10800044 	addi	r2,r2,1
  8022a8:	1007883a 	mov	r3,r2
  8022ac:	e0bff817 	ldw	r2,-32(fp)
  8022b0:	10c01145 	stb	r3,69(r2)
  8022b4:	00800044 	movi	r2,1
  8022b8:	e0bff715 	stw	r2,-36(fp)
  8022bc:	00000106 	br	8022c4 <xQueueGenericSendFromISR+0xdc>
  8022c0:	e03ff715 	stw	zero,-36(fp)
  8022c4:	e0bff717 	ldw	r2,-36(fp)
  8022c8:	e037883a 	mov	sp,fp
  8022cc:	dfc00117 	ldw	ra,4(sp)
  8022d0:	df000017 	ldw	fp,0(sp)
  8022d4:	dec00204 	addi	sp,sp,8
  8022d8:	f800283a 	ret

008022dc <xQueueGiveFromISR>:
  8022dc:	defff704 	addi	sp,sp,-36
  8022e0:	dfc00815 	stw	ra,32(sp)
  8022e4:	df000715 	stw	fp,28(sp)
  8022e8:	df000704 	addi	fp,sp,28
  8022ec:	e13ffe15 	stw	r4,-8(fp)
  8022f0:	e17fff15 	stw	r5,-4(fp)
  8022f4:	e0bffe17 	ldw	r2,-8(fp)
  8022f8:	e0bffa15 	stw	r2,-24(fp)
  8022fc:	e03ffb15 	stw	zero,-20(fp)
  802300:	e0bffa17 	ldw	r2,-24(fp)
  802304:	10800e17 	ldw	r2,56(r2)
  802308:	e0bffc15 	stw	r2,-16(fp)
  80230c:	e0bffa17 	ldw	r2,-24(fp)
  802310:	10800f17 	ldw	r2,60(r2)
  802314:	e0fffc17 	ldw	r3,-16(fp)
  802318:	1880202e 	bgeu	r3,r2,80239c <xQueueGiveFromISR+0xc0>
  80231c:	e0bffa17 	ldw	r2,-24(fp)
  802320:	10801143 	ldbu	r2,69(r2)
  802324:	e0bffd05 	stb	r2,-12(fp)
  802328:	e0bffc17 	ldw	r2,-16(fp)
  80232c:	10c00044 	addi	r3,r2,1
  802330:	e0bffa17 	ldw	r2,-24(fp)
  802334:	10c00e15 	stw	r3,56(r2)
  802338:	e0bffd07 	ldb	r2,-12(fp)
  80233c:	10bfffd8 	cmpnei	r2,r2,-1
  802340:	10000e1e 	bne	r2,zero,80237c <xQueueGiveFromISR+0xa0>
  802344:	e0bffa17 	ldw	r2,-24(fp)
  802348:	10800917 	ldw	r2,36(r2)
  80234c:	10001026 	beq	r2,zero,802390 <xQueueGiveFromISR+0xb4>
  802350:	e0bffa17 	ldw	r2,-24(fp)
  802354:	10800904 	addi	r2,r2,36
  802358:	1009883a 	mov	r4,r2
  80235c:	08056940 	call	805694 <xTaskRemoveFromEventList>
  802360:	10000b26 	beq	r2,zero,802390 <xQueueGiveFromISR+0xb4>
  802364:	e0bfff17 	ldw	r2,-4(fp)
  802368:	10000926 	beq	r2,zero,802390 <xQueueGiveFromISR+0xb4>
  80236c:	e0bfff17 	ldw	r2,-4(fp)
  802370:	00c00044 	movi	r3,1
  802374:	10c00015 	stw	r3,0(r2)
  802378:	00000506 	br	802390 <xQueueGiveFromISR+0xb4>
  80237c:	e0bffd03 	ldbu	r2,-12(fp)
  802380:	10800044 	addi	r2,r2,1
  802384:	1007883a 	mov	r3,r2
  802388:	e0bffa17 	ldw	r2,-24(fp)
  80238c:	10c01145 	stb	r3,69(r2)
  802390:	00800044 	movi	r2,1
  802394:	e0bff915 	stw	r2,-28(fp)
  802398:	00000106 	br	8023a0 <xQueueGiveFromISR+0xc4>
  80239c:	e03ff915 	stw	zero,-28(fp)
  8023a0:	e0bff917 	ldw	r2,-28(fp)
  8023a4:	e037883a 	mov	sp,fp
  8023a8:	dfc00117 	ldw	ra,4(sp)
  8023ac:	df000017 	ldw	fp,0(sp)
  8023b0:	dec00204 	addi	sp,sp,8
  8023b4:	f800283a 	ret

008023b8 <xQueueReceive>:
  8023b8:	defff604 	addi	sp,sp,-40
  8023bc:	dfc00915 	stw	ra,36(sp)
  8023c0:	df000815 	stw	fp,32(sp)
  8023c4:	df000804 	addi	fp,sp,32
  8023c8:	e13ffd15 	stw	r4,-12(fp)
  8023cc:	e17ffe15 	stw	r5,-8(fp)
  8023d0:	e1bfff15 	stw	r6,-4(fp)
  8023d4:	e03ff815 	stw	zero,-32(fp)
  8023d8:	e0bffd17 	ldw	r2,-12(fp)
  8023dc:	e0bff915 	stw	r2,-28(fp)
  8023e0:	08063880 	call	806388 <vTaskEnterCritical>
  8023e4:	e0bff917 	ldw	r2,-28(fp)
  8023e8:	10800e17 	ldw	r2,56(r2)
  8023ec:	e0bffa15 	stw	r2,-24(fp)
  8023f0:	e0bffa17 	ldw	r2,-24(fp)
  8023f4:	10001326 	beq	r2,zero,802444 <xQueueReceive+0x8c>
  8023f8:	e13ff917 	ldw	r4,-28(fp)
  8023fc:	e17ffe17 	ldw	r5,-8(fp)
  802400:	0802df80 	call	802df8 <prvCopyDataFromQueue>
  802404:	e0bffa17 	ldw	r2,-24(fp)
  802408:	10ffffc4 	addi	r3,r2,-1
  80240c:	e0bff917 	ldw	r2,-28(fp)
  802410:	10c00e15 	stw	r3,56(r2)
  802414:	e0bff917 	ldw	r2,-28(fp)
  802418:	10800417 	ldw	r2,16(r2)
  80241c:	10000626 	beq	r2,zero,802438 <xQueueReceive+0x80>
  802420:	e0bff917 	ldw	r2,-28(fp)
  802424:	10800404 	addi	r2,r2,16
  802428:	1009883a 	mov	r4,r2
  80242c:	08056940 	call	805694 <xTaskRemoveFromEventList>
  802430:	10000126 	beq	r2,zero,802438 <xQueueReceive+0x80>
  802434:	003b683a 	trap	0
  802438:	08063d80 	call	8063d8 <vTaskExitCritical>
  80243c:	00800044 	movi	r2,1
  802440:	00004406 	br	802554 <xQueueReceive+0x19c>
  802444:	e0bfff17 	ldw	r2,-4(fp)
  802448:	1000031e 	bne	r2,zero,802458 <xQueueReceive+0xa0>
  80244c:	08063d80 	call	8063d8 <vTaskExitCritical>
  802450:	0005883a 	mov	r2,zero
  802454:	00003f06 	br	802554 <xQueueReceive+0x19c>
  802458:	e0bff817 	ldw	r2,-32(fp)
  80245c:	1000051e 	bne	r2,zero,802474 <xQueueReceive+0xbc>
  802460:	e0bffb04 	addi	r2,fp,-20
  802464:	1009883a 	mov	r4,r2
  802468:	08058ac0 	call	8058ac <vTaskInternalSetTimeOutState>
  80246c:	00800044 	movi	r2,1
  802470:	e0bff815 	stw	r2,-32(fp)
  802474:	08063d80 	call	8063d8 <vTaskExitCritical>
  802478:	0804e700 	call	804e70 <vTaskSuspendAll>
  80247c:	08063880 	call	806388 <vTaskEnterCritical>
  802480:	e0bff917 	ldw	r2,-28(fp)
  802484:	10801103 	ldbu	r2,68(r2)
  802488:	10803fcc 	andi	r2,r2,255
  80248c:	1080201c 	xori	r2,r2,128
  802490:	10bfe004 	addi	r2,r2,-128
  802494:	10bfffd8 	cmpnei	r2,r2,-1
  802498:	1000021e 	bne	r2,zero,8024a4 <xQueueReceive+0xec>
  80249c:	e0bff917 	ldw	r2,-28(fp)
  8024a0:	10001105 	stb	zero,68(r2)
  8024a4:	e0bff917 	ldw	r2,-28(fp)
  8024a8:	10801143 	ldbu	r2,69(r2)
  8024ac:	10803fcc 	andi	r2,r2,255
  8024b0:	1080201c 	xori	r2,r2,128
  8024b4:	10bfe004 	addi	r2,r2,-128
  8024b8:	10bfffd8 	cmpnei	r2,r2,-1
  8024bc:	1000021e 	bne	r2,zero,8024c8 <xQueueReceive+0x110>
  8024c0:	e0bff917 	ldw	r2,-28(fp)
  8024c4:	10001145 	stb	zero,69(r2)
  8024c8:	08063d80 	call	8063d8 <vTaskExitCritical>
  8024cc:	e0fffb04 	addi	r3,fp,-20
  8024d0:	e0bfff04 	addi	r2,fp,-4
  8024d4:	1809883a 	mov	r4,r3
  8024d8:	100b883a 	mov	r5,r2
  8024dc:	08058e40 	call	8058e4 <xTaskCheckForTimeOut>
  8024e0:	1000131e 	bne	r2,zero,802530 <xQueueReceive+0x178>
  8024e4:	e13ff917 	ldw	r4,-28(fp)
  8024e8:	0802f800 	call	802f80 <prvIsQueueEmpty>
  8024ec:	10000c26 	beq	r2,zero,802520 <xQueueReceive+0x168>
  8024f0:	e0bff917 	ldw	r2,-28(fp)
  8024f4:	10c00904 	addi	r3,r2,36
  8024f8:	e0bfff17 	ldw	r2,-4(fp)
  8024fc:	1809883a 	mov	r4,r3
  802500:	100b883a 	mov	r5,r2
  802504:	08055e80 	call	8055e8 <vTaskPlaceOnEventList>
  802508:	e13ff917 	ldw	r4,-28(fp)
  80250c:	0802e900 	call	802e90 <prvUnlockQueue>
  802510:	0804e980 	call	804e98 <xTaskResumeAll>
  802514:	10000e1e 	bne	r2,zero,802550 <xQueueReceive+0x198>
  802518:	003b683a 	trap	0
  80251c:	00000c06 	br	802550 <xQueueReceive+0x198>
  802520:	e13ff917 	ldw	r4,-28(fp)
  802524:	0802e900 	call	802e90 <prvUnlockQueue>
  802528:	0804e980 	call	804e98 <xTaskResumeAll>
  80252c:	003fac06 	br	8023e0 <xQueueReceive+0x28>
  802530:	e13ff917 	ldw	r4,-28(fp)
  802534:	0802e900 	call	802e90 <prvUnlockQueue>
  802538:	0804e980 	call	804e98 <xTaskResumeAll>
  80253c:	e13ff917 	ldw	r4,-28(fp)
  802540:	0802f800 	call	802f80 <prvIsQueueEmpty>
  802544:	10000226 	beq	r2,zero,802550 <xQueueReceive+0x198>
  802548:	0005883a 	mov	r2,zero
  80254c:	00000106 	br	802554 <xQueueReceive+0x19c>
  802550:	003fa306 	br	8023e0 <xQueueReceive+0x28>
  802554:	e037883a 	mov	sp,fp
  802558:	dfc00117 	ldw	ra,4(sp)
  80255c:	df000017 	ldw	fp,0(sp)
  802560:	dec00204 	addi	sp,sp,8
  802564:	f800283a 	ret

00802568 <xQueueSemaphoreTake>:
  802568:	defff504 	addi	sp,sp,-44
  80256c:	dfc00a15 	stw	ra,40(sp)
  802570:	df000915 	stw	fp,36(sp)
  802574:	df000904 	addi	fp,sp,36
  802578:	e13ffe15 	stw	r4,-8(fp)
  80257c:	e17fff15 	stw	r5,-4(fp)
  802580:	e03ff715 	stw	zero,-36(fp)
  802584:	e0bffe17 	ldw	r2,-8(fp)
  802588:	e0bff915 	stw	r2,-28(fp)
  80258c:	e03ff815 	stw	zero,-32(fp)
  802590:	08063880 	call	806388 <vTaskEnterCritical>
  802594:	e0bff917 	ldw	r2,-28(fp)
  802598:	10800e17 	ldw	r2,56(r2)
  80259c:	e0bffa15 	stw	r2,-24(fp)
  8025a0:	e0bffa17 	ldw	r2,-24(fp)
  8025a4:	10001726 	beq	r2,zero,802604 <xQueueSemaphoreTake+0x9c>
  8025a8:	e0bffa17 	ldw	r2,-24(fp)
  8025ac:	10ffffc4 	addi	r3,r2,-1
  8025b0:	e0bff917 	ldw	r2,-28(fp)
  8025b4:	10c00e15 	stw	r3,56(r2)
  8025b8:	e0bff917 	ldw	r2,-28(fp)
  8025bc:	10800017 	ldw	r2,0(r2)
  8025c0:	1000041e 	bne	r2,zero,8025d4 <xQueueSemaphoreTake+0x6c>
  8025c4:	08068a80 	call	8068a8 <pvTaskIncrementMutexHeldCount>
  8025c8:	1007883a 	mov	r3,r2
  8025cc:	e0bff917 	ldw	r2,-28(fp)
  8025d0:	10c00215 	stw	r3,8(r2)
  8025d4:	e0bff917 	ldw	r2,-28(fp)
  8025d8:	10800417 	ldw	r2,16(r2)
  8025dc:	10000626 	beq	r2,zero,8025f8 <xQueueSemaphoreTake+0x90>
  8025e0:	e0bff917 	ldw	r2,-28(fp)
  8025e4:	10800404 	addi	r2,r2,16
  8025e8:	1009883a 	mov	r4,r2
  8025ec:	08056940 	call	805694 <xTaskRemoveFromEventList>
  8025f0:	10000126 	beq	r2,zero,8025f8 <xQueueSemaphoreTake+0x90>
  8025f4:	003b683a 	trap	0
  8025f8:	08063d80 	call	8063d8 <vTaskExitCritical>
  8025fc:	00800044 	movi	r2,1
  802600:	00005a06 	br	80276c <xQueueSemaphoreTake+0x204>
  802604:	e0bfff17 	ldw	r2,-4(fp)
  802608:	1000031e 	bne	r2,zero,802618 <xQueueSemaphoreTake+0xb0>
  80260c:	08063d80 	call	8063d8 <vTaskExitCritical>
  802610:	0005883a 	mov	r2,zero
  802614:	00005506 	br	80276c <xQueueSemaphoreTake+0x204>
  802618:	e0bff717 	ldw	r2,-36(fp)
  80261c:	1000051e 	bne	r2,zero,802634 <xQueueSemaphoreTake+0xcc>
  802620:	e0bffc04 	addi	r2,fp,-16
  802624:	1009883a 	mov	r4,r2
  802628:	08058ac0 	call	8058ac <vTaskInternalSetTimeOutState>
  80262c:	00800044 	movi	r2,1
  802630:	e0bff715 	stw	r2,-36(fp)
  802634:	08063d80 	call	8063d8 <vTaskExitCritical>
  802638:	0804e700 	call	804e70 <vTaskSuspendAll>
  80263c:	08063880 	call	806388 <vTaskEnterCritical>
  802640:	e0bff917 	ldw	r2,-28(fp)
  802644:	10801103 	ldbu	r2,68(r2)
  802648:	10803fcc 	andi	r2,r2,255
  80264c:	1080201c 	xori	r2,r2,128
  802650:	10bfe004 	addi	r2,r2,-128
  802654:	10bfffd8 	cmpnei	r2,r2,-1
  802658:	1000021e 	bne	r2,zero,802664 <xQueueSemaphoreTake+0xfc>
  80265c:	e0bff917 	ldw	r2,-28(fp)
  802660:	10001105 	stb	zero,68(r2)
  802664:	e0bff917 	ldw	r2,-28(fp)
  802668:	10801143 	ldbu	r2,69(r2)
  80266c:	10803fcc 	andi	r2,r2,255
  802670:	1080201c 	xori	r2,r2,128
  802674:	10bfe004 	addi	r2,r2,-128
  802678:	10bfffd8 	cmpnei	r2,r2,-1
  80267c:	1000021e 	bne	r2,zero,802688 <xQueueSemaphoreTake+0x120>
  802680:	e0bff917 	ldw	r2,-28(fp)
  802684:	10001145 	stb	zero,69(r2)
  802688:	08063d80 	call	8063d8 <vTaskExitCritical>
  80268c:	e0fffc04 	addi	r3,fp,-16
  802690:	e0bfff04 	addi	r2,fp,-4
  802694:	1809883a 	mov	r4,r3
  802698:	100b883a 	mov	r5,r2
  80269c:	08058e40 	call	8058e4 <xTaskCheckForTimeOut>
  8026a0:	10001d1e 	bne	r2,zero,802718 <xQueueSemaphoreTake+0x1b0>
  8026a4:	e13ff917 	ldw	r4,-28(fp)
  8026a8:	0802f800 	call	802f80 <prvIsQueueEmpty>
  8026ac:	10001626 	beq	r2,zero,802708 <xQueueSemaphoreTake+0x1a0>
  8026b0:	e0bff917 	ldw	r2,-28(fp)
  8026b4:	10800017 	ldw	r2,0(r2)
  8026b8:	1000071e 	bne	r2,zero,8026d8 <xQueueSemaphoreTake+0x170>
  8026bc:	08063880 	call	806388 <vTaskEnterCritical>
  8026c0:	e0bff917 	ldw	r2,-28(fp)
  8026c4:	10800217 	ldw	r2,8(r2)
  8026c8:	1009883a 	mov	r4,r2
  8026cc:	0805fc80 	call	805fc8 <xTaskPriorityInherit>
  8026d0:	e0bff815 	stw	r2,-32(fp)
  8026d4:	08063d80 	call	8063d8 <vTaskExitCritical>
  8026d8:	e0bff917 	ldw	r2,-28(fp)
  8026dc:	10c00904 	addi	r3,r2,36
  8026e0:	e0bfff17 	ldw	r2,-4(fp)
  8026e4:	1809883a 	mov	r4,r3
  8026e8:	100b883a 	mov	r5,r2
  8026ec:	08055e80 	call	8055e8 <vTaskPlaceOnEventList>
  8026f0:	e13ff917 	ldw	r4,-28(fp)
  8026f4:	0802e900 	call	802e90 <prvUnlockQueue>
  8026f8:	0804e980 	call	804e98 <xTaskResumeAll>
  8026fc:	10001a1e 	bne	r2,zero,802768 <xQueueSemaphoreTake+0x200>
  802700:	003b683a 	trap	0
  802704:	00001806 	br	802768 <xQueueSemaphoreTake+0x200>
  802708:	e13ff917 	ldw	r4,-28(fp)
  80270c:	0802e900 	call	802e90 <prvUnlockQueue>
  802710:	0804e980 	call	804e98 <xTaskResumeAll>
  802714:	003f9e06 	br	802590 <xQueueSemaphoreTake+0x28>
  802718:	e13ff917 	ldw	r4,-28(fp)
  80271c:	0802e900 	call	802e90 <prvUnlockQueue>
  802720:	0804e980 	call	804e98 <xTaskResumeAll>
  802724:	e13ff917 	ldw	r4,-28(fp)
  802728:	0802f800 	call	802f80 <prvIsQueueEmpty>
  80272c:	10000e26 	beq	r2,zero,802768 <xQueueSemaphoreTake+0x200>
  802730:	e0bff817 	ldw	r2,-32(fp)
  802734:	10000a26 	beq	r2,zero,802760 <xQueueSemaphoreTake+0x1f8>
  802738:	08063880 	call	806388 <vTaskEnterCritical>
  80273c:	e13ff917 	ldw	r4,-28(fp)
  802740:	0802c1c0 	call	802c1c <prvGetDisinheritPriorityAfterTimeout>
  802744:	e0bffb15 	stw	r2,-20(fp)
  802748:	e0bff917 	ldw	r2,-28(fp)
  80274c:	10800217 	ldw	r2,8(r2)
  802750:	1009883a 	mov	r4,r2
  802754:	e17ffb17 	ldw	r5,-20(fp)
  802758:	08062300 	call	806230 <vTaskPriorityDisinheritAfterTimeout>
  80275c:	08063d80 	call	8063d8 <vTaskExitCritical>
  802760:	0005883a 	mov	r2,zero
  802764:	00000106 	br	80276c <xQueueSemaphoreTake+0x204>
  802768:	003f8906 	br	802590 <xQueueSemaphoreTake+0x28>
  80276c:	e037883a 	mov	sp,fp
  802770:	dfc00117 	ldw	ra,4(sp)
  802774:	df000017 	ldw	fp,0(sp)
  802778:	dec00204 	addi	sp,sp,8
  80277c:	f800283a 	ret

00802780 <xQueuePeek>:
  802780:	defff504 	addi	sp,sp,-44
  802784:	dfc00a15 	stw	ra,40(sp)
  802788:	df000915 	stw	fp,36(sp)
  80278c:	df000904 	addi	fp,sp,36
  802790:	e13ffd15 	stw	r4,-12(fp)
  802794:	e17ffe15 	stw	r5,-8(fp)
  802798:	e1bfff15 	stw	r6,-4(fp)
  80279c:	e03ff715 	stw	zero,-36(fp)
  8027a0:	e0bffd17 	ldw	r2,-12(fp)
  8027a4:	e0bff815 	stw	r2,-32(fp)
  8027a8:	08063880 	call	806388 <vTaskEnterCritical>
  8027ac:	e0bff817 	ldw	r2,-32(fp)
  8027b0:	10800e17 	ldw	r2,56(r2)
  8027b4:	e0bff915 	stw	r2,-28(fp)
  8027b8:	e0bff917 	ldw	r2,-28(fp)
  8027bc:	10001526 	beq	r2,zero,802814 <xQueuePeek+0x94>
  8027c0:	e0bff817 	ldw	r2,-32(fp)
  8027c4:	10800317 	ldw	r2,12(r2)
  8027c8:	e0bffa15 	stw	r2,-24(fp)
  8027cc:	e13ff817 	ldw	r4,-32(fp)
  8027d0:	e17ffe17 	ldw	r5,-8(fp)
  8027d4:	0802df80 	call	802df8 <prvCopyDataFromQueue>
  8027d8:	e0bff817 	ldw	r2,-32(fp)
  8027dc:	e0fffa17 	ldw	r3,-24(fp)
  8027e0:	10c00315 	stw	r3,12(r2)
  8027e4:	e0bff817 	ldw	r2,-32(fp)
  8027e8:	10800917 	ldw	r2,36(r2)
  8027ec:	10000626 	beq	r2,zero,802808 <xQueuePeek+0x88>
  8027f0:	e0bff817 	ldw	r2,-32(fp)
  8027f4:	10800904 	addi	r2,r2,36
  8027f8:	1009883a 	mov	r4,r2
  8027fc:	08056940 	call	805694 <xTaskRemoveFromEventList>
  802800:	10000126 	beq	r2,zero,802808 <xQueuePeek+0x88>
  802804:	003b683a 	trap	0
  802808:	08063d80 	call	8063d8 <vTaskExitCritical>
  80280c:	00800044 	movi	r2,1
  802810:	00004406 	br	802924 <xQueuePeek+0x1a4>
  802814:	e0bfff17 	ldw	r2,-4(fp)
  802818:	1000031e 	bne	r2,zero,802828 <xQueuePeek+0xa8>
  80281c:	08063d80 	call	8063d8 <vTaskExitCritical>
  802820:	0005883a 	mov	r2,zero
  802824:	00003f06 	br	802924 <xQueuePeek+0x1a4>
  802828:	e0bff717 	ldw	r2,-36(fp)
  80282c:	1000051e 	bne	r2,zero,802844 <xQueuePeek+0xc4>
  802830:	e0bffb04 	addi	r2,fp,-20
  802834:	1009883a 	mov	r4,r2
  802838:	08058ac0 	call	8058ac <vTaskInternalSetTimeOutState>
  80283c:	00800044 	movi	r2,1
  802840:	e0bff715 	stw	r2,-36(fp)
  802844:	08063d80 	call	8063d8 <vTaskExitCritical>
  802848:	0804e700 	call	804e70 <vTaskSuspendAll>
  80284c:	08063880 	call	806388 <vTaskEnterCritical>
  802850:	e0bff817 	ldw	r2,-32(fp)
  802854:	10801103 	ldbu	r2,68(r2)
  802858:	10803fcc 	andi	r2,r2,255
  80285c:	1080201c 	xori	r2,r2,128
  802860:	10bfe004 	addi	r2,r2,-128
  802864:	10bfffd8 	cmpnei	r2,r2,-1
  802868:	1000021e 	bne	r2,zero,802874 <xQueuePeek+0xf4>
  80286c:	e0bff817 	ldw	r2,-32(fp)
  802870:	10001105 	stb	zero,68(r2)
  802874:	e0bff817 	ldw	r2,-32(fp)
  802878:	10801143 	ldbu	r2,69(r2)
  80287c:	10803fcc 	andi	r2,r2,255
  802880:	1080201c 	xori	r2,r2,128
  802884:	10bfe004 	addi	r2,r2,-128
  802888:	10bfffd8 	cmpnei	r2,r2,-1
  80288c:	1000021e 	bne	r2,zero,802898 <xQueuePeek+0x118>
  802890:	e0bff817 	ldw	r2,-32(fp)
  802894:	10001145 	stb	zero,69(r2)
  802898:	08063d80 	call	8063d8 <vTaskExitCritical>
  80289c:	e0fffb04 	addi	r3,fp,-20
  8028a0:	e0bfff04 	addi	r2,fp,-4
  8028a4:	1809883a 	mov	r4,r3
  8028a8:	100b883a 	mov	r5,r2
  8028ac:	08058e40 	call	8058e4 <xTaskCheckForTimeOut>
  8028b0:	1000131e 	bne	r2,zero,802900 <xQueuePeek+0x180>
  8028b4:	e13ff817 	ldw	r4,-32(fp)
  8028b8:	0802f800 	call	802f80 <prvIsQueueEmpty>
  8028bc:	10000c26 	beq	r2,zero,8028f0 <xQueuePeek+0x170>
  8028c0:	e0bff817 	ldw	r2,-32(fp)
  8028c4:	10c00904 	addi	r3,r2,36
  8028c8:	e0bfff17 	ldw	r2,-4(fp)
  8028cc:	1809883a 	mov	r4,r3
  8028d0:	100b883a 	mov	r5,r2
  8028d4:	08055e80 	call	8055e8 <vTaskPlaceOnEventList>
  8028d8:	e13ff817 	ldw	r4,-32(fp)
  8028dc:	0802e900 	call	802e90 <prvUnlockQueue>
  8028e0:	0804e980 	call	804e98 <xTaskResumeAll>
  8028e4:	10000e1e 	bne	r2,zero,802920 <xQueuePeek+0x1a0>
  8028e8:	003b683a 	trap	0
  8028ec:	00000c06 	br	802920 <xQueuePeek+0x1a0>
  8028f0:	e13ff817 	ldw	r4,-32(fp)
  8028f4:	0802e900 	call	802e90 <prvUnlockQueue>
  8028f8:	0804e980 	call	804e98 <xTaskResumeAll>
  8028fc:	003faa06 	br	8027a8 <xQueuePeek+0x28>
  802900:	e13ff817 	ldw	r4,-32(fp)
  802904:	0802e900 	call	802e90 <prvUnlockQueue>
  802908:	0804e980 	call	804e98 <xTaskResumeAll>
  80290c:	e13ff817 	ldw	r4,-32(fp)
  802910:	0802f800 	call	802f80 <prvIsQueueEmpty>
  802914:	10000226 	beq	r2,zero,802920 <xQueuePeek+0x1a0>
  802918:	0005883a 	mov	r2,zero
  80291c:	00000106 	br	802924 <xQueuePeek+0x1a4>
  802920:	003fa106 	br	8027a8 <xQueuePeek+0x28>
  802924:	e037883a 	mov	sp,fp
  802928:	dfc00117 	ldw	ra,4(sp)
  80292c:	df000017 	ldw	fp,0(sp)
  802930:	dec00204 	addi	sp,sp,8
  802934:	f800283a 	ret

00802938 <xQueueReceiveFromISR>:
  802938:	defff604 	addi	sp,sp,-40
  80293c:	dfc00915 	stw	ra,36(sp)
  802940:	df000815 	stw	fp,32(sp)
  802944:	df000804 	addi	fp,sp,32
  802948:	e13ffd15 	stw	r4,-12(fp)
  80294c:	e17ffe15 	stw	r5,-8(fp)
  802950:	e1bfff15 	stw	r6,-4(fp)
  802954:	e0bffd17 	ldw	r2,-12(fp)
  802958:	e0bff915 	stw	r2,-28(fp)
  80295c:	e03ffa15 	stw	zero,-24(fp)
  802960:	e0bff917 	ldw	r2,-28(fp)
  802964:	10800e17 	ldw	r2,56(r2)
  802968:	e0bffb15 	stw	r2,-20(fp)
  80296c:	e0bffb17 	ldw	r2,-20(fp)
  802970:	10002326 	beq	r2,zero,802a00 <xQueueReceiveFromISR+0xc8>
  802974:	e0bff917 	ldw	r2,-28(fp)
  802978:	10801103 	ldbu	r2,68(r2)
  80297c:	e0bffc05 	stb	r2,-16(fp)
  802980:	e13ff917 	ldw	r4,-28(fp)
  802984:	e17ffe17 	ldw	r5,-8(fp)
  802988:	0802df80 	call	802df8 <prvCopyDataFromQueue>
  80298c:	e0bffb17 	ldw	r2,-20(fp)
  802990:	10ffffc4 	addi	r3,r2,-1
  802994:	e0bff917 	ldw	r2,-28(fp)
  802998:	10c00e15 	stw	r3,56(r2)
  80299c:	e0bffc07 	ldb	r2,-16(fp)
  8029a0:	10bfffd8 	cmpnei	r2,r2,-1
  8029a4:	10000e1e 	bne	r2,zero,8029e0 <xQueueReceiveFromISR+0xa8>
  8029a8:	e0bff917 	ldw	r2,-28(fp)
  8029ac:	10800417 	ldw	r2,16(r2)
  8029b0:	10001026 	beq	r2,zero,8029f4 <xQueueReceiveFromISR+0xbc>
  8029b4:	e0bff917 	ldw	r2,-28(fp)
  8029b8:	10800404 	addi	r2,r2,16
  8029bc:	1009883a 	mov	r4,r2
  8029c0:	08056940 	call	805694 <xTaskRemoveFromEventList>
  8029c4:	10000b26 	beq	r2,zero,8029f4 <xQueueReceiveFromISR+0xbc>
  8029c8:	e0bfff17 	ldw	r2,-4(fp)
  8029cc:	10000926 	beq	r2,zero,8029f4 <xQueueReceiveFromISR+0xbc>
  8029d0:	e0bfff17 	ldw	r2,-4(fp)
  8029d4:	00c00044 	movi	r3,1
  8029d8:	10c00015 	stw	r3,0(r2)
  8029dc:	00000506 	br	8029f4 <xQueueReceiveFromISR+0xbc>
  8029e0:	e0bffc03 	ldbu	r2,-16(fp)
  8029e4:	10800044 	addi	r2,r2,1
  8029e8:	1007883a 	mov	r3,r2
  8029ec:	e0bff917 	ldw	r2,-28(fp)
  8029f0:	10c01105 	stb	r3,68(r2)
  8029f4:	00800044 	movi	r2,1
  8029f8:	e0bff815 	stw	r2,-32(fp)
  8029fc:	00000106 	br	802a04 <xQueueReceiveFromISR+0xcc>
  802a00:	e03ff815 	stw	zero,-32(fp)
  802a04:	e0bff817 	ldw	r2,-32(fp)
  802a08:	e037883a 	mov	sp,fp
  802a0c:	dfc00117 	ldw	ra,4(sp)
  802a10:	df000017 	ldw	fp,0(sp)
  802a14:	dec00204 	addi	sp,sp,8
  802a18:	f800283a 	ret

00802a1c <xQueuePeekFromISR>:
  802a1c:	defff804 	addi	sp,sp,-32
  802a20:	dfc00715 	stw	ra,28(sp)
  802a24:	df000615 	stw	fp,24(sp)
  802a28:	df000604 	addi	fp,sp,24
  802a2c:	e13ffe15 	stw	r4,-8(fp)
  802a30:	e17fff15 	stw	r5,-4(fp)
  802a34:	e0bffe17 	ldw	r2,-8(fp)
  802a38:	e0bffb15 	stw	r2,-20(fp)
  802a3c:	e03ffc15 	stw	zero,-16(fp)
  802a40:	e0bffb17 	ldw	r2,-20(fp)
  802a44:	10800e17 	ldw	r2,56(r2)
  802a48:	10000c26 	beq	r2,zero,802a7c <xQueuePeekFromISR+0x60>
  802a4c:	e0bffb17 	ldw	r2,-20(fp)
  802a50:	10800317 	ldw	r2,12(r2)
  802a54:	e0bffd15 	stw	r2,-12(fp)
  802a58:	e13ffb17 	ldw	r4,-20(fp)
  802a5c:	e17fff17 	ldw	r5,-4(fp)
  802a60:	0802df80 	call	802df8 <prvCopyDataFromQueue>
  802a64:	e0bffb17 	ldw	r2,-20(fp)
  802a68:	e0fffd17 	ldw	r3,-12(fp)
  802a6c:	10c00315 	stw	r3,12(r2)
  802a70:	00800044 	movi	r2,1
  802a74:	e0bffa15 	stw	r2,-24(fp)
  802a78:	00000106 	br	802a80 <xQueuePeekFromISR+0x64>
  802a7c:	e03ffa15 	stw	zero,-24(fp)
  802a80:	e0bffa17 	ldw	r2,-24(fp)
  802a84:	e037883a 	mov	sp,fp
  802a88:	dfc00117 	ldw	ra,4(sp)
  802a8c:	df000017 	ldw	fp,0(sp)
  802a90:	dec00204 	addi	sp,sp,8
  802a94:	f800283a 	ret

00802a98 <uxQueueMessagesWaiting>:
  802a98:	defffc04 	addi	sp,sp,-16
  802a9c:	dfc00315 	stw	ra,12(sp)
  802aa0:	df000215 	stw	fp,8(sp)
  802aa4:	df000204 	addi	fp,sp,8
  802aa8:	e13fff15 	stw	r4,-4(fp)
  802aac:	08063880 	call	806388 <vTaskEnterCritical>
  802ab0:	e0bfff17 	ldw	r2,-4(fp)
  802ab4:	10800e17 	ldw	r2,56(r2)
  802ab8:	e0bffe15 	stw	r2,-8(fp)
  802abc:	08063d80 	call	8063d8 <vTaskExitCritical>
  802ac0:	e0bffe17 	ldw	r2,-8(fp)
  802ac4:	e037883a 	mov	sp,fp
  802ac8:	dfc00117 	ldw	ra,4(sp)
  802acc:	df000017 	ldw	fp,0(sp)
  802ad0:	dec00204 	addi	sp,sp,8
  802ad4:	f800283a 	ret

00802ad8 <uxQueueSpacesAvailable>:
  802ad8:	defffb04 	addi	sp,sp,-20
  802adc:	dfc00415 	stw	ra,16(sp)
  802ae0:	df000315 	stw	fp,12(sp)
  802ae4:	df000304 	addi	fp,sp,12
  802ae8:	e13fff15 	stw	r4,-4(fp)
  802aec:	e0bfff17 	ldw	r2,-4(fp)
  802af0:	e0bffd15 	stw	r2,-12(fp)
  802af4:	08063880 	call	806388 <vTaskEnterCritical>
  802af8:	e0bffd17 	ldw	r2,-12(fp)
  802afc:	10c00f17 	ldw	r3,60(r2)
  802b00:	e0bffd17 	ldw	r2,-12(fp)
  802b04:	10800e17 	ldw	r2,56(r2)
  802b08:	1885c83a 	sub	r2,r3,r2
  802b0c:	e0bffe15 	stw	r2,-8(fp)
  802b10:	08063d80 	call	8063d8 <vTaskExitCritical>
  802b14:	e0bffe17 	ldw	r2,-8(fp)
  802b18:	e037883a 	mov	sp,fp
  802b1c:	dfc00117 	ldw	ra,4(sp)
  802b20:	df000017 	ldw	fp,0(sp)
  802b24:	dec00204 	addi	sp,sp,8
  802b28:	f800283a 	ret

00802b2c <uxQueueMessagesWaitingFromISR>:
  802b2c:	defffc04 	addi	sp,sp,-16
  802b30:	df000315 	stw	fp,12(sp)
  802b34:	df000304 	addi	fp,sp,12
  802b38:	e13fff15 	stw	r4,-4(fp)
  802b3c:	e0bfff17 	ldw	r2,-4(fp)
  802b40:	e0bffd15 	stw	r2,-12(fp)
  802b44:	e0bffd17 	ldw	r2,-12(fp)
  802b48:	10800e17 	ldw	r2,56(r2)
  802b4c:	e0bffe15 	stw	r2,-8(fp)
  802b50:	e0bffe17 	ldw	r2,-8(fp)
  802b54:	e037883a 	mov	sp,fp
  802b58:	df000017 	ldw	fp,0(sp)
  802b5c:	dec00104 	addi	sp,sp,4
  802b60:	f800283a 	ret

00802b64 <vQueueDelete>:
  802b64:	defffc04 	addi	sp,sp,-16
  802b68:	dfc00315 	stw	ra,12(sp)
  802b6c:	df000215 	stw	fp,8(sp)
  802b70:	df000204 	addi	fp,sp,8
  802b74:	e13fff15 	stw	r4,-4(fp)
  802b78:	e0bfff17 	ldw	r2,-4(fp)
  802b7c:	e0bffe15 	stw	r2,-8(fp)
  802b80:	e13ffe17 	ldw	r4,-8(fp)
  802b84:	08186f00 	call	8186f0 <vPortFree>
  802b88:	e037883a 	mov	sp,fp
  802b8c:	dfc00117 	ldw	ra,4(sp)
  802b90:	df000017 	ldw	fp,0(sp)
  802b94:	dec00204 	addi	sp,sp,8
  802b98:	f800283a 	ret

00802b9c <uxQueueGetQueueNumber>:
  802b9c:	defffe04 	addi	sp,sp,-8
  802ba0:	df000115 	stw	fp,4(sp)
  802ba4:	df000104 	addi	fp,sp,4
  802ba8:	e13fff15 	stw	r4,-4(fp)
  802bac:	e0bfff17 	ldw	r2,-4(fp)
  802bb0:	10801217 	ldw	r2,72(r2)
  802bb4:	e037883a 	mov	sp,fp
  802bb8:	df000017 	ldw	fp,0(sp)
  802bbc:	dec00104 	addi	sp,sp,4
  802bc0:	f800283a 	ret

00802bc4 <vQueueSetQueueNumber>:
  802bc4:	defffd04 	addi	sp,sp,-12
  802bc8:	df000215 	stw	fp,8(sp)
  802bcc:	df000204 	addi	fp,sp,8
  802bd0:	e13ffe15 	stw	r4,-8(fp)
  802bd4:	e17fff15 	stw	r5,-4(fp)
  802bd8:	e0bffe17 	ldw	r2,-8(fp)
  802bdc:	e0ffff17 	ldw	r3,-4(fp)
  802be0:	10c01215 	stw	r3,72(r2)
  802be4:	e037883a 	mov	sp,fp
  802be8:	df000017 	ldw	fp,0(sp)
  802bec:	dec00104 	addi	sp,sp,4
  802bf0:	f800283a 	ret

00802bf4 <ucQueueGetQueueType>:
  802bf4:	defffe04 	addi	sp,sp,-8
  802bf8:	df000115 	stw	fp,4(sp)
  802bfc:	df000104 	addi	fp,sp,4
  802c00:	e13fff15 	stw	r4,-4(fp)
  802c04:	e0bfff17 	ldw	r2,-4(fp)
  802c08:	10801303 	ldbu	r2,76(r2)
  802c0c:	e037883a 	mov	sp,fp
  802c10:	df000017 	ldw	fp,0(sp)
  802c14:	dec00104 	addi	sp,sp,4
  802c18:	f800283a 	ret

00802c1c <prvGetDisinheritPriorityAfterTimeout>:
  802c1c:	defffd04 	addi	sp,sp,-12
  802c20:	df000215 	stw	fp,8(sp)
  802c24:	df000204 	addi	fp,sp,8
  802c28:	e13fff15 	stw	r4,-4(fp)
  802c2c:	e0bfff17 	ldw	r2,-4(fp)
  802c30:	10800917 	ldw	r2,36(r2)
  802c34:	10000726 	beq	r2,zero,802c54 <prvGetDisinheritPriorityAfterTimeout+0x38>
  802c38:	e0bfff17 	ldw	r2,-4(fp)
  802c3c:	10800c17 	ldw	r2,48(r2)
  802c40:	10800017 	ldw	r2,0(r2)
  802c44:	00c00244 	movi	r3,9
  802c48:	1885c83a 	sub	r2,r3,r2
  802c4c:	e0bffe15 	stw	r2,-8(fp)
  802c50:	00000106 	br	802c58 <prvGetDisinheritPriorityAfterTimeout+0x3c>
  802c54:	e03ffe15 	stw	zero,-8(fp)
  802c58:	e0bffe17 	ldw	r2,-8(fp)
  802c5c:	e037883a 	mov	sp,fp
  802c60:	df000017 	ldw	fp,0(sp)
  802c64:	dec00104 	addi	sp,sp,4
  802c68:	f800283a 	ret

00802c6c <prvCopyDataToQueue>:
  802c6c:	defff904 	addi	sp,sp,-28
  802c70:	dfc00615 	stw	ra,24(sp)
  802c74:	df000515 	stw	fp,20(sp)
  802c78:	df000504 	addi	fp,sp,20
  802c7c:	e13ffd15 	stw	r4,-12(fp)
  802c80:	e17ffe15 	stw	r5,-8(fp)
  802c84:	e1bfff15 	stw	r6,-4(fp)
  802c88:	e03ffb15 	stw	zero,-20(fp)
  802c8c:	e0bffd17 	ldw	r2,-12(fp)
  802c90:	10800e17 	ldw	r2,56(r2)
  802c94:	e0bffc15 	stw	r2,-16(fp)
  802c98:	e0bffd17 	ldw	r2,-12(fp)
  802c9c:	10801017 	ldw	r2,64(r2)
  802ca0:	10000b1e 	bne	r2,zero,802cd0 <prvCopyDataToQueue+0x64>
  802ca4:	e0bffd17 	ldw	r2,-12(fp)
  802ca8:	10800017 	ldw	r2,0(r2)
  802cac:	1000481e 	bne	r2,zero,802dd0 <prvCopyDataToQueue+0x164>
  802cb0:	e0bffd17 	ldw	r2,-12(fp)
  802cb4:	10800217 	ldw	r2,8(r2)
  802cb8:	1009883a 	mov	r4,r2
  802cbc:	08061280 	call	806128 <xTaskPriorityDisinherit>
  802cc0:	e0bffb15 	stw	r2,-20(fp)
  802cc4:	e0bffd17 	ldw	r2,-12(fp)
  802cc8:	10000215 	stw	zero,8(r2)
  802ccc:	00004006 	br	802dd0 <prvCopyDataToQueue+0x164>
  802cd0:	e0bfff17 	ldw	r2,-4(fp)
  802cd4:	1000191e 	bne	r2,zero,802d3c <prvCopyDataToQueue+0xd0>
  802cd8:	e0bffd17 	ldw	r2,-12(fp)
  802cdc:	10c00117 	ldw	r3,4(r2)
  802ce0:	e0bffd17 	ldw	r2,-12(fp)
  802ce4:	10801017 	ldw	r2,64(r2)
  802ce8:	1809883a 	mov	r4,r3
  802cec:	e17ffe17 	ldw	r5,-8(fp)
  802cf0:	100d883a 	mov	r6,r2
  802cf4:	08191ec0 	call	8191ec <memcpy>
  802cf8:	e0bffd17 	ldw	r2,-12(fp)
  802cfc:	10c00117 	ldw	r3,4(r2)
  802d00:	e0bffd17 	ldw	r2,-12(fp)
  802d04:	10801017 	ldw	r2,64(r2)
  802d08:	1887883a 	add	r3,r3,r2
  802d0c:	e0bffd17 	ldw	r2,-12(fp)
  802d10:	10c00115 	stw	r3,4(r2)
  802d14:	e0bffd17 	ldw	r2,-12(fp)
  802d18:	10c00117 	ldw	r3,4(r2)
  802d1c:	e0bffd17 	ldw	r2,-12(fp)
  802d20:	10800217 	ldw	r2,8(r2)
  802d24:	18802a36 	bltu	r3,r2,802dd0 <prvCopyDataToQueue+0x164>
  802d28:	e0bffd17 	ldw	r2,-12(fp)
  802d2c:	10c00017 	ldw	r3,0(r2)
  802d30:	e0bffd17 	ldw	r2,-12(fp)
  802d34:	10c00115 	stw	r3,4(r2)
  802d38:	00002506 	br	802dd0 <prvCopyDataToQueue+0x164>
  802d3c:	e0bffd17 	ldw	r2,-12(fp)
  802d40:	10c00317 	ldw	r3,12(r2)
  802d44:	e0bffd17 	ldw	r2,-12(fp)
  802d48:	10801017 	ldw	r2,64(r2)
  802d4c:	1809883a 	mov	r4,r3
  802d50:	e17ffe17 	ldw	r5,-8(fp)
  802d54:	100d883a 	mov	r6,r2
  802d58:	08191ec0 	call	8191ec <memcpy>
  802d5c:	e0bffd17 	ldw	r2,-12(fp)
  802d60:	10c00317 	ldw	r3,12(r2)
  802d64:	e0bffd17 	ldw	r2,-12(fp)
  802d68:	10801017 	ldw	r2,64(r2)
  802d6c:	0085c83a 	sub	r2,zero,r2
  802d70:	1887883a 	add	r3,r3,r2
  802d74:	e0bffd17 	ldw	r2,-12(fp)
  802d78:	10c00315 	stw	r3,12(r2)
  802d7c:	e0bffd17 	ldw	r2,-12(fp)
  802d80:	10c00317 	ldw	r3,12(r2)
  802d84:	e0bffd17 	ldw	r2,-12(fp)
  802d88:	10800017 	ldw	r2,0(r2)
  802d8c:	1880082e 	bgeu	r3,r2,802db0 <prvCopyDataToQueue+0x144>
  802d90:	e0bffd17 	ldw	r2,-12(fp)
  802d94:	10c00217 	ldw	r3,8(r2)
  802d98:	e0bffd17 	ldw	r2,-12(fp)
  802d9c:	10801017 	ldw	r2,64(r2)
  802da0:	0085c83a 	sub	r2,zero,r2
  802da4:	1887883a 	add	r3,r3,r2
  802da8:	e0bffd17 	ldw	r2,-12(fp)
  802dac:	10c00315 	stw	r3,12(r2)
  802db0:	e0bfff17 	ldw	r2,-4(fp)
  802db4:	10800098 	cmpnei	r2,r2,2
  802db8:	1000051e 	bne	r2,zero,802dd0 <prvCopyDataToQueue+0x164>
  802dbc:	e0bffc17 	ldw	r2,-16(fp)
  802dc0:	10000326 	beq	r2,zero,802dd0 <prvCopyDataToQueue+0x164>
  802dc4:	e0bffc17 	ldw	r2,-16(fp)
  802dc8:	10bfffc4 	addi	r2,r2,-1
  802dcc:	e0bffc15 	stw	r2,-16(fp)
  802dd0:	e0bffc17 	ldw	r2,-16(fp)
  802dd4:	10c00044 	addi	r3,r2,1
  802dd8:	e0bffd17 	ldw	r2,-12(fp)
  802ddc:	10c00e15 	stw	r3,56(r2)
  802de0:	e0bffb17 	ldw	r2,-20(fp)
  802de4:	e037883a 	mov	sp,fp
  802de8:	dfc00117 	ldw	ra,4(sp)
  802dec:	df000017 	ldw	fp,0(sp)
  802df0:	dec00204 	addi	sp,sp,8
  802df4:	f800283a 	ret

00802df8 <prvCopyDataFromQueue>:
  802df8:	defffc04 	addi	sp,sp,-16
  802dfc:	dfc00315 	stw	ra,12(sp)
  802e00:	df000215 	stw	fp,8(sp)
  802e04:	df000204 	addi	fp,sp,8
  802e08:	e13ffe15 	stw	r4,-8(fp)
  802e0c:	e17fff15 	stw	r5,-4(fp)
  802e10:	e0bffe17 	ldw	r2,-8(fp)
  802e14:	10801017 	ldw	r2,64(r2)
  802e18:	10001826 	beq	r2,zero,802e7c <prvCopyDataFromQueue+0x84>
  802e1c:	e0bffe17 	ldw	r2,-8(fp)
  802e20:	10c00317 	ldw	r3,12(r2)
  802e24:	e0bffe17 	ldw	r2,-8(fp)
  802e28:	10801017 	ldw	r2,64(r2)
  802e2c:	1887883a 	add	r3,r3,r2
  802e30:	e0bffe17 	ldw	r2,-8(fp)
  802e34:	10c00315 	stw	r3,12(r2)
  802e38:	e0bffe17 	ldw	r2,-8(fp)
  802e3c:	10c00317 	ldw	r3,12(r2)
  802e40:	e0bffe17 	ldw	r2,-8(fp)
  802e44:	10800217 	ldw	r2,8(r2)
  802e48:	18800436 	bltu	r3,r2,802e5c <prvCopyDataFromQueue+0x64>
  802e4c:	e0bffe17 	ldw	r2,-8(fp)
  802e50:	10c00017 	ldw	r3,0(r2)
  802e54:	e0bffe17 	ldw	r2,-8(fp)
  802e58:	10c00315 	stw	r3,12(r2)
  802e5c:	e0bffe17 	ldw	r2,-8(fp)
  802e60:	10c00317 	ldw	r3,12(r2)
  802e64:	e0bffe17 	ldw	r2,-8(fp)
  802e68:	10801017 	ldw	r2,64(r2)
  802e6c:	e13fff17 	ldw	r4,-4(fp)
  802e70:	180b883a 	mov	r5,r3
  802e74:	100d883a 	mov	r6,r2
  802e78:	08191ec0 	call	8191ec <memcpy>
  802e7c:	e037883a 	mov	sp,fp
  802e80:	dfc00117 	ldw	ra,4(sp)
  802e84:	df000017 	ldw	fp,0(sp)
  802e88:	dec00204 	addi	sp,sp,8
  802e8c:	f800283a 	ret

00802e90 <prvUnlockQueue>:
  802e90:	defffc04 	addi	sp,sp,-16
  802e94:	dfc00315 	stw	ra,12(sp)
  802e98:	df000215 	stw	fp,8(sp)
  802e9c:	df000204 	addi	fp,sp,8
  802ea0:	e13fff15 	stw	r4,-4(fp)
  802ea4:	08063880 	call	806388 <vTaskEnterCritical>
  802ea8:	e0bfff17 	ldw	r2,-4(fp)
  802eac:	10801143 	ldbu	r2,69(r2)
  802eb0:	e0bffe05 	stb	r2,-8(fp)
  802eb4:	00000e06 	br	802ef0 <prvUnlockQueue+0x60>
  802eb8:	e0bfff17 	ldw	r2,-4(fp)
  802ebc:	10800917 	ldw	r2,36(r2)
  802ec0:	10000726 	beq	r2,zero,802ee0 <prvUnlockQueue+0x50>
  802ec4:	e0bfff17 	ldw	r2,-4(fp)
  802ec8:	10800904 	addi	r2,r2,36
  802ecc:	1009883a 	mov	r4,r2
  802ed0:	08056940 	call	805694 <xTaskRemoveFromEventList>
  802ed4:	10000326 	beq	r2,zero,802ee4 <prvUnlockQueue+0x54>
  802ed8:	08059cc0 	call	8059cc <vTaskMissedYield>
  802edc:	00000106 	br	802ee4 <prvUnlockQueue+0x54>
  802ee0:	00000506 	br	802ef8 <prvUnlockQueue+0x68>
  802ee4:	e0bffe03 	ldbu	r2,-8(fp)
  802ee8:	10bfffc4 	addi	r2,r2,-1
  802eec:	e0bffe05 	stb	r2,-8(fp)
  802ef0:	e0bffe07 	ldb	r2,-8(fp)
  802ef4:	00bff016 	blt	zero,r2,802eb8 <prvUnlockQueue+0x28>
  802ef8:	e0bfff17 	ldw	r2,-4(fp)
  802efc:	00ffffc4 	movi	r3,-1
  802f00:	10c01145 	stb	r3,69(r2)
  802f04:	08063d80 	call	8063d8 <vTaskExitCritical>
  802f08:	08063880 	call	806388 <vTaskEnterCritical>
  802f0c:	e0bfff17 	ldw	r2,-4(fp)
  802f10:	10801103 	ldbu	r2,68(r2)
  802f14:	e0bffe45 	stb	r2,-7(fp)
  802f18:	00000e06 	br	802f54 <prvUnlockQueue+0xc4>
  802f1c:	e0bfff17 	ldw	r2,-4(fp)
  802f20:	10800417 	ldw	r2,16(r2)
  802f24:	10000a26 	beq	r2,zero,802f50 <prvUnlockQueue+0xc0>
  802f28:	e0bfff17 	ldw	r2,-4(fp)
  802f2c:	10800404 	addi	r2,r2,16
  802f30:	1009883a 	mov	r4,r2
  802f34:	08056940 	call	805694 <xTaskRemoveFromEventList>
  802f38:	10000126 	beq	r2,zero,802f40 <prvUnlockQueue+0xb0>
  802f3c:	08059cc0 	call	8059cc <vTaskMissedYield>
  802f40:	e0bffe43 	ldbu	r2,-7(fp)
  802f44:	10bfffc4 	addi	r2,r2,-1
  802f48:	e0bffe45 	stb	r2,-7(fp)
  802f4c:	00000106 	br	802f54 <prvUnlockQueue+0xc4>
  802f50:	00000206 	br	802f5c <prvUnlockQueue+0xcc>
  802f54:	e0bffe47 	ldb	r2,-7(fp)
  802f58:	00bff016 	blt	zero,r2,802f1c <prvUnlockQueue+0x8c>
  802f5c:	e0bfff17 	ldw	r2,-4(fp)
  802f60:	00ffffc4 	movi	r3,-1
  802f64:	10c01105 	stb	r3,68(r2)
  802f68:	08063d80 	call	8063d8 <vTaskExitCritical>
  802f6c:	e037883a 	mov	sp,fp
  802f70:	dfc00117 	ldw	ra,4(sp)
  802f74:	df000017 	ldw	fp,0(sp)
  802f78:	dec00204 	addi	sp,sp,8
  802f7c:	f800283a 	ret

00802f80 <prvIsQueueEmpty>:
  802f80:	defffc04 	addi	sp,sp,-16
  802f84:	dfc00315 	stw	ra,12(sp)
  802f88:	df000215 	stw	fp,8(sp)
  802f8c:	df000204 	addi	fp,sp,8
  802f90:	e13fff15 	stw	r4,-4(fp)
  802f94:	08063880 	call	806388 <vTaskEnterCritical>
  802f98:	e0bfff17 	ldw	r2,-4(fp)
  802f9c:	10800e17 	ldw	r2,56(r2)
  802fa0:	1000031e 	bne	r2,zero,802fb0 <prvIsQueueEmpty+0x30>
  802fa4:	00800044 	movi	r2,1
  802fa8:	e0bffe15 	stw	r2,-8(fp)
  802fac:	00000106 	br	802fb4 <prvIsQueueEmpty+0x34>
  802fb0:	e03ffe15 	stw	zero,-8(fp)
  802fb4:	08063d80 	call	8063d8 <vTaskExitCritical>
  802fb8:	e0bffe17 	ldw	r2,-8(fp)
  802fbc:	e037883a 	mov	sp,fp
  802fc0:	dfc00117 	ldw	ra,4(sp)
  802fc4:	df000017 	ldw	fp,0(sp)
  802fc8:	dec00204 	addi	sp,sp,8
  802fcc:	f800283a 	ret

00802fd0 <xQueueIsQueueEmptyFromISR>:
  802fd0:	defffc04 	addi	sp,sp,-16
  802fd4:	df000315 	stw	fp,12(sp)
  802fd8:	df000304 	addi	fp,sp,12
  802fdc:	e13fff15 	stw	r4,-4(fp)
  802fe0:	e0bfff17 	ldw	r2,-4(fp)
  802fe4:	e0bffe15 	stw	r2,-8(fp)
  802fe8:	e0bffe17 	ldw	r2,-8(fp)
  802fec:	10800e17 	ldw	r2,56(r2)
  802ff0:	1000031e 	bne	r2,zero,803000 <xQueueIsQueueEmptyFromISR+0x30>
  802ff4:	00800044 	movi	r2,1
  802ff8:	e0bffd15 	stw	r2,-12(fp)
  802ffc:	00000106 	br	803004 <xQueueIsQueueEmptyFromISR+0x34>
  803000:	e03ffd15 	stw	zero,-12(fp)
  803004:	e0bffd17 	ldw	r2,-12(fp)
  803008:	e037883a 	mov	sp,fp
  80300c:	df000017 	ldw	fp,0(sp)
  803010:	dec00104 	addi	sp,sp,4
  803014:	f800283a 	ret

00803018 <prvIsQueueFull>:
  803018:	defffc04 	addi	sp,sp,-16
  80301c:	dfc00315 	stw	ra,12(sp)
  803020:	df000215 	stw	fp,8(sp)
  803024:	df000204 	addi	fp,sp,8
  803028:	e13fff15 	stw	r4,-4(fp)
  80302c:	08063880 	call	806388 <vTaskEnterCritical>
  803030:	e0bfff17 	ldw	r2,-4(fp)
  803034:	10c00e17 	ldw	r3,56(r2)
  803038:	e0bfff17 	ldw	r2,-4(fp)
  80303c:	10800f17 	ldw	r2,60(r2)
  803040:	1880031e 	bne	r3,r2,803050 <prvIsQueueFull+0x38>
  803044:	00800044 	movi	r2,1
  803048:	e0bffe15 	stw	r2,-8(fp)
  80304c:	00000106 	br	803054 <prvIsQueueFull+0x3c>
  803050:	e03ffe15 	stw	zero,-8(fp)
  803054:	08063d80 	call	8063d8 <vTaskExitCritical>
  803058:	e0bffe17 	ldw	r2,-8(fp)
  80305c:	e037883a 	mov	sp,fp
  803060:	dfc00117 	ldw	ra,4(sp)
  803064:	df000017 	ldw	fp,0(sp)
  803068:	dec00204 	addi	sp,sp,8
  80306c:	f800283a 	ret

00803070 <xQueueIsQueueFullFromISR>:
  803070:	defffc04 	addi	sp,sp,-16
  803074:	df000315 	stw	fp,12(sp)
  803078:	df000304 	addi	fp,sp,12
  80307c:	e13fff15 	stw	r4,-4(fp)
  803080:	e0bfff17 	ldw	r2,-4(fp)
  803084:	e0bffe15 	stw	r2,-8(fp)
  803088:	e0bffe17 	ldw	r2,-8(fp)
  80308c:	10c00e17 	ldw	r3,56(r2)
  803090:	e0bffe17 	ldw	r2,-8(fp)
  803094:	10800f17 	ldw	r2,60(r2)
  803098:	1880031e 	bne	r3,r2,8030a8 <xQueueIsQueueFullFromISR+0x38>
  80309c:	00800044 	movi	r2,1
  8030a0:	e0bffd15 	stw	r2,-12(fp)
  8030a4:	00000106 	br	8030ac <xQueueIsQueueFullFromISR+0x3c>
  8030a8:	e03ffd15 	stw	zero,-12(fp)
  8030ac:	e0bffd17 	ldw	r2,-12(fp)
  8030b0:	e037883a 	mov	sp,fp
  8030b4:	df000017 	ldw	fp,0(sp)
  8030b8:	dec00104 	addi	sp,sp,4
  8030bc:	f800283a 	ret

008030c0 <xStreamBufferGenericCreate>:
  8030c0:	defff804 	addi	sp,sp,-32
  8030c4:	dfc00715 	stw	ra,28(sp)
  8030c8:	df000615 	stw	fp,24(sp)
  8030cc:	df000604 	addi	fp,sp,24
  8030d0:	e13ffd15 	stw	r4,-12(fp)
  8030d4:	e17ffe15 	stw	r5,-8(fp)
  8030d8:	e1bfff15 	stw	r6,-4(fp)
  8030dc:	e0bfff17 	ldw	r2,-4(fp)
  8030e0:	10800058 	cmpnei	r2,r2,1
  8030e4:	1000031e 	bne	r2,zero,8030f4 <xStreamBufferGenericCreate+0x34>
  8030e8:	00800044 	movi	r2,1
  8030ec:	e0bffc05 	stb	r2,-16(fp)
  8030f0:	00000106 	br	8030f8 <xStreamBufferGenericCreate+0x38>
  8030f4:	e03ffc05 	stb	zero,-16(fp)
  8030f8:	e0bffe17 	ldw	r2,-8(fp)
  8030fc:	1000021e 	bne	r2,zero,803108 <xStreamBufferGenericCreate+0x48>
  803100:	00800044 	movi	r2,1
  803104:	e0bffe15 	stw	r2,-8(fp)
  803108:	e0bffd17 	ldw	r2,-12(fp)
  80310c:	10800944 	addi	r2,r2,37
  803110:	e0fffd17 	ldw	r3,-12(fp)
  803114:	1880092e 	bgeu	r3,r2,80313c <xStreamBufferGenericCreate+0x7c>
  803118:	e0bffd17 	ldw	r2,-12(fp)
  80311c:	10800044 	addi	r2,r2,1
  803120:	e0bffd15 	stw	r2,-12(fp)
  803124:	e0bffd17 	ldw	r2,-12(fp)
  803128:	10800904 	addi	r2,r2,36
  80312c:	1009883a 	mov	r4,r2
  803130:	08184e40 	call	8184e4 <pvPortMalloc>
  803134:	e0bffb15 	stw	r2,-20(fp)
  803138:	00000106 	br	803140 <xStreamBufferGenericCreate+0x80>
  80313c:	e03ffb15 	stw	zero,-20(fp)
  803140:	e0bffb17 	ldw	r2,-20(fp)
  803144:	10000926 	beq	r2,zero,80316c <xStreamBufferGenericCreate+0xac>
  803148:	e0bffb17 	ldw	r2,-20(fp)
  80314c:	10c00904 	addi	r3,r2,36
  803150:	e0bffc03 	ldbu	r2,-16(fp)
  803154:	d8800015 	stw	r2,0(sp)
  803158:	e13ffb17 	ldw	r4,-20(fp)
  80315c:	180b883a 	mov	r5,r3
  803160:	e1bffd17 	ldw	r6,-12(fp)
  803164:	e1fffe17 	ldw	r7,-8(fp)
  803168:	0803f780 	call	803f78 <prvInitialiseNewStreamBuffer>
  80316c:	e0bffb17 	ldw	r2,-20(fp)
  803170:	e037883a 	mov	sp,fp
  803174:	dfc00117 	ldw	ra,4(sp)
  803178:	df000017 	ldw	fp,0(sp)
  80317c:	dec00204 	addi	sp,sp,8
  803180:	f800283a 	ret

00803184 <vStreamBufferDelete>:
  803184:	defffc04 	addi	sp,sp,-16
  803188:	dfc00315 	stw	ra,12(sp)
  80318c:	df000215 	stw	fp,8(sp)
  803190:	df000204 	addi	fp,sp,8
  803194:	e13fff15 	stw	r4,-4(fp)
  803198:	e0bfff17 	ldw	r2,-4(fp)
  80319c:	e0bffe15 	stw	r2,-8(fp)
  8031a0:	e0bffe17 	ldw	r2,-8(fp)
  8031a4:	10800703 	ldbu	r2,28(r2)
  8031a8:	10803fcc 	andi	r2,r2,255
  8031ac:	1080008c 	andi	r2,r2,2
  8031b0:	1000031e 	bne	r2,zero,8031c0 <vStreamBufferDelete+0x3c>
  8031b4:	e13ffe17 	ldw	r4,-8(fp)
  8031b8:	08186f00 	call	8186f0 <vPortFree>
  8031bc:	00000406 	br	8031d0 <vStreamBufferDelete+0x4c>
  8031c0:	e13ffe17 	ldw	r4,-8(fp)
  8031c4:	000b883a 	mov	r5,zero
  8031c8:	01800904 	movi	r6,36
  8031cc:	08194800 	call	819480 <memset>
  8031d0:	e037883a 	mov	sp,fp
  8031d4:	dfc00117 	ldw	ra,4(sp)
  8031d8:	df000017 	ldw	fp,0(sp)
  8031dc:	dec00204 	addi	sp,sp,8
  8031e0:	f800283a 	ret

008031e4 <xStreamBufferReset>:
  8031e4:	defff904 	addi	sp,sp,-28
  8031e8:	dfc00615 	stw	ra,24(sp)
  8031ec:	df000515 	stw	fp,20(sp)
  8031f0:	df000504 	addi	fp,sp,20
  8031f4:	e13fff15 	stw	r4,-4(fp)
  8031f8:	e0bfff17 	ldw	r2,-4(fp)
  8031fc:	e0bffd15 	stw	r2,-12(fp)
  803200:	e03ffc15 	stw	zero,-16(fp)
  803204:	e0bffd17 	ldw	r2,-12(fp)
  803208:	10800817 	ldw	r2,32(r2)
  80320c:	e0bffe15 	stw	r2,-8(fp)
  803210:	08063880 	call	806388 <vTaskEnterCritical>
  803214:	e0bffd17 	ldw	r2,-12(fp)
  803218:	10800417 	ldw	r2,16(r2)
  80321c:	1000151e 	bne	r2,zero,803274 <xStreamBufferReset+0x90>
  803220:	e0bffd17 	ldw	r2,-12(fp)
  803224:	10800517 	ldw	r2,20(r2)
  803228:	1000121e 	bne	r2,zero,803274 <xStreamBufferReset+0x90>
  80322c:	e0bffd17 	ldw	r2,-12(fp)
  803230:	11400617 	ldw	r5,24(r2)
  803234:	e0bffd17 	ldw	r2,-12(fp)
  803238:	11800217 	ldw	r6,8(r2)
  80323c:	e0bffd17 	ldw	r2,-12(fp)
  803240:	10c00317 	ldw	r3,12(r2)
  803244:	e0bffd17 	ldw	r2,-12(fp)
  803248:	10800703 	ldbu	r2,28(r2)
  80324c:	10803fcc 	andi	r2,r2,255
  803250:	d8800015 	stw	r2,0(sp)
  803254:	e13ffd17 	ldw	r4,-12(fp)
  803258:	180f883a 	mov	r7,r3
  80325c:	0803f780 	call	803f78 <prvInitialiseNewStreamBuffer>
  803260:	00800044 	movi	r2,1
  803264:	e0bffc15 	stw	r2,-16(fp)
  803268:	e0bffd17 	ldw	r2,-12(fp)
  80326c:	e0fffe17 	ldw	r3,-8(fp)
  803270:	10c00815 	stw	r3,32(r2)
  803274:	08063d80 	call	8063d8 <vTaskExitCritical>
  803278:	e0bffc17 	ldw	r2,-16(fp)
  80327c:	e037883a 	mov	sp,fp
  803280:	dfc00117 	ldw	ra,4(sp)
  803284:	df000017 	ldw	fp,0(sp)
  803288:	dec00204 	addi	sp,sp,8
  80328c:	f800283a 	ret

00803290 <xStreamBufferSetTriggerLevel>:
  803290:	defffb04 	addi	sp,sp,-20
  803294:	df000415 	stw	fp,16(sp)
  803298:	df000404 	addi	fp,sp,16
  80329c:	e13ffe15 	stw	r4,-8(fp)
  8032a0:	e17fff15 	stw	r5,-4(fp)
  8032a4:	e0bffe17 	ldw	r2,-8(fp)
  8032a8:	e0bffd15 	stw	r2,-12(fp)
  8032ac:	e0bfff17 	ldw	r2,-4(fp)
  8032b0:	1000021e 	bne	r2,zero,8032bc <xStreamBufferSetTriggerLevel+0x2c>
  8032b4:	00800044 	movi	r2,1
  8032b8:	e0bfff15 	stw	r2,-4(fp)
  8032bc:	e0bffd17 	ldw	r2,-12(fp)
  8032c0:	10c00217 	ldw	r3,8(r2)
  8032c4:	e0bfff17 	ldw	r2,-4(fp)
  8032c8:	18800636 	bltu	r3,r2,8032e4 <xStreamBufferSetTriggerLevel+0x54>
  8032cc:	e0bffd17 	ldw	r2,-12(fp)
  8032d0:	e0ffff17 	ldw	r3,-4(fp)
  8032d4:	10c00315 	stw	r3,12(r2)
  8032d8:	00800044 	movi	r2,1
  8032dc:	e0bffc15 	stw	r2,-16(fp)
  8032e0:	00000106 	br	8032e8 <xStreamBufferSetTriggerLevel+0x58>
  8032e4:	e03ffc15 	stw	zero,-16(fp)
  8032e8:	e0bffc17 	ldw	r2,-16(fp)
  8032ec:	e037883a 	mov	sp,fp
  8032f0:	df000017 	ldw	fp,0(sp)
  8032f4:	dec00104 	addi	sp,sp,4
  8032f8:	f800283a 	ret

008032fc <xStreamBufferSpacesAvailable>:
  8032fc:	defffc04 	addi	sp,sp,-16
  803300:	df000315 	stw	fp,12(sp)
  803304:	df000304 	addi	fp,sp,12
  803308:	e13fff15 	stw	r4,-4(fp)
  80330c:	e0bfff17 	ldw	r2,-4(fp)
  803310:	e0bffe15 	stw	r2,-8(fp)
  803314:	e0bffe17 	ldw	r2,-8(fp)
  803318:	10c00217 	ldw	r3,8(r2)
  80331c:	e0bffe17 	ldw	r2,-8(fp)
  803320:	10800017 	ldw	r2,0(r2)
  803324:	1885883a 	add	r2,r3,r2
  803328:	e0bffd15 	stw	r2,-12(fp)
  80332c:	e0bffe17 	ldw	r2,-8(fp)
  803330:	10800117 	ldw	r2,4(r2)
  803334:	e0fffd17 	ldw	r3,-12(fp)
  803338:	1885c83a 	sub	r2,r3,r2
  80333c:	e0bffd15 	stw	r2,-12(fp)
  803340:	e0bffd17 	ldw	r2,-12(fp)
  803344:	10bfffc4 	addi	r2,r2,-1
  803348:	e0bffd15 	stw	r2,-12(fp)
  80334c:	e0bffe17 	ldw	r2,-8(fp)
  803350:	10800217 	ldw	r2,8(r2)
  803354:	e0fffd17 	ldw	r3,-12(fp)
  803358:	18800536 	bltu	r3,r2,803370 <xStreamBufferSpacesAvailable+0x74>
  80335c:	e0bffe17 	ldw	r2,-8(fp)
  803360:	10800217 	ldw	r2,8(r2)
  803364:	e0fffd17 	ldw	r3,-12(fp)
  803368:	1885c83a 	sub	r2,r3,r2
  80336c:	e0bffd15 	stw	r2,-12(fp)
  803370:	e0bffd17 	ldw	r2,-12(fp)
  803374:	e037883a 	mov	sp,fp
  803378:	df000017 	ldw	fp,0(sp)
  80337c:	dec00104 	addi	sp,sp,4
  803380:	f800283a 	ret

00803384 <xStreamBufferBytesAvailable>:
  803384:	defffb04 	addi	sp,sp,-20
  803388:	dfc00415 	stw	ra,16(sp)
  80338c:	df000315 	stw	fp,12(sp)
  803390:	df000304 	addi	fp,sp,12
  803394:	e13fff15 	stw	r4,-4(fp)
  803398:	e0bfff17 	ldw	r2,-4(fp)
  80339c:	e0bffd15 	stw	r2,-12(fp)
  8033a0:	e13ffd17 	ldw	r4,-12(fp)
  8033a4:	0803f040 	call	803f04 <prvBytesInBuffer>
  8033a8:	e0bffe15 	stw	r2,-8(fp)
  8033ac:	e0bffe17 	ldw	r2,-8(fp)
  8033b0:	e037883a 	mov	sp,fp
  8033b4:	dfc00117 	ldw	ra,4(sp)
  8033b8:	df000017 	ldw	fp,0(sp)
  8033bc:	dec00204 	addi	sp,sp,8
  8033c0:	f800283a 	ret

008033c4 <xStreamBufferSend>:
  8033c4:	defff204 	addi	sp,sp,-56
  8033c8:	dfc00d15 	stw	ra,52(sp)
  8033cc:	df000c15 	stw	fp,48(sp)
  8033d0:	df000c04 	addi	fp,sp,48
  8033d4:	e13ffc15 	stw	r4,-16(fp)
  8033d8:	e17ffd15 	stw	r5,-12(fp)
  8033dc:	e1bffe15 	stw	r6,-8(fp)
  8033e0:	e1ffff15 	stw	r7,-4(fp)
  8033e4:	e0bffc17 	ldw	r2,-16(fp)
  8033e8:	e0bff715 	stw	r2,-36(fp)
  8033ec:	e03ff515 	stw	zero,-44(fp)
  8033f0:	e0bffe17 	ldw	r2,-8(fp)
  8033f4:	e0bff615 	stw	r2,-40(fp)
  8033f8:	e0bff717 	ldw	r2,-36(fp)
  8033fc:	10800217 	ldw	r2,8(r2)
  803400:	10bfffc4 	addi	r2,r2,-1
  803404:	e0bff815 	stw	r2,-32(fp)
  803408:	e0bff717 	ldw	r2,-36(fp)
  80340c:	10800703 	ldbu	r2,28(r2)
  803410:	10803fcc 	andi	r2,r2,255
  803414:	1080004c 	andi	r2,r2,1
  803418:	10000826 	beq	r2,zero,80343c <xStreamBufferSend+0x78>
  80341c:	e0bff617 	ldw	r2,-40(fp)
  803420:	10800104 	addi	r2,r2,4
  803424:	e0bff615 	stw	r2,-40(fp)
  803428:	e0bff617 	ldw	r2,-40(fp)
  80342c:	e0fff817 	ldw	r3,-32(fp)
  803430:	1880072e 	bgeu	r3,r2,803450 <xStreamBufferSend+0x8c>
  803434:	e03fff15 	stw	zero,-4(fp)
  803438:	00000506 	br	803450 <xStreamBufferSend+0x8c>
  80343c:	e0bff617 	ldw	r2,-40(fp)
  803440:	e0fff817 	ldw	r3,-32(fp)
  803444:	1880022e 	bgeu	r3,r2,803450 <xStreamBufferSend+0x8c>
  803448:	e0bff817 	ldw	r2,-32(fp)
  80344c:	e0bff615 	stw	r2,-40(fp)
  803450:	e0bfff17 	ldw	r2,-4(fp)
  803454:	10002526 	beq	r2,zero,8034ec <xStreamBufferSend+0x128>
  803458:	e0bffa04 	addi	r2,fp,-24
  80345c:	1009883a 	mov	r4,r2
  803460:	08058640 	call	805864 <vTaskSetTimeOutState>
  803464:	08063880 	call	806388 <vTaskEnterCritical>
  803468:	e13ff717 	ldw	r4,-36(fp)
  80346c:	08032fc0 	call	8032fc <xStreamBufferSpacesAvailable>
  803470:	e0bff515 	stw	r2,-44(fp)
  803474:	e0fff517 	ldw	r3,-44(fp)
  803478:	e0bff617 	ldw	r2,-40(fp)
  80347c:	1880082e 	bgeu	r3,r2,8034a0 <xStreamBufferSend+0xdc>
  803480:	0009883a 	mov	r4,zero
  803484:	000b883a 	mov	r5,zero
  803488:	08071e00 	call	8071e0 <xTaskGenericNotifyStateClear>
  80348c:	0805fa00 	call	805fa0 <xTaskGetCurrentTaskHandle>
  803490:	1007883a 	mov	r3,r2
  803494:	e0bff717 	ldw	r2,-36(fp)
  803498:	10c00515 	stw	r3,20(r2)
  80349c:	00000306 	br	8034ac <xStreamBufferSend+0xe8>
  8034a0:	08063d80 	call	8063d8 <vTaskExitCritical>
  8034a4:	0001883a 	nop
  8034a8:	00001006 	br	8034ec <xStreamBufferSend+0x128>
  8034ac:	08063d80 	call	8063d8 <vTaskExitCritical>
  8034b0:	e0bfff17 	ldw	r2,-4(fp)
  8034b4:	d8800015 	stw	r2,0(sp)
  8034b8:	0009883a 	mov	r4,zero
  8034bc:	000b883a 	mov	r5,zero
  8034c0:	000d883a 	mov	r6,zero
  8034c4:	000f883a 	mov	r7,zero
  8034c8:	08069fc0 	call	8069fc <xTaskGenericNotifyWait>
  8034cc:	e0bff717 	ldw	r2,-36(fp)
  8034d0:	10000515 	stw	zero,20(r2)
  8034d4:	e0fffa04 	addi	r3,fp,-24
  8034d8:	e0bfff04 	addi	r2,fp,-4
  8034dc:	1809883a 	mov	r4,r3
  8034e0:	100b883a 	mov	r5,r2
  8034e4:	08058e40 	call	8058e4 <xTaskCheckForTimeOut>
  8034e8:	103fde26 	beq	r2,zero,803464 <xStreamBufferSend+0xa0>
  8034ec:	e0bff517 	ldw	r2,-44(fp)
  8034f0:	1000031e 	bne	r2,zero,803500 <xStreamBufferSend+0x13c>
  8034f4:	e13ff717 	ldw	r4,-36(fp)
  8034f8:	08032fc0 	call	8032fc <xStreamBufferSpacesAvailable>
  8034fc:	e0bff515 	stw	r2,-44(fp)
  803500:	e0bff617 	ldw	r2,-40(fp)
  803504:	d8800015 	stw	r2,0(sp)
  803508:	e13ff717 	ldw	r4,-36(fp)
  80350c:	e17ffd17 	ldw	r5,-12(fp)
  803510:	e1bffe17 	ldw	r6,-8(fp)
  803514:	e1fff517 	ldw	r7,-44(fp)
  803518:	080368c0 	call	80368c <prvWriteMessageToBuffer>
  80351c:	e0bff915 	stw	r2,-28(fp)
  803520:	e0bff917 	ldw	r2,-28(fp)
  803524:	10001526 	beq	r2,zero,80357c <xStreamBufferSend+0x1b8>
  803528:	e13ff717 	ldw	r4,-36(fp)
  80352c:	0803f040 	call	803f04 <prvBytesInBuffer>
  803530:	1007883a 	mov	r3,r2
  803534:	e0bff717 	ldw	r2,-36(fp)
  803538:	10800317 	ldw	r2,12(r2)
  80353c:	18800f36 	bltu	r3,r2,80357c <xStreamBufferSend+0x1b8>
  803540:	0804e700 	call	804e70 <vTaskSuspendAll>
  803544:	e0bff717 	ldw	r2,-36(fp)
  803548:	10800417 	ldw	r2,16(r2)
  80354c:	10000a26 	beq	r2,zero,803578 <xStreamBufferSend+0x1b4>
  803550:	e0bff717 	ldw	r2,-36(fp)
  803554:	10800417 	ldw	r2,16(r2)
  803558:	d8000015 	stw	zero,0(sp)
  80355c:	1009883a 	mov	r4,r2
  803560:	000b883a 	mov	r5,zero
  803564:	000d883a 	mov	r6,zero
  803568:	000f883a 	mov	r7,zero
  80356c:	0806b840 	call	806b84 <xTaskGenericNotify>
  803570:	e0bff717 	ldw	r2,-36(fp)
  803574:	10000415 	stw	zero,16(r2)
  803578:	0804e980 	call	804e98 <xTaskResumeAll>
  80357c:	e0bff917 	ldw	r2,-28(fp)
  803580:	e037883a 	mov	sp,fp
  803584:	dfc00117 	ldw	ra,4(sp)
  803588:	df000017 	ldw	fp,0(sp)
  80358c:	dec00204 	addi	sp,sp,8
  803590:	f800283a 	ret

00803594 <xStreamBufferSendFromISR>:
  803594:	defff304 	addi	sp,sp,-52
  803598:	dfc00c15 	stw	ra,48(sp)
  80359c:	df000b15 	stw	fp,44(sp)
  8035a0:	df000b04 	addi	fp,sp,44
  8035a4:	e13ffc15 	stw	r4,-16(fp)
  8035a8:	e17ffd15 	stw	r5,-12(fp)
  8035ac:	e1bffe15 	stw	r6,-8(fp)
  8035b0:	e1ffff15 	stw	r7,-4(fp)
  8035b4:	e0bffc17 	ldw	r2,-16(fp)
  8035b8:	e0bff815 	stw	r2,-32(fp)
  8035bc:	e0bffe17 	ldw	r2,-8(fp)
  8035c0:	e0bff715 	stw	r2,-36(fp)
  8035c4:	e0bff817 	ldw	r2,-32(fp)
  8035c8:	10800703 	ldbu	r2,28(r2)
  8035cc:	10803fcc 	andi	r2,r2,255
  8035d0:	1080004c 	andi	r2,r2,1
  8035d4:	10000326 	beq	r2,zero,8035e4 <xStreamBufferSendFromISR+0x50>
  8035d8:	e0bff717 	ldw	r2,-36(fp)
  8035dc:	10800104 	addi	r2,r2,4
  8035e0:	e0bff715 	stw	r2,-36(fp)
  8035e4:	e13ff817 	ldw	r4,-32(fp)
  8035e8:	08032fc0 	call	8032fc <xStreamBufferSpacesAvailable>
  8035ec:	e0bff915 	stw	r2,-28(fp)
  8035f0:	e0bff717 	ldw	r2,-36(fp)
  8035f4:	d8800015 	stw	r2,0(sp)
  8035f8:	e13ff817 	ldw	r4,-32(fp)
  8035fc:	e17ffd17 	ldw	r5,-12(fp)
  803600:	e1bffe17 	ldw	r6,-8(fp)
  803604:	e1fff917 	ldw	r7,-28(fp)
  803608:	080368c0 	call	80368c <prvWriteMessageToBuffer>
  80360c:	e0bffa15 	stw	r2,-24(fp)
  803610:	e0bffa17 	ldw	r2,-24(fp)
  803614:	10001726 	beq	r2,zero,803674 <xStreamBufferSendFromISR+0xe0>
  803618:	e13ff817 	ldw	r4,-32(fp)
  80361c:	0803f040 	call	803f04 <prvBytesInBuffer>
  803620:	1007883a 	mov	r3,r2
  803624:	e0bff817 	ldw	r2,-32(fp)
  803628:	10800317 	ldw	r2,12(r2)
  80362c:	18801136 	bltu	r3,r2,803674 <xStreamBufferSendFromISR+0xe0>
  803630:	e03ffb15 	stw	zero,-20(fp)
  803634:	e0bff817 	ldw	r2,-32(fp)
  803638:	10800417 	ldw	r2,16(r2)
  80363c:	10000d26 	beq	r2,zero,803674 <xStreamBufferSendFromISR+0xe0>
  803640:	e0bff817 	ldw	r2,-32(fp)
  803644:	10c00417 	ldw	r3,16(r2)
  803648:	d8000015 	stw	zero,0(sp)
  80364c:	e0bfff17 	ldw	r2,-4(fp)
  803650:	d8800115 	stw	r2,4(sp)
  803654:	1809883a 	mov	r4,r3
  803658:	000b883a 	mov	r5,zero
  80365c:	000d883a 	mov	r6,zero
  803660:	000f883a 	mov	r7,zero
  803664:	0806de00 	call	806de0 <xTaskGenericNotifyFromISR>
  803668:	e0bff817 	ldw	r2,-32(fp)
  80366c:	10000415 	stw	zero,16(r2)
  803670:	00000006 	br	803674 <xStreamBufferSendFromISR+0xe0>
  803674:	e0bffa17 	ldw	r2,-24(fp)
  803678:	e037883a 	mov	sp,fp
  80367c:	dfc00117 	ldw	ra,4(sp)
  803680:	df000017 	ldw	fp,0(sp)
  803684:	dec00204 	addi	sp,sp,8
  803688:	f800283a 	ret

0080368c <prvWriteMessageToBuffer>:
  80368c:	defff804 	addi	sp,sp,-32
  803690:	dfc00715 	stw	ra,28(sp)
  803694:	df000615 	stw	fp,24(sp)
  803698:	df000604 	addi	fp,sp,24
  80369c:	e13ffc15 	stw	r4,-16(fp)
  8036a0:	e17ffd15 	stw	r5,-12(fp)
  8036a4:	e1bffe15 	stw	r6,-8(fp)
  8036a8:	e1ffff15 	stw	r7,-4(fp)
  8036ac:	e0bfff17 	ldw	r2,-4(fp)
  8036b0:	1000021e 	bne	r2,zero,8036bc <prvWriteMessageToBuffer+0x30>
  8036b4:	e03ffa15 	stw	zero,-24(fp)
  8036b8:	00001906 	br	803720 <prvWriteMessageToBuffer+0x94>
  8036bc:	e0bffc17 	ldw	r2,-16(fp)
  8036c0:	10800703 	ldbu	r2,28(r2)
  8036c4:	10803fcc 	andi	r2,r2,255
  8036c8:	1080004c 	andi	r2,r2,1
  8036cc:	1000081e 	bne	r2,zero,8036f0 <prvWriteMessageToBuffer+0x64>
  8036d0:	00800044 	movi	r2,1
  8036d4:	e0bffa15 	stw	r2,-24(fp)
  8036d8:	e0fffe17 	ldw	r3,-8(fp)
  8036dc:	e0bfff17 	ldw	r2,-4(fp)
  8036e0:	1880012e 	bgeu	r3,r2,8036e8 <prvWriteMessageToBuffer+0x5c>
  8036e4:	1805883a 	mov	r2,r3
  8036e8:	e0bffe15 	stw	r2,-8(fp)
  8036ec:	00000c06 	br	803720 <prvWriteMessageToBuffer+0x94>
  8036f0:	e0ffff17 	ldw	r3,-4(fp)
  8036f4:	e0800217 	ldw	r2,8(fp)
  8036f8:	18800836 	bltu	r3,r2,80371c <prvWriteMessageToBuffer+0x90>
  8036fc:	00800044 	movi	r2,1
  803700:	e0bffa15 	stw	r2,-24(fp)
  803704:	e0bffe04 	addi	r2,fp,-8
  803708:	e13ffc17 	ldw	r4,-16(fp)
  80370c:	100b883a 	mov	r5,r2
  803710:	01800104 	movi	r6,4
  803714:	0803cfc0 	call	803cfc <prvWriteBytesToBuffer>
  803718:	00000106 	br	803720 <prvWriteMessageToBuffer+0x94>
  80371c:	e03ffa15 	stw	zero,-24(fp)
  803720:	e0bffa17 	ldw	r2,-24(fp)
  803724:	10000726 	beq	r2,zero,803744 <prvWriteMessageToBuffer+0xb8>
  803728:	e0bffe17 	ldw	r2,-8(fp)
  80372c:	e13ffc17 	ldw	r4,-16(fp)
  803730:	e17ffd17 	ldw	r5,-12(fp)
  803734:	100d883a 	mov	r6,r2
  803738:	0803cfc0 	call	803cfc <prvWriteBytesToBuffer>
  80373c:	e0bffb15 	stw	r2,-20(fp)
  803740:	00000106 	br	803748 <prvWriteMessageToBuffer+0xbc>
  803744:	e03ffb15 	stw	zero,-20(fp)
  803748:	e0bffb17 	ldw	r2,-20(fp)
  80374c:	e037883a 	mov	sp,fp
  803750:	dfc00117 	ldw	ra,4(sp)
  803754:	df000017 	ldw	fp,0(sp)
  803758:	dec00204 	addi	sp,sp,8
  80375c:	f800283a 	ret

00803760 <xStreamBufferReceive>:
  803760:	defff504 	addi	sp,sp,-44
  803764:	dfc00a15 	stw	ra,40(sp)
  803768:	df000915 	stw	fp,36(sp)
  80376c:	df000904 	addi	fp,sp,36
  803770:	e13ffc15 	stw	r4,-16(fp)
  803774:	e17ffd15 	stw	r5,-12(fp)
  803778:	e1bffe15 	stw	r6,-8(fp)
  80377c:	e1ffff15 	stw	r7,-4(fp)
  803780:	e0bffc17 	ldw	r2,-16(fp)
  803784:	e0bffb15 	stw	r2,-20(fp)
  803788:	e03ff815 	stw	zero,-32(fp)
  80378c:	e0bffb17 	ldw	r2,-20(fp)
  803790:	10800703 	ldbu	r2,28(r2)
  803794:	10803fcc 	andi	r2,r2,255
  803798:	1080004c 	andi	r2,r2,1
  80379c:	10000326 	beq	r2,zero,8037ac <xStreamBufferReceive+0x4c>
  8037a0:	00800104 	movi	r2,4
  8037a4:	e0bffa15 	stw	r2,-24(fp)
  8037a8:	00000106 	br	8037b0 <xStreamBufferReceive+0x50>
  8037ac:	e03ffa15 	stw	zero,-24(fp)
  8037b0:	e0bfff17 	ldw	r2,-4(fp)
  8037b4:	10001f26 	beq	r2,zero,803834 <xStreamBufferReceive+0xd4>
  8037b8:	08063880 	call	806388 <vTaskEnterCritical>
  8037bc:	e13ffb17 	ldw	r4,-20(fp)
  8037c0:	0803f040 	call	803f04 <prvBytesInBuffer>
  8037c4:	e0bff915 	stw	r2,-28(fp)
  8037c8:	e0bff917 	ldw	r2,-28(fp)
  8037cc:	e0fffa17 	ldw	r3,-24(fp)
  8037d0:	18800736 	bltu	r3,r2,8037f0 <xStreamBufferReceive+0x90>
  8037d4:	0009883a 	mov	r4,zero
  8037d8:	000b883a 	mov	r5,zero
  8037dc:	08071e00 	call	8071e0 <xTaskGenericNotifyStateClear>
  8037e0:	0805fa00 	call	805fa0 <xTaskGetCurrentTaskHandle>
  8037e4:	1007883a 	mov	r3,r2
  8037e8:	e0bffb17 	ldw	r2,-20(fp)
  8037ec:	10c00415 	stw	r3,16(r2)
  8037f0:	08063d80 	call	8063d8 <vTaskExitCritical>
  8037f4:	e0bff917 	ldw	r2,-28(fp)
  8037f8:	e0fffa17 	ldw	r3,-24(fp)
  8037fc:	18801036 	bltu	r3,r2,803840 <xStreamBufferReceive+0xe0>
  803800:	e0bfff17 	ldw	r2,-4(fp)
  803804:	d8800015 	stw	r2,0(sp)
  803808:	0009883a 	mov	r4,zero
  80380c:	000b883a 	mov	r5,zero
  803810:	000d883a 	mov	r6,zero
  803814:	000f883a 	mov	r7,zero
  803818:	08069fc0 	call	8069fc <xTaskGenericNotifyWait>
  80381c:	e0bffb17 	ldw	r2,-20(fp)
  803820:	10000415 	stw	zero,16(r2)
  803824:	e13ffb17 	ldw	r4,-20(fp)
  803828:	0803f040 	call	803f04 <prvBytesInBuffer>
  80382c:	e0bff915 	stw	r2,-28(fp)
  803830:	00000306 	br	803840 <xStreamBufferReceive+0xe0>
  803834:	e13ffb17 	ldw	r4,-20(fp)
  803838:	0803f040 	call	803f04 <prvBytesInBuffer>
  80383c:	e0bff915 	stw	r2,-28(fp)
  803840:	e0bff917 	ldw	r2,-28(fp)
  803844:	e0fffa17 	ldw	r3,-24(fp)
  803848:	1880192e 	bgeu	r3,r2,8038b0 <xStreamBufferReceive+0x150>
  80384c:	e0bffa17 	ldw	r2,-24(fp)
  803850:	d8800015 	stw	r2,0(sp)
  803854:	e13ffb17 	ldw	r4,-20(fp)
  803858:	e17ffd17 	ldw	r5,-12(fp)
  80385c:	e1bffe17 	ldw	r6,-8(fp)
  803860:	e1fff917 	ldw	r7,-28(fp)
  803864:	0803a5c0 	call	803a5c <prvReadMessageFromBuffer>
  803868:	e0bff815 	stw	r2,-32(fp)
  80386c:	e0bff817 	ldw	r2,-32(fp)
  803870:	10000f26 	beq	r2,zero,8038b0 <xStreamBufferReceive+0x150>
  803874:	0804e700 	call	804e70 <vTaskSuspendAll>
  803878:	e0bffb17 	ldw	r2,-20(fp)
  80387c:	10800517 	ldw	r2,20(r2)
  803880:	10000a26 	beq	r2,zero,8038ac <xStreamBufferReceive+0x14c>
  803884:	e0bffb17 	ldw	r2,-20(fp)
  803888:	10800517 	ldw	r2,20(r2)
  80388c:	d8000015 	stw	zero,0(sp)
  803890:	1009883a 	mov	r4,r2
  803894:	000b883a 	mov	r5,zero
  803898:	000d883a 	mov	r6,zero
  80389c:	000f883a 	mov	r7,zero
  8038a0:	0806b840 	call	806b84 <xTaskGenericNotify>
  8038a4:	e0bffb17 	ldw	r2,-20(fp)
  8038a8:	10000515 	stw	zero,20(r2)
  8038ac:	0804e980 	call	804e98 <xTaskResumeAll>
  8038b0:	e0bff817 	ldw	r2,-32(fp)
  8038b4:	e037883a 	mov	sp,fp
  8038b8:	dfc00117 	ldw	ra,4(sp)
  8038bc:	df000017 	ldw	fp,0(sp)
  8038c0:	dec00204 	addi	sp,sp,8
  8038c4:	f800283a 	ret

008038c8 <xStreamBufferNextMessageLengthBytes>:
  8038c8:	defff804 	addi	sp,sp,-32
  8038cc:	dfc00715 	stw	ra,28(sp)
  8038d0:	df000615 	stw	fp,24(sp)
  8038d4:	df000604 	addi	fp,sp,24
  8038d8:	e13fff15 	stw	r4,-4(fp)
  8038dc:	e0bfff17 	ldw	r2,-4(fp)
  8038e0:	e0bffb15 	stw	r2,-20(fp)
  8038e4:	e0bffb17 	ldw	r2,-20(fp)
  8038e8:	10800703 	ldbu	r2,28(r2)
  8038ec:	10803fcc 	andi	r2,r2,255
  8038f0:	1080004c 	andi	r2,r2,1
  8038f4:	10001726 	beq	r2,zero,803954 <xStreamBufferNextMessageLengthBytes+0x8c>
  8038f8:	e13ffb17 	ldw	r4,-20(fp)
  8038fc:	0803f040 	call	803f04 <prvBytesInBuffer>
  803900:	e0bffc15 	stw	r2,-16(fp)
  803904:	e0bffc17 	ldw	r2,-16(fp)
  803908:	10800170 	cmpltui	r2,r2,5
  80390c:	10000f1e 	bne	r2,zero,80394c <xStreamBufferNextMessageLengthBytes+0x84>
  803910:	e0bffb17 	ldw	r2,-20(fp)
  803914:	10800017 	ldw	r2,0(r2)
  803918:	e0bffd15 	stw	r2,-12(fp)
  80391c:	e0bffe04 	addi	r2,fp,-8
  803920:	e13ffb17 	ldw	r4,-20(fp)
  803924:	100b883a 	mov	r5,r2
  803928:	01800104 	movi	r6,4
  80392c:	e1fffc17 	ldw	r7,-16(fp)
  803930:	0803df00 	call	803df0 <prvReadBytesFromBuffer>
  803934:	e0bffe17 	ldw	r2,-8(fp)
  803938:	e0bffa15 	stw	r2,-24(fp)
  80393c:	e0bffb17 	ldw	r2,-20(fp)
  803940:	e0fffd17 	ldw	r3,-12(fp)
  803944:	10c00015 	stw	r3,0(r2)
  803948:	00000306 	br	803958 <xStreamBufferNextMessageLengthBytes+0x90>
  80394c:	e03ffa15 	stw	zero,-24(fp)
  803950:	00000106 	br	803958 <xStreamBufferNextMessageLengthBytes+0x90>
  803954:	e03ffa15 	stw	zero,-24(fp)
  803958:	e0bffa17 	ldw	r2,-24(fp)
  80395c:	e037883a 	mov	sp,fp
  803960:	dfc00117 	ldw	ra,4(sp)
  803964:	df000017 	ldw	fp,0(sp)
  803968:	dec00204 	addi	sp,sp,8
  80396c:	f800283a 	ret

00803970 <xStreamBufferReceiveFromISR>:
  803970:	defff304 	addi	sp,sp,-52
  803974:	dfc00c15 	stw	ra,48(sp)
  803978:	df000b15 	stw	fp,44(sp)
  80397c:	df000b04 	addi	fp,sp,44
  803980:	e13ffc15 	stw	r4,-16(fp)
  803984:	e17ffd15 	stw	r5,-12(fp)
  803988:	e1bffe15 	stw	r6,-8(fp)
  80398c:	e1ffff15 	stw	r7,-4(fp)
  803990:	e0bffc17 	ldw	r2,-16(fp)
  803994:	e0bff915 	stw	r2,-28(fp)
  803998:	e03ff715 	stw	zero,-36(fp)
  80399c:	e0bff917 	ldw	r2,-28(fp)
  8039a0:	10800703 	ldbu	r2,28(r2)
  8039a4:	10803fcc 	andi	r2,r2,255
  8039a8:	1080004c 	andi	r2,r2,1
  8039ac:	10000326 	beq	r2,zero,8039bc <xStreamBufferReceiveFromISR+0x4c>
  8039b0:	00800104 	movi	r2,4
  8039b4:	e0bff815 	stw	r2,-32(fp)
  8039b8:	00000106 	br	8039c0 <xStreamBufferReceiveFromISR+0x50>
  8039bc:	e03ff815 	stw	zero,-32(fp)
  8039c0:	e13ff917 	ldw	r4,-28(fp)
  8039c4:	0803f040 	call	803f04 <prvBytesInBuffer>
  8039c8:	e0bffa15 	stw	r2,-24(fp)
  8039cc:	e0bffa17 	ldw	r2,-24(fp)
  8039d0:	e0fff817 	ldw	r3,-32(fp)
  8039d4:	18801b2e 	bgeu	r3,r2,803a44 <xStreamBufferReceiveFromISR+0xd4>
  8039d8:	e0bff817 	ldw	r2,-32(fp)
  8039dc:	d8800015 	stw	r2,0(sp)
  8039e0:	e13ff917 	ldw	r4,-28(fp)
  8039e4:	e17ffd17 	ldw	r5,-12(fp)
  8039e8:	e1bffe17 	ldw	r6,-8(fp)
  8039ec:	e1fffa17 	ldw	r7,-24(fp)
  8039f0:	0803a5c0 	call	803a5c <prvReadMessageFromBuffer>
  8039f4:	e0bff715 	stw	r2,-36(fp)
  8039f8:	e0bff717 	ldw	r2,-36(fp)
  8039fc:	10001126 	beq	r2,zero,803a44 <xStreamBufferReceiveFromISR+0xd4>
  803a00:	e03ffb15 	stw	zero,-20(fp)
  803a04:	e0bff917 	ldw	r2,-28(fp)
  803a08:	10800517 	ldw	r2,20(r2)
  803a0c:	10000d26 	beq	r2,zero,803a44 <xStreamBufferReceiveFromISR+0xd4>
  803a10:	e0bff917 	ldw	r2,-28(fp)
  803a14:	10c00517 	ldw	r3,20(r2)
  803a18:	d8000015 	stw	zero,0(sp)
  803a1c:	e0bfff17 	ldw	r2,-4(fp)
  803a20:	d8800115 	stw	r2,4(sp)
  803a24:	1809883a 	mov	r4,r3
  803a28:	000b883a 	mov	r5,zero
  803a2c:	000d883a 	mov	r6,zero
  803a30:	000f883a 	mov	r7,zero
  803a34:	0806de00 	call	806de0 <xTaskGenericNotifyFromISR>
  803a38:	e0bff917 	ldw	r2,-28(fp)
  803a3c:	10000515 	stw	zero,20(r2)
  803a40:	00000006 	br	803a44 <xStreamBufferReceiveFromISR+0xd4>
  803a44:	e0bff717 	ldw	r2,-36(fp)
  803a48:	e037883a 	mov	sp,fp
  803a4c:	dfc00117 	ldw	ra,4(sp)
  803a50:	df000017 	ldw	fp,0(sp)
  803a54:	dec00204 	addi	sp,sp,8
  803a58:	f800283a 	ret

00803a5c <prvReadMessageFromBuffer>:
  803a5c:	defff604 	addi	sp,sp,-40
  803a60:	dfc00915 	stw	ra,36(sp)
  803a64:	df000815 	stw	fp,32(sp)
  803a68:	df000804 	addi	fp,sp,32
  803a6c:	e13ffc15 	stw	r4,-16(fp)
  803a70:	e17ffd15 	stw	r5,-12(fp)
  803a74:	e1bffe15 	stw	r6,-8(fp)
  803a78:	e1ffff15 	stw	r7,-4(fp)
  803a7c:	e0800217 	ldw	r2,8(fp)
  803a80:	10001726 	beq	r2,zero,803ae0 <prvReadMessageFromBuffer+0x84>
  803a84:	e0bffc17 	ldw	r2,-16(fp)
  803a88:	10800017 	ldw	r2,0(r2)
  803a8c:	e0bff915 	stw	r2,-28(fp)
  803a90:	e0bffb04 	addi	r2,fp,-20
  803a94:	e13ffc17 	ldw	r4,-16(fp)
  803a98:	100b883a 	mov	r5,r2
  803a9c:	e1800217 	ldw	r6,8(fp)
  803aa0:	e1ffff17 	ldw	r7,-4(fp)
  803aa4:	0803df00 	call	803df0 <prvReadBytesFromBuffer>
  803aa8:	e0bffb17 	ldw	r2,-20(fp)
  803aac:	e0bff815 	stw	r2,-32(fp)
  803ab0:	e0ffff17 	ldw	r3,-4(fp)
  803ab4:	e0800217 	ldw	r2,8(fp)
  803ab8:	1885c83a 	sub	r2,r3,r2
  803abc:	e0bfff15 	stw	r2,-4(fp)
  803ac0:	e0bff817 	ldw	r2,-32(fp)
  803ac4:	e0fffe17 	ldw	r3,-8(fp)
  803ac8:	1880072e 	bgeu	r3,r2,803ae8 <prvReadMessageFromBuffer+0x8c>
  803acc:	e0bffc17 	ldw	r2,-16(fp)
  803ad0:	e0fff917 	ldw	r3,-28(fp)
  803ad4:	10c00015 	stw	r3,0(r2)
  803ad8:	e03ff815 	stw	zero,-32(fp)
  803adc:	00000206 	br	803ae8 <prvReadMessageFromBuffer+0x8c>
  803ae0:	e0bffe17 	ldw	r2,-8(fp)
  803ae4:	e0bff815 	stw	r2,-32(fp)
  803ae8:	e13ffc17 	ldw	r4,-16(fp)
  803aec:	e17ffd17 	ldw	r5,-12(fp)
  803af0:	e1bff817 	ldw	r6,-32(fp)
  803af4:	e1ffff17 	ldw	r7,-4(fp)
  803af8:	0803df00 	call	803df0 <prvReadBytesFromBuffer>
  803afc:	e0bffa15 	stw	r2,-24(fp)
  803b00:	e0bffa17 	ldw	r2,-24(fp)
  803b04:	e037883a 	mov	sp,fp
  803b08:	dfc00117 	ldw	ra,4(sp)
  803b0c:	df000017 	ldw	fp,0(sp)
  803b10:	dec00204 	addi	sp,sp,8
  803b14:	f800283a 	ret

00803b18 <xStreamBufferIsEmpty>:
  803b18:	defffb04 	addi	sp,sp,-20
  803b1c:	df000415 	stw	fp,16(sp)
  803b20:	df000404 	addi	fp,sp,16
  803b24:	e13fff15 	stw	r4,-4(fp)
  803b28:	e0bfff17 	ldw	r2,-4(fp)
  803b2c:	e0bffd15 	stw	r2,-12(fp)
  803b30:	e0bffd17 	ldw	r2,-12(fp)
  803b34:	10800017 	ldw	r2,0(r2)
  803b38:	e0bffe15 	stw	r2,-8(fp)
  803b3c:	e0bffd17 	ldw	r2,-12(fp)
  803b40:	10c00117 	ldw	r3,4(r2)
  803b44:	e0bffe17 	ldw	r2,-8(fp)
  803b48:	1880031e 	bne	r3,r2,803b58 <xStreamBufferIsEmpty+0x40>
  803b4c:	00800044 	movi	r2,1
  803b50:	e0bffc15 	stw	r2,-16(fp)
  803b54:	00000106 	br	803b5c <xStreamBufferIsEmpty+0x44>
  803b58:	e03ffc15 	stw	zero,-16(fp)
  803b5c:	e0bffc17 	ldw	r2,-16(fp)
  803b60:	e037883a 	mov	sp,fp
  803b64:	df000017 	ldw	fp,0(sp)
  803b68:	dec00104 	addi	sp,sp,4
  803b6c:	f800283a 	ret

00803b70 <xStreamBufferIsFull>:
  803b70:	defffa04 	addi	sp,sp,-24
  803b74:	dfc00515 	stw	ra,20(sp)
  803b78:	df000415 	stw	fp,16(sp)
  803b7c:	df000404 	addi	fp,sp,16
  803b80:	e13fff15 	stw	r4,-4(fp)
  803b84:	e0bfff17 	ldw	r2,-4(fp)
  803b88:	e0bffe15 	stw	r2,-8(fp)
  803b8c:	e0bffe17 	ldw	r2,-8(fp)
  803b90:	10800703 	ldbu	r2,28(r2)
  803b94:	10803fcc 	andi	r2,r2,255
  803b98:	1080004c 	andi	r2,r2,1
  803b9c:	10000326 	beq	r2,zero,803bac <xStreamBufferIsFull+0x3c>
  803ba0:	00800104 	movi	r2,4
  803ba4:	e0bffd15 	stw	r2,-12(fp)
  803ba8:	00000106 	br	803bb0 <xStreamBufferIsFull+0x40>
  803bac:	e03ffd15 	stw	zero,-12(fp)
  803bb0:	e13fff17 	ldw	r4,-4(fp)
  803bb4:	08032fc0 	call	8032fc <xStreamBufferSpacesAvailable>
  803bb8:	1007883a 	mov	r3,r2
  803bbc:	e0bffd17 	ldw	r2,-12(fp)
  803bc0:	10c00336 	bltu	r2,r3,803bd0 <xStreamBufferIsFull+0x60>
  803bc4:	00800044 	movi	r2,1
  803bc8:	e0bffc15 	stw	r2,-16(fp)
  803bcc:	00000106 	br	803bd4 <xStreamBufferIsFull+0x64>
  803bd0:	e03ffc15 	stw	zero,-16(fp)
  803bd4:	e0bffc17 	ldw	r2,-16(fp)
  803bd8:	e037883a 	mov	sp,fp
  803bdc:	dfc00117 	ldw	ra,4(sp)
  803be0:	df000017 	ldw	fp,0(sp)
  803be4:	dec00204 	addi	sp,sp,8
  803be8:	f800283a 	ret

00803bec <xStreamBufferSendCompletedFromISR>:
  803bec:	defff704 	addi	sp,sp,-36
  803bf0:	dfc00815 	stw	ra,32(sp)
  803bf4:	df000715 	stw	fp,28(sp)
  803bf8:	df000704 	addi	fp,sp,28
  803bfc:	e13ffe15 	stw	r4,-8(fp)
  803c00:	e17fff15 	stw	r5,-4(fp)
  803c04:	e0bffe17 	ldw	r2,-8(fp)
  803c08:	e0bffc15 	stw	r2,-16(fp)
  803c0c:	e03ffd15 	stw	zero,-12(fp)
  803c10:	e0bffc17 	ldw	r2,-16(fp)
  803c14:	10800417 	ldw	r2,16(r2)
  803c18:	10000f26 	beq	r2,zero,803c58 <xStreamBufferSendCompletedFromISR+0x6c>
  803c1c:	e0bffc17 	ldw	r2,-16(fp)
  803c20:	10c00417 	ldw	r3,16(r2)
  803c24:	d8000015 	stw	zero,0(sp)
  803c28:	e0bfff17 	ldw	r2,-4(fp)
  803c2c:	d8800115 	stw	r2,4(sp)
  803c30:	1809883a 	mov	r4,r3
  803c34:	000b883a 	mov	r5,zero
  803c38:	000d883a 	mov	r6,zero
  803c3c:	000f883a 	mov	r7,zero
  803c40:	0806de00 	call	806de0 <xTaskGenericNotifyFromISR>
  803c44:	e0bffc17 	ldw	r2,-16(fp)
  803c48:	10000415 	stw	zero,16(r2)
  803c4c:	00800044 	movi	r2,1
  803c50:	e0bffb15 	stw	r2,-20(fp)
  803c54:	00000106 	br	803c5c <xStreamBufferSendCompletedFromISR+0x70>
  803c58:	e03ffb15 	stw	zero,-20(fp)
  803c5c:	e0bffb17 	ldw	r2,-20(fp)
  803c60:	e037883a 	mov	sp,fp
  803c64:	dfc00117 	ldw	ra,4(sp)
  803c68:	df000017 	ldw	fp,0(sp)
  803c6c:	dec00204 	addi	sp,sp,8
  803c70:	f800283a 	ret

00803c74 <xStreamBufferReceiveCompletedFromISR>:
  803c74:	defff704 	addi	sp,sp,-36
  803c78:	dfc00815 	stw	ra,32(sp)
  803c7c:	df000715 	stw	fp,28(sp)
  803c80:	df000704 	addi	fp,sp,28
  803c84:	e13ffe15 	stw	r4,-8(fp)
  803c88:	e17fff15 	stw	r5,-4(fp)
  803c8c:	e0bffe17 	ldw	r2,-8(fp)
  803c90:	e0bffc15 	stw	r2,-16(fp)
  803c94:	e03ffd15 	stw	zero,-12(fp)
  803c98:	e0bffc17 	ldw	r2,-16(fp)
  803c9c:	10800517 	ldw	r2,20(r2)
  803ca0:	10000f26 	beq	r2,zero,803ce0 <xStreamBufferReceiveCompletedFromISR+0x6c>
  803ca4:	e0bffc17 	ldw	r2,-16(fp)
  803ca8:	10c00517 	ldw	r3,20(r2)
  803cac:	d8000015 	stw	zero,0(sp)
  803cb0:	e0bfff17 	ldw	r2,-4(fp)
  803cb4:	d8800115 	stw	r2,4(sp)
  803cb8:	1809883a 	mov	r4,r3
  803cbc:	000b883a 	mov	r5,zero
  803cc0:	000d883a 	mov	r6,zero
  803cc4:	000f883a 	mov	r7,zero
  803cc8:	0806de00 	call	806de0 <xTaskGenericNotifyFromISR>
  803ccc:	e0bffc17 	ldw	r2,-16(fp)
  803cd0:	10000515 	stw	zero,20(r2)
  803cd4:	00800044 	movi	r2,1
  803cd8:	e0bffb15 	stw	r2,-20(fp)
  803cdc:	00000106 	br	803ce4 <xStreamBufferReceiveCompletedFromISR+0x70>
  803ce0:	e03ffb15 	stw	zero,-20(fp)
  803ce4:	e0bffb17 	ldw	r2,-20(fp)
  803ce8:	e037883a 	mov	sp,fp
  803cec:	dfc00117 	ldw	ra,4(sp)
  803cf0:	df000017 	ldw	fp,0(sp)
  803cf4:	dec00204 	addi	sp,sp,8
  803cf8:	f800283a 	ret

00803cfc <prvWriteBytesToBuffer>:
  803cfc:	defff904 	addi	sp,sp,-28
  803d00:	dfc00615 	stw	ra,24(sp)
  803d04:	df000515 	stw	fp,20(sp)
  803d08:	df000504 	addi	fp,sp,20
  803d0c:	e13ffd15 	stw	r4,-12(fp)
  803d10:	e17ffe15 	stw	r5,-8(fp)
  803d14:	e1bfff15 	stw	r6,-4(fp)
  803d18:	e0bffd17 	ldw	r2,-12(fp)
  803d1c:	10800117 	ldw	r2,4(r2)
  803d20:	e0bffb15 	stw	r2,-20(fp)
  803d24:	e0bffd17 	ldw	r2,-12(fp)
  803d28:	10c00217 	ldw	r3,8(r2)
  803d2c:	e0bffb17 	ldw	r2,-20(fp)
  803d30:	1885c83a 	sub	r2,r3,r2
  803d34:	e0ffff17 	ldw	r3,-4(fp)
  803d38:	1880012e 	bgeu	r3,r2,803d40 <prvWriteBytesToBuffer+0x44>
  803d3c:	1805883a 	mov	r2,r3
  803d40:	e0bffc15 	stw	r2,-16(fp)
  803d44:	e0bffd17 	ldw	r2,-12(fp)
  803d48:	10c00617 	ldw	r3,24(r2)
  803d4c:	e0bffb17 	ldw	r2,-20(fp)
  803d50:	1885883a 	add	r2,r3,r2
  803d54:	1009883a 	mov	r4,r2
  803d58:	e17ffe17 	ldw	r5,-8(fp)
  803d5c:	e1bffc17 	ldw	r6,-16(fp)
  803d60:	08191ec0 	call	8191ec <memcpy>
  803d64:	e0bfff17 	ldw	r2,-4(fp)
  803d68:	e0fffc17 	ldw	r3,-16(fp)
  803d6c:	18800a2e 	bgeu	r3,r2,803d98 <prvWriteBytesToBuffer+0x9c>
  803d70:	e0bffd17 	ldw	r2,-12(fp)
  803d74:	11000617 	ldw	r4,24(r2)
  803d78:	e0fffe17 	ldw	r3,-8(fp)
  803d7c:	e0bffc17 	ldw	r2,-16(fp)
  803d80:	188b883a 	add	r5,r3,r2
  803d84:	e0ffff17 	ldw	r3,-4(fp)
  803d88:	e0bffc17 	ldw	r2,-16(fp)
  803d8c:	1885c83a 	sub	r2,r3,r2
  803d90:	100d883a 	mov	r6,r2
  803d94:	08191ec0 	call	8191ec <memcpy>
  803d98:	e0fffb17 	ldw	r3,-20(fp)
  803d9c:	e0bfff17 	ldw	r2,-4(fp)
  803da0:	1885883a 	add	r2,r3,r2
  803da4:	e0bffb15 	stw	r2,-20(fp)
  803da8:	e0bffd17 	ldw	r2,-12(fp)
  803dac:	10800217 	ldw	r2,8(r2)
  803db0:	e0fffb17 	ldw	r3,-20(fp)
  803db4:	18800536 	bltu	r3,r2,803dcc <prvWriteBytesToBuffer+0xd0>
  803db8:	e0bffd17 	ldw	r2,-12(fp)
  803dbc:	10800217 	ldw	r2,8(r2)
  803dc0:	e0fffb17 	ldw	r3,-20(fp)
  803dc4:	1885c83a 	sub	r2,r3,r2
  803dc8:	e0bffb15 	stw	r2,-20(fp)
  803dcc:	e0bffd17 	ldw	r2,-12(fp)
  803dd0:	e0fffb17 	ldw	r3,-20(fp)
  803dd4:	10c00115 	stw	r3,4(r2)
  803dd8:	e0bfff17 	ldw	r2,-4(fp)
  803ddc:	e037883a 	mov	sp,fp
  803de0:	dfc00117 	ldw	ra,4(sp)
  803de4:	df000017 	ldw	fp,0(sp)
  803de8:	dec00204 	addi	sp,sp,8
  803dec:	f800283a 	ret

00803df0 <prvReadBytesFromBuffer>:
  803df0:	defff704 	addi	sp,sp,-36
  803df4:	dfc00815 	stw	ra,32(sp)
  803df8:	df000715 	stw	fp,28(sp)
  803dfc:	df000704 	addi	fp,sp,28
  803e00:	e13ffc15 	stw	r4,-16(fp)
  803e04:	e17ffd15 	stw	r5,-12(fp)
  803e08:	e1bffe15 	stw	r6,-8(fp)
  803e0c:	e1ffff15 	stw	r7,-4(fp)
  803e10:	e0ffff17 	ldw	r3,-4(fp)
  803e14:	e0bffe17 	ldw	r2,-8(fp)
  803e18:	1880012e 	bgeu	r3,r2,803e20 <prvReadBytesFromBuffer+0x30>
  803e1c:	1805883a 	mov	r2,r3
  803e20:	e0bffa15 	stw	r2,-24(fp)
  803e24:	e0bffa17 	ldw	r2,-24(fp)
  803e28:	10003026 	beq	r2,zero,803eec <prvReadBytesFromBuffer+0xfc>
  803e2c:	e0bffc17 	ldw	r2,-16(fp)
  803e30:	10800017 	ldw	r2,0(r2)
  803e34:	e0bff915 	stw	r2,-28(fp)
  803e38:	e0bffc17 	ldw	r2,-16(fp)
  803e3c:	10c00217 	ldw	r3,8(r2)
  803e40:	e0bff917 	ldw	r2,-28(fp)
  803e44:	1885c83a 	sub	r2,r3,r2
  803e48:	e0fffa17 	ldw	r3,-24(fp)
  803e4c:	1880012e 	bgeu	r3,r2,803e54 <prvReadBytesFromBuffer+0x64>
  803e50:	1805883a 	mov	r2,r3
  803e54:	e0bffb15 	stw	r2,-20(fp)
  803e58:	e0bffc17 	ldw	r2,-16(fp)
  803e5c:	10c00617 	ldw	r3,24(r2)
  803e60:	e0bff917 	ldw	r2,-28(fp)
  803e64:	1885883a 	add	r2,r3,r2
  803e68:	e13ffd17 	ldw	r4,-12(fp)
  803e6c:	100b883a 	mov	r5,r2
  803e70:	e1bffb17 	ldw	r6,-20(fp)
  803e74:	08191ec0 	call	8191ec <memcpy>
  803e78:	e0bffa17 	ldw	r2,-24(fp)
  803e7c:	e0fffb17 	ldw	r3,-20(fp)
  803e80:	18800a2e 	bgeu	r3,r2,803eac <prvReadBytesFromBuffer+0xbc>
  803e84:	e0fffd17 	ldw	r3,-12(fp)
  803e88:	e0bffb17 	ldw	r2,-20(fp)
  803e8c:	1889883a 	add	r4,r3,r2
  803e90:	e0bffc17 	ldw	r2,-16(fp)
  803e94:	11400617 	ldw	r5,24(r2)
  803e98:	e0fffa17 	ldw	r3,-24(fp)
  803e9c:	e0bffb17 	ldw	r2,-20(fp)
  803ea0:	1885c83a 	sub	r2,r3,r2
  803ea4:	100d883a 	mov	r6,r2
  803ea8:	08191ec0 	call	8191ec <memcpy>
  803eac:	e0fff917 	ldw	r3,-28(fp)
  803eb0:	e0bffa17 	ldw	r2,-24(fp)
  803eb4:	1885883a 	add	r2,r3,r2
  803eb8:	e0bff915 	stw	r2,-28(fp)
  803ebc:	e0bffc17 	ldw	r2,-16(fp)
  803ec0:	10800217 	ldw	r2,8(r2)
  803ec4:	e0fff917 	ldw	r3,-28(fp)
  803ec8:	18800536 	bltu	r3,r2,803ee0 <prvReadBytesFromBuffer+0xf0>
  803ecc:	e0bffc17 	ldw	r2,-16(fp)
  803ed0:	10800217 	ldw	r2,8(r2)
  803ed4:	e0fff917 	ldw	r3,-28(fp)
  803ed8:	1885c83a 	sub	r2,r3,r2
  803edc:	e0bff915 	stw	r2,-28(fp)
  803ee0:	e0bffc17 	ldw	r2,-16(fp)
  803ee4:	e0fff917 	ldw	r3,-28(fp)
  803ee8:	10c00015 	stw	r3,0(r2)
  803eec:	e0bffa17 	ldw	r2,-24(fp)
  803ef0:	e037883a 	mov	sp,fp
  803ef4:	dfc00117 	ldw	ra,4(sp)
  803ef8:	df000017 	ldw	fp,0(sp)
  803efc:	dec00204 	addi	sp,sp,8
  803f00:	f800283a 	ret

00803f04 <prvBytesInBuffer>:
  803f04:	defffd04 	addi	sp,sp,-12
  803f08:	df000215 	stw	fp,8(sp)
  803f0c:	df000204 	addi	fp,sp,8
  803f10:	e13fff15 	stw	r4,-4(fp)
  803f14:	e0bfff17 	ldw	r2,-4(fp)
  803f18:	10c00217 	ldw	r3,8(r2)
  803f1c:	e0bfff17 	ldw	r2,-4(fp)
  803f20:	10800117 	ldw	r2,4(r2)
  803f24:	1885883a 	add	r2,r3,r2
  803f28:	e0bffe15 	stw	r2,-8(fp)
  803f2c:	e0bfff17 	ldw	r2,-4(fp)
  803f30:	10800017 	ldw	r2,0(r2)
  803f34:	e0fffe17 	ldw	r3,-8(fp)
  803f38:	1885c83a 	sub	r2,r3,r2
  803f3c:	e0bffe15 	stw	r2,-8(fp)
  803f40:	e0bfff17 	ldw	r2,-4(fp)
  803f44:	10800217 	ldw	r2,8(r2)
  803f48:	e0fffe17 	ldw	r3,-8(fp)
  803f4c:	18800536 	bltu	r3,r2,803f64 <prvBytesInBuffer+0x60>
  803f50:	e0bfff17 	ldw	r2,-4(fp)
  803f54:	10800217 	ldw	r2,8(r2)
  803f58:	e0fffe17 	ldw	r3,-8(fp)
  803f5c:	1885c83a 	sub	r2,r3,r2
  803f60:	e0bffe15 	stw	r2,-8(fp)
  803f64:	e0bffe17 	ldw	r2,-8(fp)
  803f68:	e037883a 	mov	sp,fp
  803f6c:	df000017 	ldw	fp,0(sp)
  803f70:	dec00104 	addi	sp,sp,4
  803f74:	f800283a 	ret

00803f78 <prvInitialiseNewStreamBuffer>:
  803f78:	defff904 	addi	sp,sp,-28
  803f7c:	dfc00615 	stw	ra,24(sp)
  803f80:	df000515 	stw	fp,20(sp)
  803f84:	df000504 	addi	fp,sp,20
  803f88:	e13ffb15 	stw	r4,-20(fp)
  803f8c:	e17ffc15 	stw	r5,-16(fp)
  803f90:	e1bffd15 	stw	r6,-12(fp)
  803f94:	e1fffe15 	stw	r7,-8(fp)
  803f98:	e0800217 	ldw	r2,8(fp)
  803f9c:	e0bfff05 	stb	r2,-4(fp)
  803fa0:	e13ffb17 	ldw	r4,-20(fp)
  803fa4:	000b883a 	mov	r5,zero
  803fa8:	01800904 	movi	r6,36
  803fac:	08194800 	call	819480 <memset>
  803fb0:	e0bffb17 	ldw	r2,-20(fp)
  803fb4:	e0fffc17 	ldw	r3,-16(fp)
  803fb8:	10c00615 	stw	r3,24(r2)
  803fbc:	e0bffb17 	ldw	r2,-20(fp)
  803fc0:	e0fffd17 	ldw	r3,-12(fp)
  803fc4:	10c00215 	stw	r3,8(r2)
  803fc8:	e0bffb17 	ldw	r2,-20(fp)
  803fcc:	e0fffe17 	ldw	r3,-8(fp)
  803fd0:	10c00315 	stw	r3,12(r2)
  803fd4:	e0bffb17 	ldw	r2,-20(fp)
  803fd8:	e0ffff03 	ldbu	r3,-4(fp)
  803fdc:	10c00705 	stb	r3,28(r2)
  803fe0:	e037883a 	mov	sp,fp
  803fe4:	dfc00117 	ldw	ra,4(sp)
  803fe8:	df000017 	ldw	fp,0(sp)
  803fec:	dec00204 	addi	sp,sp,8
  803ff0:	f800283a 	ret

00803ff4 <uxStreamBufferGetStreamBufferNumber>:
  803ff4:	defffe04 	addi	sp,sp,-8
  803ff8:	df000115 	stw	fp,4(sp)
  803ffc:	df000104 	addi	fp,sp,4
  804000:	e13fff15 	stw	r4,-4(fp)
  804004:	e0bfff17 	ldw	r2,-4(fp)
  804008:	10800817 	ldw	r2,32(r2)
  80400c:	e037883a 	mov	sp,fp
  804010:	df000017 	ldw	fp,0(sp)
  804014:	dec00104 	addi	sp,sp,4
  804018:	f800283a 	ret

0080401c <vStreamBufferSetStreamBufferNumber>:
  80401c:	defffd04 	addi	sp,sp,-12
  804020:	df000215 	stw	fp,8(sp)
  804024:	df000204 	addi	fp,sp,8
  804028:	e13ffe15 	stw	r4,-8(fp)
  80402c:	e17fff15 	stw	r5,-4(fp)
  804030:	e0bffe17 	ldw	r2,-8(fp)
  804034:	e0ffff17 	ldw	r3,-4(fp)
  804038:	10c00815 	stw	r3,32(r2)
  80403c:	e037883a 	mov	sp,fp
  804040:	df000017 	ldw	fp,0(sp)
  804044:	dec00104 	addi	sp,sp,4
  804048:	f800283a 	ret

0080404c <ucStreamBufferGetStreamBufferType>:
  80404c:	defffe04 	addi	sp,sp,-8
  804050:	df000115 	stw	fp,4(sp)
  804054:	df000104 	addi	fp,sp,4
  804058:	e13fff15 	stw	r4,-4(fp)
  80405c:	e0bfff17 	ldw	r2,-4(fp)
  804060:	10800703 	ldbu	r2,28(r2)
  804064:	1080004c 	andi	r2,r2,1
  804068:	e037883a 	mov	sp,fp
  80406c:	df000017 	ldw	fp,0(sp)
  804070:	dec00104 	addi	sp,sp,4
  804074:	f800283a 	ret

00804078 <xTaskCreate>:
  804078:	defff304 	addi	sp,sp,-52
  80407c:	dfc00c15 	stw	ra,48(sp)
  804080:	df000b15 	stw	fp,44(sp)
  804084:	df000b04 	addi	fp,sp,44
  804088:	e13ffc15 	stw	r4,-16(fp)
  80408c:	e17ffd15 	stw	r5,-12(fp)
  804090:	3005883a 	mov	r2,r6
  804094:	e1ffff15 	stw	r7,-4(fp)
  804098:	e0bffe0d 	sth	r2,-8(fp)
  80409c:	e0bffe0b 	ldhu	r2,-8(fp)
  8040a0:	1085883a 	add	r2,r2,r2
  8040a4:	1085883a 	add	r2,r2,r2
  8040a8:	1009883a 	mov	r4,r2
  8040ac:	08184e40 	call	8184e4 <pvPortMalloc>
  8040b0:	e0bffb15 	stw	r2,-20(fp)
  8040b4:	e0bffb17 	ldw	r2,-20(fp)
  8040b8:	10000c26 	beq	r2,zero,8040ec <xTaskCreate+0x74>
  8040bc:	01001704 	movi	r4,92
  8040c0:	08184e40 	call	8184e4 <pvPortMalloc>
  8040c4:	e0bff915 	stw	r2,-28(fp)
  8040c8:	e0bff917 	ldw	r2,-28(fp)
  8040cc:	10000426 	beq	r2,zero,8040e0 <xTaskCreate+0x68>
  8040d0:	e0bff917 	ldw	r2,-28(fp)
  8040d4:	e0fffb17 	ldw	r3,-20(fp)
  8040d8:	10c00c15 	stw	r3,48(r2)
  8040dc:	00000406 	br	8040f0 <xTaskCreate+0x78>
  8040e0:	e13ffb17 	ldw	r4,-20(fp)
  8040e4:	08186f00 	call	8186f0 <vPortFree>
  8040e8:	00000106 	br	8040f0 <xTaskCreate+0x78>
  8040ec:	e03ff915 	stw	zero,-28(fp)
  8040f0:	e0bff917 	ldw	r2,-28(fp)
  8040f4:	10001226 	beq	r2,zero,804140 <xTaskCreate+0xc8>
  8040f8:	e0fffe0b 	ldhu	r3,-8(fp)
  8040fc:	e0800217 	ldw	r2,8(fp)
  804100:	d8800015 	stw	r2,0(sp)
  804104:	e0800317 	ldw	r2,12(fp)
  804108:	d8800115 	stw	r2,4(sp)
  80410c:	e0bff917 	ldw	r2,-28(fp)
  804110:	d8800215 	stw	r2,8(sp)
  804114:	d8000315 	stw	zero,12(sp)
  804118:	e13ffc17 	ldw	r4,-16(fp)
  80411c:	e17ffd17 	ldw	r5,-12(fp)
  804120:	180d883a 	mov	r6,r3
  804124:	e1ffff17 	ldw	r7,-4(fp)
  804128:	08041600 	call	804160 <prvInitialiseNewTask>
  80412c:	e13ff917 	ldw	r4,-28(fp)
  804130:	08043640 	call	804364 <prvAddNewTaskToReadyList>
  804134:	00800044 	movi	r2,1
  804138:	e0bffa15 	stw	r2,-24(fp)
  80413c:	00000206 	br	804148 <xTaskCreate+0xd0>
  804140:	00bfffc4 	movi	r2,-1
  804144:	e0bffa15 	stw	r2,-24(fp)
  804148:	e0bffa17 	ldw	r2,-24(fp)
  80414c:	e037883a 	mov	sp,fp
  804150:	dfc00117 	ldw	ra,4(sp)
  804154:	df000017 	ldw	fp,0(sp)
  804158:	dec00204 	addi	sp,sp,8
  80415c:	f800283a 	ret

00804160 <prvInitialiseNewTask>:
  804160:	defff804 	addi	sp,sp,-32
  804164:	dfc00715 	stw	ra,28(sp)
  804168:	df000615 	stw	fp,24(sp)
  80416c:	df000604 	addi	fp,sp,24
  804170:	e13ffc15 	stw	r4,-16(fp)
  804174:	e17ffd15 	stw	r5,-12(fp)
  804178:	e1bffe15 	stw	r6,-8(fp)
  80417c:	e1ffff15 	stw	r7,-4(fp)
  804180:	e0800417 	ldw	r2,16(fp)
  804184:	10c00c17 	ldw	r3,48(r2)
  804188:	e0bffe17 	ldw	r2,-8(fp)
  80418c:	1085883a 	add	r2,r2,r2
  804190:	1085883a 	add	r2,r2,r2
  804194:	1809883a 	mov	r4,r3
  804198:	01402944 	movi	r5,165
  80419c:	100d883a 	mov	r6,r2
  8041a0:	08194800 	call	819480 <memset>
  8041a4:	e0800417 	ldw	r2,16(fp)
  8041a8:	10c00c17 	ldw	r3,48(r2)
  8041ac:	e13ffe17 	ldw	r4,-8(fp)
  8041b0:	00900034 	movhi	r2,16384
  8041b4:	10bfffc4 	addi	r2,r2,-1
  8041b8:	2085883a 	add	r2,r4,r2
  8041bc:	1085883a 	add	r2,r2,r2
  8041c0:	1085883a 	add	r2,r2,r2
  8041c4:	1885883a 	add	r2,r3,r2
  8041c8:	e0bffb15 	stw	r2,-20(fp)
  8041cc:	e0fffb17 	ldw	r3,-20(fp)
  8041d0:	00bfff04 	movi	r2,-4
  8041d4:	1884703a 	and	r2,r3,r2
  8041d8:	e0bffb15 	stw	r2,-20(fp)
  8041dc:	e0bffd17 	ldw	r2,-12(fp)
  8041e0:	10001d26 	beq	r2,zero,804258 <prvInitialiseNewTask+0xf8>
  8041e4:	e03ffa15 	stw	zero,-24(fp)
  8041e8:	00001506 	br	804240 <prvInitialiseNewTask+0xe0>
  8041ec:	e0fffd17 	ldw	r3,-12(fp)
  8041f0:	e0bffa17 	ldw	r2,-24(fp)
  8041f4:	1885883a 	add	r2,r3,r2
  8041f8:	10c00003 	ldbu	r3,0(r2)
  8041fc:	e1000417 	ldw	r4,16(fp)
  804200:	e0bffa17 	ldw	r2,-24(fp)
  804204:	2085883a 	add	r2,r4,r2
  804208:	10800d04 	addi	r2,r2,52
  80420c:	10c00005 	stb	r3,0(r2)
  804210:	e0fffd17 	ldw	r3,-12(fp)
  804214:	e0bffa17 	ldw	r2,-24(fp)
  804218:	1885883a 	add	r2,r3,r2
  80421c:	10800003 	ldbu	r2,0(r2)
  804220:	10803fcc 	andi	r2,r2,255
  804224:	1080201c 	xori	r2,r2,128
  804228:	10bfe004 	addi	r2,r2,-128
  80422c:	1000011e 	bne	r2,zero,804234 <prvInitialiseNewTask+0xd4>
  804230:	00000606 	br	80424c <prvInitialiseNewTask+0xec>
  804234:	e0bffa17 	ldw	r2,-24(fp)
  804238:	10800044 	addi	r2,r2,1
  80423c:	e0bffa15 	stw	r2,-24(fp)
  804240:	e0bffa17 	ldw	r2,-24(fp)
  804244:	10800230 	cmpltui	r2,r2,8
  804248:	103fe81e 	bne	r2,zero,8041ec <prvInitialiseNewTask+0x8c>
  80424c:	e0800417 	ldw	r2,16(fp)
  804250:	10000ec5 	stb	zero,59(r2)
  804254:	00000206 	br	804260 <prvInitialiseNewTask+0x100>
  804258:	e0800417 	ldw	r2,16(fp)
  80425c:	10000d05 	stb	zero,52(r2)
  804260:	e0800217 	ldw	r2,8(fp)
  804264:	10800270 	cmpltui	r2,r2,9
  804268:	1000021e 	bne	r2,zero,804274 <prvInitialiseNewTask+0x114>
  80426c:	00800204 	movi	r2,8
  804270:	e0800215 	stw	r2,8(fp)
  804274:	e0800417 	ldw	r2,16(fp)
  804278:	e0c00217 	ldw	r3,8(fp)
  80427c:	10c00b15 	stw	r3,44(r2)
  804280:	e0800417 	ldw	r2,16(fp)
  804284:	e0c00217 	ldw	r3,8(fp)
  804288:	10c01215 	stw	r3,72(r2)
  80428c:	e0800417 	ldw	r2,16(fp)
  804290:	10001315 	stw	zero,76(r2)
  804294:	e0800417 	ldw	r2,16(fp)
  804298:	10800104 	addi	r2,r2,4
  80429c:	1009883a 	mov	r4,r2
  8042a0:	08014fc0 	call	8014fc <vListInitialiseItem>
  8042a4:	e0800417 	ldw	r2,16(fp)
  8042a8:	10800604 	addi	r2,r2,24
  8042ac:	1009883a 	mov	r4,r2
  8042b0:	08014fc0 	call	8014fc <vListInitialiseItem>
  8042b4:	e0800417 	ldw	r2,16(fp)
  8042b8:	e0c00417 	ldw	r3,16(fp)
  8042bc:	10c00415 	stw	r3,16(r2)
  8042c0:	00c00244 	movi	r3,9
  8042c4:	e0800217 	ldw	r2,8(fp)
  8042c8:	1887c83a 	sub	r3,r3,r2
  8042cc:	e0800417 	ldw	r2,16(fp)
  8042d0:	10c00615 	stw	r3,24(r2)
  8042d4:	e0800417 	ldw	r2,16(fp)
  8042d8:	e0c00417 	ldw	r3,16(fp)
  8042dc:	10c00915 	stw	r3,36(r2)
  8042e0:	e0800417 	ldw	r2,16(fp)
  8042e4:	10000f15 	stw	zero,60(r2)
  8042e8:	e0800417 	ldw	r2,16(fp)
  8042ec:	10001415 	stw	zero,80(r2)
  8042f0:	e0800417 	ldw	r2,16(fp)
  8042f4:	10801504 	addi	r2,r2,84
  8042f8:	1009883a 	mov	r4,r2
  8042fc:	000b883a 	mov	r5,zero
  804300:	01800104 	movi	r6,4
  804304:	08194800 	call	819480 <memset>
  804308:	e0800417 	ldw	r2,16(fp)
  80430c:	10801604 	addi	r2,r2,88
  804310:	1009883a 	mov	r4,r2
  804314:	000b883a 	mov	r5,zero
  804318:	01800044 	movi	r6,1
  80431c:	08194800 	call	819480 <memset>
  804320:	e13ffb17 	ldw	r4,-20(fp)
  804324:	e17ffc17 	ldw	r5,-16(fp)
  804328:	e1bfff17 	ldw	r6,-4(fp)
  80432c:	08017400 	call	801740 <pxPortInitialiseStack>
  804330:	1007883a 	mov	r3,r2
  804334:	e0800417 	ldw	r2,16(fp)
  804338:	10c00015 	stw	r3,0(r2)
  80433c:	e0800317 	ldw	r2,12(fp)
  804340:	10000326 	beq	r2,zero,804350 <prvInitialiseNewTask+0x1f0>
  804344:	e0800317 	ldw	r2,12(fp)
  804348:	e0c00417 	ldw	r3,16(fp)
  80434c:	10c00015 	stw	r3,0(r2)
  804350:	e037883a 	mov	sp,fp
  804354:	dfc00117 	ldw	ra,4(sp)
  804358:	df000017 	ldw	fp,0(sp)
  80435c:	dec00204 	addi	sp,sp,8
  804360:	f800283a 	ret

00804364 <prvAddNewTaskToReadyList>:
  804364:	defffd04 	addi	sp,sp,-12
  804368:	dfc00215 	stw	ra,8(sp)
  80436c:	df000115 	stw	fp,4(sp)
  804370:	df000104 	addi	fp,sp,4
  804374:	e13fff15 	stw	r4,-4(fp)
  804378:	08063880 	call	806388 <vTaskEnterCritical>
  80437c:	d0a70417 	ldw	r2,-25584(gp)
  804380:	10800044 	addi	r2,r2,1
  804384:	d0a70415 	stw	r2,-25584(gp)
  804388:	d0a70017 	ldw	r2,-25600(gp)
  80438c:	1000071e 	bne	r2,zero,8043ac <prvAddNewTaskToReadyList+0x48>
  804390:	e0bfff17 	ldw	r2,-4(fp)
  804394:	d0a70015 	stw	r2,-25600(gp)
  804398:	d0a70417 	ldw	r2,-25584(gp)
  80439c:	10800058 	cmpnei	r2,r2,1
  8043a0:	10000b1e 	bne	r2,zero,8043d0 <prvAddNewTaskToReadyList+0x6c>
  8043a4:	0805a940 	call	805a94 <prvInitialiseTaskLists>
  8043a8:	00000906 	br	8043d0 <prvAddNewTaskToReadyList+0x6c>
  8043ac:	d0a70717 	ldw	r2,-25572(gp)
  8043b0:	1000071e 	bne	r2,zero,8043d0 <prvAddNewTaskToReadyList+0x6c>
  8043b4:	d0a70017 	ldw	r2,-25600(gp)
  8043b8:	10800b17 	ldw	r2,44(r2)
  8043bc:	e0ffff17 	ldw	r3,-4(fp)
  8043c0:	18c00b17 	ldw	r3,44(r3)
  8043c4:	18800236 	bltu	r3,r2,8043d0 <prvAddNewTaskToReadyList+0x6c>
  8043c8:	e0bfff17 	ldw	r2,-4(fp)
  8043cc:	d0a70015 	stw	r2,-25600(gp)
  8043d0:	d0a70b17 	ldw	r2,-25556(gp)
  8043d4:	10800044 	addi	r2,r2,1
  8043d8:	d0a70b15 	stw	r2,-25556(gp)
  8043dc:	d0e70b17 	ldw	r3,-25556(gp)
  8043e0:	e0bfff17 	ldw	r2,-4(fp)
  8043e4:	10c01015 	stw	r3,64(r2)
  8043e8:	e0bfff17 	ldw	r2,-4(fp)
  8043ec:	10800b17 	ldw	r2,44(r2)
  8043f0:	d0e70617 	ldw	r3,-25576(gp)
  8043f4:	1880032e 	bgeu	r3,r2,804404 <prvAddNewTaskToReadyList+0xa0>
  8043f8:	e0bfff17 	ldw	r2,-4(fp)
  8043fc:	10800b17 	ldw	r2,44(r2)
  804400:	d0a70615 	stw	r2,-25576(gp)
  804404:	e0bfff17 	ldw	r2,-4(fp)
  804408:	10800b17 	ldw	r2,44(r2)
  80440c:	1009883a 	mov	r4,r2
  804410:	01400504 	movi	r5,20
  804414:	08191480 	call	819148 <__mulsi3>
  804418:	1007883a 	mov	r3,r2
  80441c:	008020f4 	movhi	r2,131
  804420:	108a9c04 	addi	r2,r2,10864
  804424:	1887883a 	add	r3,r3,r2
  804428:	e0bfff17 	ldw	r2,-4(fp)
  80442c:	10800104 	addi	r2,r2,4
  804430:	1809883a 	mov	r4,r3
  804434:	100b883a 	mov	r5,r2
  804438:	08015240 	call	801524 <vListInsertEnd>
  80443c:	08063d80 	call	8063d8 <vTaskExitCritical>
  804440:	d0a70717 	ldw	r2,-25572(gp)
  804444:	10000626 	beq	r2,zero,804460 <prvAddNewTaskToReadyList+0xfc>
  804448:	d0a70017 	ldw	r2,-25600(gp)
  80444c:	10c00b17 	ldw	r3,44(r2)
  804450:	e0bfff17 	ldw	r2,-4(fp)
  804454:	10800b17 	ldw	r2,44(r2)
  804458:	1880012e 	bgeu	r3,r2,804460 <prvAddNewTaskToReadyList+0xfc>
  80445c:	003b683a 	trap	0
  804460:	e037883a 	mov	sp,fp
  804464:	dfc00117 	ldw	ra,4(sp)
  804468:	df000017 	ldw	fp,0(sp)
  80446c:	dec00204 	addi	sp,sp,8
  804470:	f800283a 	ret

00804474 <vTaskDelete>:
  804474:	defffc04 	addi	sp,sp,-16
  804478:	dfc00315 	stw	ra,12(sp)
  80447c:	df000215 	stw	fp,8(sp)
  804480:	df000204 	addi	fp,sp,8
  804484:	e13fff15 	stw	r4,-4(fp)
  804488:	08063880 	call	806388 <vTaskEnterCritical>
  80448c:	e0bfff17 	ldw	r2,-4(fp)
  804490:	1000021e 	bne	r2,zero,80449c <vTaskDelete+0x28>
  804494:	d0a70017 	ldw	r2,-25600(gp)
  804498:	00000106 	br	8044a0 <vTaskDelete+0x2c>
  80449c:	e0bfff17 	ldw	r2,-4(fp)
  8044a0:	e0bffe15 	stw	r2,-8(fp)
  8044a4:	e0bffe17 	ldw	r2,-8(fp)
  8044a8:	10800104 	addi	r2,r2,4
  8044ac:	1009883a 	mov	r4,r2
  8044b0:	08016800 	call	801680 <uxListRemove>
  8044b4:	e0bffe17 	ldw	r2,-8(fp)
  8044b8:	10800a17 	ldw	r2,40(r2)
  8044bc:	10000426 	beq	r2,zero,8044d0 <vTaskDelete+0x5c>
  8044c0:	e0bffe17 	ldw	r2,-8(fp)
  8044c4:	10800604 	addi	r2,r2,24
  8044c8:	1009883a 	mov	r4,r2
  8044cc:	08016800 	call	801680 <uxListRemove>
  8044d0:	d0a70b17 	ldw	r2,-25556(gp)
  8044d4:	10800044 	addi	r2,r2,1
  8044d8:	d0a70b15 	stw	r2,-25556(gp)
  8044dc:	d0a70017 	ldw	r2,-25600(gp)
  8044e0:	e0fffe17 	ldw	r3,-8(fp)
  8044e4:	18800a1e 	bne	r3,r2,804510 <vTaskDelete+0x9c>
  8044e8:	e0bffe17 	ldw	r2,-8(fp)
  8044ec:	10800104 	addi	r2,r2,4
  8044f0:	010020f4 	movhi	r4,131
  8044f4:	210ad804 	addi	r4,r4,11104
  8044f8:	100b883a 	mov	r5,r2
  8044fc:	08015240 	call	801524 <vListInsertEnd>
  804500:	d0a70317 	ldw	r2,-25588(gp)
  804504:	10800044 	addi	r2,r2,1
  804508:	d0a70315 	stw	r2,-25588(gp)
  80450c:	00000606 	br	804528 <vTaskDelete+0xb4>
  804510:	d0a70417 	ldw	r2,-25584(gp)
  804514:	10bfffc4 	addi	r2,r2,-1
  804518:	d0a70415 	stw	r2,-25584(gp)
  80451c:	e13ffe17 	ldw	r4,-8(fp)
  804520:	0805f1c0 	call	805f1c <prvDeleteTCB>
  804524:	0805f5c0 	call	805f5c <prvResetNextTaskUnblockTime>
  804528:	08063d80 	call	8063d8 <vTaskExitCritical>
  80452c:	d0a70717 	ldw	r2,-25572(gp)
  804530:	10000426 	beq	r2,zero,804544 <vTaskDelete+0xd0>
  804534:	d0a70017 	ldw	r2,-25600(gp)
  804538:	e0fffe17 	ldw	r3,-8(fp)
  80453c:	1880011e 	bne	r3,r2,804544 <vTaskDelete+0xd0>
  804540:	003b683a 	trap	0
  804544:	e037883a 	mov	sp,fp
  804548:	dfc00117 	ldw	ra,4(sp)
  80454c:	df000017 	ldw	fp,0(sp)
  804550:	dec00204 	addi	sp,sp,8
  804554:	f800283a 	ret

00804558 <xTaskDelayUntil>:
  804558:	defff804 	addi	sp,sp,-32
  80455c:	dfc00715 	stw	ra,28(sp)
  804560:	df000615 	stw	fp,24(sp)
  804564:	df000604 	addi	fp,sp,24
  804568:	e13ffe15 	stw	r4,-8(fp)
  80456c:	e17fff15 	stw	r5,-4(fp)
  804570:	e03ffa15 	stw	zero,-24(fp)
  804574:	0804e700 	call	804e70 <vTaskSuspendAll>
  804578:	d0a70517 	ldw	r2,-25580(gp)
  80457c:	e0bffb15 	stw	r2,-20(fp)
  804580:	e0bffe17 	ldw	r2,-8(fp)
  804584:	10c00017 	ldw	r3,0(r2)
  804588:	e0bfff17 	ldw	r2,-4(fp)
  80458c:	1885883a 	add	r2,r3,r2
  804590:	e0bffc15 	stw	r2,-16(fp)
  804594:	e0bffe17 	ldw	r2,-8(fp)
  804598:	10800017 	ldw	r2,0(r2)
  80459c:	e0fffb17 	ldw	r3,-20(fp)
  8045a0:	18800a2e 	bgeu	r3,r2,8045cc <xTaskDelayUntil+0x74>
  8045a4:	e0bffe17 	ldw	r2,-8(fp)
  8045a8:	10800017 	ldw	r2,0(r2)
  8045ac:	e0fffc17 	ldw	r3,-16(fp)
  8045b0:	18800f2e 	bgeu	r3,r2,8045f0 <xTaskDelayUntil+0x98>
  8045b4:	e0bffc17 	ldw	r2,-16(fp)
  8045b8:	e0fffb17 	ldw	r3,-20(fp)
  8045bc:	18800c2e 	bgeu	r3,r2,8045f0 <xTaskDelayUntil+0x98>
  8045c0:	00800044 	movi	r2,1
  8045c4:	e0bffa15 	stw	r2,-24(fp)
  8045c8:	00000906 	br	8045f0 <xTaskDelayUntil+0x98>
  8045cc:	e0bffe17 	ldw	r2,-8(fp)
  8045d0:	10800017 	ldw	r2,0(r2)
  8045d4:	e0fffc17 	ldw	r3,-16(fp)
  8045d8:	18800336 	bltu	r3,r2,8045e8 <xTaskDelayUntil+0x90>
  8045dc:	e0bffc17 	ldw	r2,-16(fp)
  8045e0:	e0fffb17 	ldw	r3,-20(fp)
  8045e4:	1880022e 	bgeu	r3,r2,8045f0 <xTaskDelayUntil+0x98>
  8045e8:	00800044 	movi	r2,1
  8045ec:	e0bffa15 	stw	r2,-24(fp)
  8045f0:	e0bffe17 	ldw	r2,-8(fp)
  8045f4:	e0fffc17 	ldw	r3,-16(fp)
  8045f8:	10c00015 	stw	r3,0(r2)
  8045fc:	e0bffa17 	ldw	r2,-24(fp)
  804600:	10000626 	beq	r2,zero,80461c <xTaskDelayUntil+0xc4>
  804604:	e0fffc17 	ldw	r3,-16(fp)
  804608:	e0bffb17 	ldw	r2,-20(fp)
  80460c:	1885c83a 	sub	r2,r3,r2
  804610:	1009883a 	mov	r4,r2
  804614:	000b883a 	mov	r5,zero
  804618:	080732c0 	call	80732c <prvAddCurrentTaskToDelayedList>
  80461c:	0804e980 	call	804e98 <xTaskResumeAll>
  804620:	e0bffd15 	stw	r2,-12(fp)
  804624:	e0bffd17 	ldw	r2,-12(fp)
  804628:	1000011e 	bne	r2,zero,804630 <xTaskDelayUntil+0xd8>
  80462c:	003b683a 	trap	0
  804630:	e0bffa17 	ldw	r2,-24(fp)
  804634:	e037883a 	mov	sp,fp
  804638:	dfc00117 	ldw	ra,4(sp)
  80463c:	df000017 	ldw	fp,0(sp)
  804640:	dec00204 	addi	sp,sp,8
  804644:	f800283a 	ret

00804648 <vTaskDelay>:
  804648:	defffc04 	addi	sp,sp,-16
  80464c:	dfc00315 	stw	ra,12(sp)
  804650:	df000215 	stw	fp,8(sp)
  804654:	df000204 	addi	fp,sp,8
  804658:	e13fff15 	stw	r4,-4(fp)
  80465c:	e03ffe15 	stw	zero,-8(fp)
  804660:	e0bfff17 	ldw	r2,-4(fp)
  804664:	10000626 	beq	r2,zero,804680 <vTaskDelay+0x38>
  804668:	0804e700 	call	804e70 <vTaskSuspendAll>
  80466c:	e13fff17 	ldw	r4,-4(fp)
  804670:	000b883a 	mov	r5,zero
  804674:	080732c0 	call	80732c <prvAddCurrentTaskToDelayedList>
  804678:	0804e980 	call	804e98 <xTaskResumeAll>
  80467c:	e0bffe15 	stw	r2,-8(fp)
  804680:	e0bffe17 	ldw	r2,-8(fp)
  804684:	1000011e 	bne	r2,zero,80468c <vTaskDelay+0x44>
  804688:	003b683a 	trap	0
  80468c:	e037883a 	mov	sp,fp
  804690:	dfc00117 	ldw	ra,4(sp)
  804694:	df000017 	ldw	fp,0(sp)
  804698:	dec00204 	addi	sp,sp,8
  80469c:	f800283a 	ret

008046a0 <eTaskGetState>:
  8046a0:	defff704 	addi	sp,sp,-36
  8046a4:	dfc00815 	stw	ra,32(sp)
  8046a8:	df000715 	stw	fp,28(sp)
  8046ac:	df000704 	addi	fp,sp,28
  8046b0:	e13fff15 	stw	r4,-4(fp)
  8046b4:	e0bfff17 	ldw	r2,-4(fp)
  8046b8:	e0bffb15 	stw	r2,-20(fp)
  8046bc:	d0a70017 	ldw	r2,-25600(gp)
  8046c0:	e0fffb17 	ldw	r3,-20(fp)
  8046c4:	1880021e 	bne	r3,r2,8046d0 <eTaskGetState+0x30>
  8046c8:	e03ff915 	stw	zero,-28(fp)
  8046cc:	00003c06 	br	8047c0 <eTaskGetState+0x120>
  8046d0:	08063880 	call	806388 <vTaskEnterCritical>
  8046d4:	e0bffb17 	ldw	r2,-20(fp)
  8046d8:	10800517 	ldw	r2,20(r2)
  8046dc:	e0bffc15 	stw	r2,-16(fp)
  8046e0:	d0a70117 	ldw	r2,-25596(gp)
  8046e4:	e0bffd15 	stw	r2,-12(fp)
  8046e8:	d0a70217 	ldw	r2,-25592(gp)
  8046ec:	e0bffe15 	stw	r2,-8(fp)
  8046f0:	08063d80 	call	8063d8 <vTaskExitCritical>
  8046f4:	e0fffc17 	ldw	r3,-16(fp)
  8046f8:	e0bffd17 	ldw	r2,-12(fp)
  8046fc:	18800326 	beq	r3,r2,80470c <eTaskGetState+0x6c>
  804700:	e0fffc17 	ldw	r3,-16(fp)
  804704:	e0bffe17 	ldw	r2,-8(fp)
  804708:	1880031e 	bne	r3,r2,804718 <eTaskGetState+0x78>
  80470c:	00800084 	movi	r2,2
  804710:	e0bff915 	stw	r2,-28(fp)
  804714:	00002a06 	br	8047c0 <eTaskGetState+0x120>
  804718:	e0fffc17 	ldw	r3,-16(fp)
  80471c:	008020f4 	movhi	r2,131
  804720:	108add04 	addi	r2,r2,11124
  804724:	18801b1e 	bne	r3,r2,804794 <eTaskGetState+0xf4>
  804728:	e0bffb17 	ldw	r2,-20(fp)
  80472c:	10800a17 	ldw	r2,40(r2)
  804730:	1000151e 	bne	r2,zero,804788 <eTaskGetState+0xe8>
  804734:	008000c4 	movi	r2,3
  804738:	e0bff915 	stw	r2,-28(fp)
  80473c:	e03ffa15 	stw	zero,-24(fp)
  804740:	00000e06 	br	80477c <eTaskGetState+0xdc>
  804744:	e0fffb17 	ldw	r3,-20(fp)
  804748:	e0bffa17 	ldw	r2,-24(fp)
  80474c:	1885883a 	add	r2,r3,r2
  804750:	10801604 	addi	r2,r2,88
  804754:	10800003 	ldbu	r2,0(r2)
  804758:	10803fcc 	andi	r2,r2,255
  80475c:	10800058 	cmpnei	r2,r2,1
  804760:	1000031e 	bne	r2,zero,804770 <eTaskGetState+0xd0>
  804764:	00800084 	movi	r2,2
  804768:	e0bff915 	stw	r2,-28(fp)
  80476c:	00000506 	br	804784 <eTaskGetState+0xe4>
  804770:	e0bffa17 	ldw	r2,-24(fp)
  804774:	10800044 	addi	r2,r2,1
  804778:	e0bffa15 	stw	r2,-24(fp)
  80477c:	e0bffa17 	ldw	r2,-24(fp)
  804780:	00bff00e 	bge	zero,r2,804744 <eTaskGetState+0xa4>
  804784:	00000e06 	br	8047c0 <eTaskGetState+0x120>
  804788:	00800084 	movi	r2,2
  80478c:	e0bff915 	stw	r2,-28(fp)
  804790:	00000b06 	br	8047c0 <eTaskGetState+0x120>
  804794:	e0fffc17 	ldw	r3,-16(fp)
  804798:	008020f4 	movhi	r2,131
  80479c:	108ad804 	addi	r2,r2,11104
  8047a0:	18800226 	beq	r3,r2,8047ac <eTaskGetState+0x10c>
  8047a4:	e0bffc17 	ldw	r2,-16(fp)
  8047a8:	1000031e 	bne	r2,zero,8047b8 <eTaskGetState+0x118>
  8047ac:	00800104 	movi	r2,4
  8047b0:	e0bff915 	stw	r2,-28(fp)
  8047b4:	00000206 	br	8047c0 <eTaskGetState+0x120>
  8047b8:	00800044 	movi	r2,1
  8047bc:	e0bff915 	stw	r2,-28(fp)
  8047c0:	e0bff917 	ldw	r2,-28(fp)
  8047c4:	e037883a 	mov	sp,fp
  8047c8:	dfc00117 	ldw	ra,4(sp)
  8047cc:	df000017 	ldw	fp,0(sp)
  8047d0:	dec00204 	addi	sp,sp,8
  8047d4:	f800283a 	ret

008047d8 <uxTaskPriorityGet>:
  8047d8:	defffb04 	addi	sp,sp,-20
  8047dc:	dfc00415 	stw	ra,16(sp)
  8047e0:	df000315 	stw	fp,12(sp)
  8047e4:	df000304 	addi	fp,sp,12
  8047e8:	e13fff15 	stw	r4,-4(fp)
  8047ec:	08063880 	call	806388 <vTaskEnterCritical>
  8047f0:	e0bfff17 	ldw	r2,-4(fp)
  8047f4:	1000021e 	bne	r2,zero,804800 <uxTaskPriorityGet+0x28>
  8047f8:	d0a70017 	ldw	r2,-25600(gp)
  8047fc:	00000106 	br	804804 <uxTaskPriorityGet+0x2c>
  804800:	e0bfff17 	ldw	r2,-4(fp)
  804804:	e0bffd15 	stw	r2,-12(fp)
  804808:	e0bffd17 	ldw	r2,-12(fp)
  80480c:	10800b17 	ldw	r2,44(r2)
  804810:	e0bffe15 	stw	r2,-8(fp)
  804814:	08063d80 	call	8063d8 <vTaskExitCritical>
  804818:	e0bffe17 	ldw	r2,-8(fp)
  80481c:	e037883a 	mov	sp,fp
  804820:	dfc00117 	ldw	ra,4(sp)
  804824:	df000017 	ldw	fp,0(sp)
  804828:	dec00204 	addi	sp,sp,8
  80482c:	f800283a 	ret

00804830 <uxTaskPriorityGetFromISR>:
  804830:	defffb04 	addi	sp,sp,-20
  804834:	df000415 	stw	fp,16(sp)
  804838:	df000404 	addi	fp,sp,16
  80483c:	e13fff15 	stw	r4,-4(fp)
  804840:	e03ffc15 	stw	zero,-16(fp)
  804844:	e0bfff17 	ldw	r2,-4(fp)
  804848:	1000021e 	bne	r2,zero,804854 <uxTaskPriorityGetFromISR+0x24>
  80484c:	d0a70017 	ldw	r2,-25600(gp)
  804850:	00000106 	br	804858 <uxTaskPriorityGetFromISR+0x28>
  804854:	e0bfff17 	ldw	r2,-4(fp)
  804858:	e0bffd15 	stw	r2,-12(fp)
  80485c:	e0bffd17 	ldw	r2,-12(fp)
  804860:	10800b17 	ldw	r2,44(r2)
  804864:	e0bffe15 	stw	r2,-8(fp)
  804868:	e0bffe17 	ldw	r2,-8(fp)
  80486c:	e037883a 	mov	sp,fp
  804870:	df000017 	ldw	fp,0(sp)
  804874:	dec00104 	addi	sp,sp,4
  804878:	f800283a 	ret

0080487c <vTaskPrioritySet>:
  80487c:	defff704 	addi	sp,sp,-36
  804880:	dfc00815 	stw	ra,32(sp)
  804884:	df000715 	stw	fp,28(sp)
  804888:	dc000615 	stw	r16,24(sp)
  80488c:	df000704 	addi	fp,sp,28
  804890:	e13ffd15 	stw	r4,-12(fp)
  804894:	e17ffe15 	stw	r5,-8(fp)
  804898:	e03ff915 	stw	zero,-28(fp)
  80489c:	e0bffe17 	ldw	r2,-8(fp)
  8048a0:	10800270 	cmpltui	r2,r2,9
  8048a4:	1000021e 	bne	r2,zero,8048b0 <vTaskPrioritySet+0x34>
  8048a8:	00800204 	movi	r2,8
  8048ac:	e0bffe15 	stw	r2,-8(fp)
  8048b0:	08063880 	call	806388 <vTaskEnterCritical>
  8048b4:	e0bffd17 	ldw	r2,-12(fp)
  8048b8:	1000021e 	bne	r2,zero,8048c4 <vTaskPrioritySet+0x48>
  8048bc:	d0a70017 	ldw	r2,-25600(gp)
  8048c0:	00000106 	br	8048c8 <vTaskPrioritySet+0x4c>
  8048c4:	e0bffd17 	ldw	r2,-12(fp)
  8048c8:	e0bffa15 	stw	r2,-24(fp)
  8048cc:	e0bffa17 	ldw	r2,-24(fp)
  8048d0:	10801217 	ldw	r2,72(r2)
  8048d4:	e0bffb15 	stw	r2,-20(fp)
  8048d8:	e0fffb17 	ldw	r3,-20(fp)
  8048dc:	e0bffe17 	ldw	r2,-8(fp)
  8048e0:	18804e26 	beq	r3,r2,804a1c <vTaskPrioritySet+0x1a0>
  8048e4:	e0bffe17 	ldw	r2,-8(fp)
  8048e8:	e0fffb17 	ldw	r3,-20(fp)
  8048ec:	18800a2e 	bgeu	r3,r2,804918 <vTaskPrioritySet+0x9c>
  8048f0:	d0a70017 	ldw	r2,-25600(gp)
  8048f4:	e0fffa17 	ldw	r3,-24(fp)
  8048f8:	18800c26 	beq	r3,r2,80492c <vTaskPrioritySet+0xb0>
  8048fc:	d0a70017 	ldw	r2,-25600(gp)
  804900:	10800b17 	ldw	r2,44(r2)
  804904:	e0fffe17 	ldw	r3,-8(fp)
  804908:	18800836 	bltu	r3,r2,80492c <vTaskPrioritySet+0xb0>
  80490c:	00800044 	movi	r2,1
  804910:	e0bff915 	stw	r2,-28(fp)
  804914:	00000506 	br	80492c <vTaskPrioritySet+0xb0>
  804918:	d0a70017 	ldw	r2,-25600(gp)
  80491c:	e0fffa17 	ldw	r3,-24(fp)
  804920:	1880021e 	bne	r3,r2,80492c <vTaskPrioritySet+0xb0>
  804924:	00800044 	movi	r2,1
  804928:	e0bff915 	stw	r2,-28(fp)
  80492c:	e0bffa17 	ldw	r2,-24(fp)
  804930:	10800b17 	ldw	r2,44(r2)
  804934:	e0bffc15 	stw	r2,-16(fp)
  804938:	e0bffa17 	ldw	r2,-24(fp)
  80493c:	10c01217 	ldw	r3,72(r2)
  804940:	e0bffa17 	ldw	r2,-24(fp)
  804944:	10800b17 	ldw	r2,44(r2)
  804948:	1880031e 	bne	r3,r2,804958 <vTaskPrioritySet+0xdc>
  80494c:	e0bffa17 	ldw	r2,-24(fp)
  804950:	e0fffe17 	ldw	r3,-8(fp)
  804954:	10c00b15 	stw	r3,44(r2)
  804958:	e0bffa17 	ldw	r2,-24(fp)
  80495c:	e0fffe17 	ldw	r3,-8(fp)
  804960:	10c01215 	stw	r3,72(r2)
  804964:	e0bffa17 	ldw	r2,-24(fp)
  804968:	10800617 	ldw	r2,24(r2)
  80496c:	10000516 	blt	r2,zero,804984 <vTaskPrioritySet+0x108>
  804970:	00c00244 	movi	r3,9
  804974:	e0bffe17 	ldw	r2,-8(fp)
  804978:	1887c83a 	sub	r3,r3,r2
  80497c:	e0bffa17 	ldw	r2,-24(fp)
  804980:	10c00615 	stw	r3,24(r2)
  804984:	e0bffa17 	ldw	r2,-24(fp)
  804988:	14000517 	ldw	r16,20(r2)
  80498c:	e13ffc17 	ldw	r4,-16(fp)
  804990:	01400504 	movi	r5,20
  804994:	08191480 	call	819148 <__mulsi3>
  804998:	1007883a 	mov	r3,r2
  80499c:	008020f4 	movhi	r2,131
  8049a0:	108a9c04 	addi	r2,r2,10864
  8049a4:	1885883a 	add	r2,r3,r2
  8049a8:	8080191e 	bne	r16,r2,804a10 <vTaskPrioritySet+0x194>
  8049ac:	e0bffa17 	ldw	r2,-24(fp)
  8049b0:	10800104 	addi	r2,r2,4
  8049b4:	1009883a 	mov	r4,r2
  8049b8:	08016800 	call	801680 <uxListRemove>
  8049bc:	e0bffa17 	ldw	r2,-24(fp)
  8049c0:	10800b17 	ldw	r2,44(r2)
  8049c4:	d0e70617 	ldw	r3,-25576(gp)
  8049c8:	1880032e 	bgeu	r3,r2,8049d8 <vTaskPrioritySet+0x15c>
  8049cc:	e0bffa17 	ldw	r2,-24(fp)
  8049d0:	10800b17 	ldw	r2,44(r2)
  8049d4:	d0a70615 	stw	r2,-25576(gp)
  8049d8:	e0bffa17 	ldw	r2,-24(fp)
  8049dc:	10800b17 	ldw	r2,44(r2)
  8049e0:	1009883a 	mov	r4,r2
  8049e4:	01400504 	movi	r5,20
  8049e8:	08191480 	call	819148 <__mulsi3>
  8049ec:	1007883a 	mov	r3,r2
  8049f0:	008020f4 	movhi	r2,131
  8049f4:	108a9c04 	addi	r2,r2,10864
  8049f8:	1887883a 	add	r3,r3,r2
  8049fc:	e0bffa17 	ldw	r2,-24(fp)
  804a00:	10800104 	addi	r2,r2,4
  804a04:	1809883a 	mov	r4,r3
  804a08:	100b883a 	mov	r5,r2
  804a0c:	08015240 	call	801524 <vListInsertEnd>
  804a10:	e0bff917 	ldw	r2,-28(fp)
  804a14:	10000126 	beq	r2,zero,804a1c <vTaskPrioritySet+0x1a0>
  804a18:	003b683a 	trap	0
  804a1c:	08063d80 	call	8063d8 <vTaskExitCritical>
  804a20:	e6ffff04 	addi	sp,fp,-4
  804a24:	dfc00217 	ldw	ra,8(sp)
  804a28:	df000117 	ldw	fp,4(sp)
  804a2c:	dc000017 	ldw	r16,0(sp)
  804a30:	dec00304 	addi	sp,sp,12
  804a34:	f800283a 	ret

00804a38 <vTaskSuspend>:
  804a38:	defffb04 	addi	sp,sp,-20
  804a3c:	dfc00415 	stw	ra,16(sp)
  804a40:	df000315 	stw	fp,12(sp)
  804a44:	df000304 	addi	fp,sp,12
  804a48:	e13fff15 	stw	r4,-4(fp)
  804a4c:	08063880 	call	806388 <vTaskEnterCritical>
  804a50:	e0bfff17 	ldw	r2,-4(fp)
  804a54:	1000021e 	bne	r2,zero,804a60 <vTaskSuspend+0x28>
  804a58:	d0a70017 	ldw	r2,-25600(gp)
  804a5c:	00000106 	br	804a64 <vTaskSuspend+0x2c>
  804a60:	e0bfff17 	ldw	r2,-4(fp)
  804a64:	e0bffe15 	stw	r2,-8(fp)
  804a68:	e0bffe17 	ldw	r2,-8(fp)
  804a6c:	10800104 	addi	r2,r2,4
  804a70:	1009883a 	mov	r4,r2
  804a74:	08016800 	call	801680 <uxListRemove>
  804a78:	e0bffe17 	ldw	r2,-8(fp)
  804a7c:	10800a17 	ldw	r2,40(r2)
  804a80:	10000426 	beq	r2,zero,804a94 <vTaskSuspend+0x5c>
  804a84:	e0bffe17 	ldw	r2,-8(fp)
  804a88:	10800604 	addi	r2,r2,24
  804a8c:	1009883a 	mov	r4,r2
  804a90:	08016800 	call	801680 <uxListRemove>
  804a94:	e0bffe17 	ldw	r2,-8(fp)
  804a98:	10800104 	addi	r2,r2,4
  804a9c:	010020f4 	movhi	r4,131
  804aa0:	210add04 	addi	r4,r4,11124
  804aa4:	100b883a 	mov	r5,r2
  804aa8:	08015240 	call	801524 <vListInsertEnd>
  804aac:	e03ffd15 	stw	zero,-12(fp)
  804ab0:	00001006 	br	804af4 <vTaskSuspend+0xbc>
  804ab4:	e0fffe17 	ldw	r3,-8(fp)
  804ab8:	e0bffd17 	ldw	r2,-12(fp)
  804abc:	1885883a 	add	r2,r3,r2
  804ac0:	10801604 	addi	r2,r2,88
  804ac4:	10800003 	ldbu	r2,0(r2)
  804ac8:	10803fcc 	andi	r2,r2,255
  804acc:	10800058 	cmpnei	r2,r2,1
  804ad0:	1000051e 	bne	r2,zero,804ae8 <vTaskSuspend+0xb0>
  804ad4:	e0fffe17 	ldw	r3,-8(fp)
  804ad8:	e0bffd17 	ldw	r2,-12(fp)
  804adc:	1885883a 	add	r2,r3,r2
  804ae0:	10801604 	addi	r2,r2,88
  804ae4:	10000005 	stb	zero,0(r2)
  804ae8:	e0bffd17 	ldw	r2,-12(fp)
  804aec:	10800044 	addi	r2,r2,1
  804af0:	e0bffd15 	stw	r2,-12(fp)
  804af4:	e0bffd17 	ldw	r2,-12(fp)
  804af8:	00bfee0e 	bge	zero,r2,804ab4 <vTaskSuspend+0x7c>
  804afc:	08063d80 	call	8063d8 <vTaskExitCritical>
  804b00:	d0a70717 	ldw	r2,-25572(gp)
  804b04:	10000326 	beq	r2,zero,804b14 <vTaskSuspend+0xdc>
  804b08:	08063880 	call	806388 <vTaskEnterCritical>
  804b0c:	0805f5c0 	call	805f5c <prvResetNextTaskUnblockTime>
  804b10:	08063d80 	call	8063d8 <vTaskExitCritical>
  804b14:	d0a70017 	ldw	r2,-25600(gp)
  804b18:	e0fffe17 	ldw	r3,-8(fp)
  804b1c:	18800c1e 	bne	r3,r2,804b50 <vTaskSuspend+0x118>
  804b20:	d0a70717 	ldw	r2,-25572(gp)
  804b24:	10000226 	beq	r2,zero,804b30 <vTaskSuspend+0xf8>
  804b28:	003b683a 	trap	0
  804b2c:	00000806 	br	804b50 <vTaskSuspend+0x118>
  804b30:	008020f4 	movhi	r2,131
  804b34:	108add04 	addi	r2,r2,11124
  804b38:	10c00017 	ldw	r3,0(r2)
  804b3c:	d0a70417 	ldw	r2,-25584(gp)
  804b40:	1880021e 	bne	r3,r2,804b4c <vTaskSuspend+0x114>
  804b44:	d0270015 	stw	zero,-25600(gp)
  804b48:	00000106 	br	804b50 <vTaskSuspend+0x118>
  804b4c:	08054900 	call	805490 <vTaskSwitchContext>
  804b50:	e037883a 	mov	sp,fp
  804b54:	dfc00117 	ldw	ra,4(sp)
  804b58:	df000017 	ldw	fp,0(sp)
  804b5c:	dec00204 	addi	sp,sp,8
  804b60:	f800283a 	ret

00804b64 <prvTaskIsTaskSuspended>:
  804b64:	defffc04 	addi	sp,sp,-16
  804b68:	df000315 	stw	fp,12(sp)
  804b6c:	df000304 	addi	fp,sp,12
  804b70:	e13fff15 	stw	r4,-4(fp)
  804b74:	e03ffd15 	stw	zero,-12(fp)
  804b78:	e0bfff17 	ldw	r2,-4(fp)
  804b7c:	e0bffe15 	stw	r2,-8(fp)
  804b80:	e0bffe17 	ldw	r2,-8(fp)
  804b84:	10c00517 	ldw	r3,20(r2)
  804b88:	008020f4 	movhi	r2,131
  804b8c:	108add04 	addi	r2,r2,11124
  804b90:	18800a1e 	bne	r3,r2,804bbc <prvTaskIsTaskSuspended+0x58>
  804b94:	e0bffe17 	ldw	r2,-8(fp)
  804b98:	10c00a17 	ldw	r3,40(r2)
  804b9c:	008020f4 	movhi	r2,131
  804ba0:	108ad304 	addi	r2,r2,11084
  804ba4:	18800526 	beq	r3,r2,804bbc <prvTaskIsTaskSuspended+0x58>
  804ba8:	e0bffe17 	ldw	r2,-8(fp)
  804bac:	10800a17 	ldw	r2,40(r2)
  804bb0:	1000021e 	bne	r2,zero,804bbc <prvTaskIsTaskSuspended+0x58>
  804bb4:	00800044 	movi	r2,1
  804bb8:	e0bffd15 	stw	r2,-12(fp)
  804bbc:	e0bffd17 	ldw	r2,-12(fp)
  804bc0:	e037883a 	mov	sp,fp
  804bc4:	df000017 	ldw	fp,0(sp)
  804bc8:	dec00104 	addi	sp,sp,4
  804bcc:	f800283a 	ret

00804bd0 <vTaskResume>:
  804bd0:	defffc04 	addi	sp,sp,-16
  804bd4:	dfc00315 	stw	ra,12(sp)
  804bd8:	df000215 	stw	fp,8(sp)
  804bdc:	df000204 	addi	fp,sp,8
  804be0:	e13fff15 	stw	r4,-4(fp)
  804be4:	e0bfff17 	ldw	r2,-4(fp)
  804be8:	e0bffe15 	stw	r2,-8(fp)
  804bec:	d0a70017 	ldw	r2,-25600(gp)
  804bf0:	e0fffe17 	ldw	r3,-8(fp)
  804bf4:	18802626 	beq	r3,r2,804c90 <vTaskResume+0xc0>
  804bf8:	e0bffe17 	ldw	r2,-8(fp)
  804bfc:	10002426 	beq	r2,zero,804c90 <vTaskResume+0xc0>
  804c00:	08063880 	call	806388 <vTaskEnterCritical>
  804c04:	e13ffe17 	ldw	r4,-8(fp)
  804c08:	0804b640 	call	804b64 <prvTaskIsTaskSuspended>
  804c0c:	10001f26 	beq	r2,zero,804c8c <vTaskResume+0xbc>
  804c10:	e0bffe17 	ldw	r2,-8(fp)
  804c14:	10800104 	addi	r2,r2,4
  804c18:	1009883a 	mov	r4,r2
  804c1c:	08016800 	call	801680 <uxListRemove>
  804c20:	e0bffe17 	ldw	r2,-8(fp)
  804c24:	10800b17 	ldw	r2,44(r2)
  804c28:	d0e70617 	ldw	r3,-25576(gp)
  804c2c:	1880032e 	bgeu	r3,r2,804c3c <vTaskResume+0x6c>
  804c30:	e0bffe17 	ldw	r2,-8(fp)
  804c34:	10800b17 	ldw	r2,44(r2)
  804c38:	d0a70615 	stw	r2,-25576(gp)
  804c3c:	e0bffe17 	ldw	r2,-8(fp)
  804c40:	10800b17 	ldw	r2,44(r2)
  804c44:	1009883a 	mov	r4,r2
  804c48:	01400504 	movi	r5,20
  804c4c:	08191480 	call	819148 <__mulsi3>
  804c50:	1007883a 	mov	r3,r2
  804c54:	008020f4 	movhi	r2,131
  804c58:	108a9c04 	addi	r2,r2,10864
  804c5c:	1887883a 	add	r3,r3,r2
  804c60:	e0bffe17 	ldw	r2,-8(fp)
  804c64:	10800104 	addi	r2,r2,4
  804c68:	1809883a 	mov	r4,r3
  804c6c:	100b883a 	mov	r5,r2
  804c70:	08015240 	call	801524 <vListInsertEnd>
  804c74:	e0bffe17 	ldw	r2,-8(fp)
  804c78:	10c00b17 	ldw	r3,44(r2)
  804c7c:	d0a70017 	ldw	r2,-25600(gp)
  804c80:	10800b17 	ldw	r2,44(r2)
  804c84:	18800136 	bltu	r3,r2,804c8c <vTaskResume+0xbc>
  804c88:	003b683a 	trap	0
  804c8c:	08063d80 	call	8063d8 <vTaskExitCritical>
  804c90:	e037883a 	mov	sp,fp
  804c94:	dfc00117 	ldw	ra,4(sp)
  804c98:	df000017 	ldw	fp,0(sp)
  804c9c:	dec00204 	addi	sp,sp,8
  804ca0:	f800283a 	ret

00804ca4 <xTaskResumeFromISR>:
  804ca4:	defffa04 	addi	sp,sp,-24
  804ca8:	dfc00515 	stw	ra,20(sp)
  804cac:	df000415 	stw	fp,16(sp)
  804cb0:	df000404 	addi	fp,sp,16
  804cb4:	e13fff15 	stw	r4,-4(fp)
  804cb8:	e03ffc15 	stw	zero,-16(fp)
  804cbc:	e0bfff17 	ldw	r2,-4(fp)
  804cc0:	e0bffd15 	stw	r2,-12(fp)
  804cc4:	e03ffe15 	stw	zero,-8(fp)
  804cc8:	e13ffd17 	ldw	r4,-12(fp)
  804ccc:	0804b640 	call	804b64 <prvTaskIsTaskSuspended>
  804cd0:	10002b26 	beq	r2,zero,804d80 <xTaskResumeFromISR+0xdc>
  804cd4:	d0a70e17 	ldw	r2,-25544(gp)
  804cd8:	1000231e 	bne	r2,zero,804d68 <xTaskResumeFromISR+0xc4>
  804cdc:	e0bffd17 	ldw	r2,-12(fp)
  804ce0:	10c00b17 	ldw	r3,44(r2)
  804ce4:	d0a70017 	ldw	r2,-25600(gp)
  804ce8:	10800b17 	ldw	r2,44(r2)
  804cec:	18800436 	bltu	r3,r2,804d00 <xTaskResumeFromISR+0x5c>
  804cf0:	00800044 	movi	r2,1
  804cf4:	e0bffc15 	stw	r2,-16(fp)
  804cf8:	00800044 	movi	r2,1
  804cfc:	d0a70915 	stw	r2,-25564(gp)
  804d00:	e0bffd17 	ldw	r2,-12(fp)
  804d04:	10800104 	addi	r2,r2,4
  804d08:	1009883a 	mov	r4,r2
  804d0c:	08016800 	call	801680 <uxListRemove>
  804d10:	e0bffd17 	ldw	r2,-12(fp)
  804d14:	10800b17 	ldw	r2,44(r2)
  804d18:	d0e70617 	ldw	r3,-25576(gp)
  804d1c:	1880032e 	bgeu	r3,r2,804d2c <xTaskResumeFromISR+0x88>
  804d20:	e0bffd17 	ldw	r2,-12(fp)
  804d24:	10800b17 	ldw	r2,44(r2)
  804d28:	d0a70615 	stw	r2,-25576(gp)
  804d2c:	e0bffd17 	ldw	r2,-12(fp)
  804d30:	10800b17 	ldw	r2,44(r2)
  804d34:	1009883a 	mov	r4,r2
  804d38:	01400504 	movi	r5,20
  804d3c:	08191480 	call	819148 <__mulsi3>
  804d40:	1007883a 	mov	r3,r2
  804d44:	008020f4 	movhi	r2,131
  804d48:	108a9c04 	addi	r2,r2,10864
  804d4c:	1887883a 	add	r3,r3,r2
  804d50:	e0bffd17 	ldw	r2,-12(fp)
  804d54:	10800104 	addi	r2,r2,4
  804d58:	1809883a 	mov	r4,r3
  804d5c:	100b883a 	mov	r5,r2
  804d60:	08015240 	call	801524 <vListInsertEnd>
  804d64:	00000606 	br	804d80 <xTaskResumeFromISR+0xdc>
  804d68:	e0bffd17 	ldw	r2,-12(fp)
  804d6c:	10800604 	addi	r2,r2,24
  804d70:	010020f4 	movhi	r4,131
  804d74:	210ad304 	addi	r4,r4,11084
  804d78:	100b883a 	mov	r5,r2
  804d7c:	08015240 	call	801524 <vListInsertEnd>
  804d80:	e0bffc17 	ldw	r2,-16(fp)
  804d84:	e037883a 	mov	sp,fp
  804d88:	dfc00117 	ldw	ra,4(sp)
  804d8c:	df000017 	ldw	fp,0(sp)
  804d90:	dec00204 	addi	sp,sp,8
  804d94:	f800283a 	ret

00804d98 <vTaskStartScheduler>:
  804d98:	defffa04 	addi	sp,sp,-24
  804d9c:	dfc00515 	stw	ra,20(sp)
  804da0:	df000415 	stw	fp,16(sp)
  804da4:	df000404 	addi	fp,sp,16
  804da8:	d8000015 	stw	zero,0(sp)
  804dac:	d0a70d04 	addi	r2,gp,-25548
  804db0:	d8800115 	stw	r2,4(sp)
  804db4:	01002034 	movhi	r4,128
  804db8:	21169e04 	addi	r4,r4,23160
  804dbc:	014020f4 	movhi	r5,131
  804dc0:	29709004 	addi	r5,r5,-15808
  804dc4:	01810004 	movi	r6,1024
  804dc8:	000f883a 	mov	r7,zero
  804dcc:	08040780 	call	804078 <xTaskCreate>
  804dd0:	e0bffe15 	stw	r2,-8(fp)
  804dd4:	e0bffe17 	ldw	r2,-8(fp)
  804dd8:	10800058 	cmpnei	r2,r2,1
  804ddc:	10000d1e 	bne	r2,zero,804e14 <vTaskStartScheduler+0x7c>
  804de0:	0005303a 	rdctl	r2,status
  804de4:	e0bfff15 	stw	r2,-4(fp)
  804de8:	e0ffff17 	ldw	r3,-4(fp)
  804dec:	00bfff84 	movi	r2,-2
  804df0:	1884703a 	and	r2,r3,r2
  804df4:	1001703a 	wrctl	status,r2
  804df8:	00bfffc4 	movi	r2,-1
  804dfc:	d0a70c15 	stw	r2,-25552(gp)
  804e00:	00800044 	movi	r2,1
  804e04:	d0a70715 	stw	r2,-25572(gp)
  804e08:	d0270515 	stw	zero,-25580(gp)
  804e0c:	082ac740 	call	82ac74 <alt_timestamp_start>
  804e10:	08018200 	call	801820 <xPortStartScheduler>
  804e14:	d0a00b17 	ldw	r2,-32724(gp)
  804e18:	e037883a 	mov	sp,fp
  804e1c:	dfc00117 	ldw	ra,4(sp)
  804e20:	df000017 	ldw	fp,0(sp)
  804e24:	dec00204 	addi	sp,sp,8
  804e28:	f800283a 	ret

00804e2c <vTaskEndScheduler>:
  804e2c:	defffd04 	addi	sp,sp,-12
  804e30:	dfc00215 	stw	ra,8(sp)
  804e34:	df000115 	stw	fp,4(sp)
  804e38:	df000104 	addi	fp,sp,4
  804e3c:	0005303a 	rdctl	r2,status
  804e40:	e0bfff15 	stw	r2,-4(fp)
  804e44:	e0ffff17 	ldw	r3,-4(fp)
  804e48:	00bfff84 	movi	r2,-2
  804e4c:	1884703a 	and	r2,r3,r2
  804e50:	1001703a 	wrctl	status,r2
  804e54:	d0270715 	stw	zero,-25572(gp)
  804e58:	08018580 	call	801858 <vPortEndScheduler>
  804e5c:	e037883a 	mov	sp,fp
  804e60:	dfc00117 	ldw	ra,4(sp)
  804e64:	df000017 	ldw	fp,0(sp)
  804e68:	dec00204 	addi	sp,sp,8
  804e6c:	f800283a 	ret

00804e70 <vTaskSuspendAll>:
  804e70:	deffff04 	addi	sp,sp,-4
  804e74:	df000015 	stw	fp,0(sp)
  804e78:	d839883a 	mov	fp,sp
  804e7c:	d0a70e17 	ldw	r2,-25544(gp)
  804e80:	10800044 	addi	r2,r2,1
  804e84:	d0a70e15 	stw	r2,-25544(gp)
  804e88:	e037883a 	mov	sp,fp
  804e8c:	df000017 	ldw	fp,0(sp)
  804e90:	dec00104 	addi	sp,sp,4
  804e94:	f800283a 	ret

00804e98 <xTaskResumeAll>:
  804e98:	defffb04 	addi	sp,sp,-20
  804e9c:	dfc00415 	stw	ra,16(sp)
  804ea0:	df000315 	stw	fp,12(sp)
  804ea4:	df000304 	addi	fp,sp,12
  804ea8:	e03ffd15 	stw	zero,-12(fp)
  804eac:	e03ffe15 	stw	zero,-8(fp)
  804eb0:	08063880 	call	806388 <vTaskEnterCritical>
  804eb4:	d0a70e17 	ldw	r2,-25544(gp)
  804eb8:	10bfffc4 	addi	r2,r2,-1
  804ebc:	d0a70e15 	stw	r2,-25544(gp)
  804ec0:	d0a70e17 	ldw	r2,-25544(gp)
  804ec4:	1000461e 	bne	r2,zero,804fe0 <xTaskResumeAll+0x148>
  804ec8:	d0a70417 	ldw	r2,-25584(gp)
  804ecc:	10004426 	beq	r2,zero,804fe0 <xTaskResumeAll+0x148>
  804ed0:	00002906 	br	804f78 <xTaskResumeAll+0xe0>
  804ed4:	008020f4 	movhi	r2,131
  804ed8:	108ad304 	addi	r2,r2,11084
  804edc:	10800317 	ldw	r2,12(r2)
  804ee0:	10800317 	ldw	r2,12(r2)
  804ee4:	e0bffd15 	stw	r2,-12(fp)
  804ee8:	e0bffd17 	ldw	r2,-12(fp)
  804eec:	10800604 	addi	r2,r2,24
  804ef0:	1009883a 	mov	r4,r2
  804ef4:	08016800 	call	801680 <uxListRemove>
  804ef8:	e0bffd17 	ldw	r2,-12(fp)
  804efc:	10800104 	addi	r2,r2,4
  804f00:	1009883a 	mov	r4,r2
  804f04:	08016800 	call	801680 <uxListRemove>
  804f08:	e0bffd17 	ldw	r2,-12(fp)
  804f0c:	10800b17 	ldw	r2,44(r2)
  804f10:	d0e70617 	ldw	r3,-25576(gp)
  804f14:	1880032e 	bgeu	r3,r2,804f24 <xTaskResumeAll+0x8c>
  804f18:	e0bffd17 	ldw	r2,-12(fp)
  804f1c:	10800b17 	ldw	r2,44(r2)
  804f20:	d0a70615 	stw	r2,-25576(gp)
  804f24:	e0bffd17 	ldw	r2,-12(fp)
  804f28:	10800b17 	ldw	r2,44(r2)
  804f2c:	1009883a 	mov	r4,r2
  804f30:	01400504 	movi	r5,20
  804f34:	08191480 	call	819148 <__mulsi3>
  804f38:	1007883a 	mov	r3,r2
  804f3c:	008020f4 	movhi	r2,131
  804f40:	108a9c04 	addi	r2,r2,10864
  804f44:	1887883a 	add	r3,r3,r2
  804f48:	e0bffd17 	ldw	r2,-12(fp)
  804f4c:	10800104 	addi	r2,r2,4
  804f50:	1809883a 	mov	r4,r3
  804f54:	100b883a 	mov	r5,r2
  804f58:	08015240 	call	801524 <vListInsertEnd>
  804f5c:	e0bffd17 	ldw	r2,-12(fp)
  804f60:	10c00b17 	ldw	r3,44(r2)
  804f64:	d0a70017 	ldw	r2,-25600(gp)
  804f68:	10800b17 	ldw	r2,44(r2)
  804f6c:	18800236 	bltu	r3,r2,804f78 <xTaskResumeAll+0xe0>
  804f70:	00800044 	movi	r2,1
  804f74:	d0a70915 	stw	r2,-25564(gp)
  804f78:	008020f4 	movhi	r2,131
  804f7c:	108ad304 	addi	r2,r2,11084
  804f80:	10800017 	ldw	r2,0(r2)
  804f84:	103fd31e 	bne	r2,zero,804ed4 <xTaskResumeAll+0x3c>
  804f88:	e0bffd17 	ldw	r2,-12(fp)
  804f8c:	10000126 	beq	r2,zero,804f94 <xTaskResumeAll+0xfc>
  804f90:	0805f5c0 	call	805f5c <prvResetNextTaskUnblockTime>
  804f94:	d0a70817 	ldw	r2,-25568(gp)
  804f98:	e0bfff15 	stw	r2,-4(fp)
  804f9c:	e0bfff17 	ldw	r2,-4(fp)
  804fa0:	10000a26 	beq	r2,zero,804fcc <xTaskResumeAll+0x134>
  804fa4:	08052c40 	call	8052c4 <xTaskIncrementTick>
  804fa8:	10000226 	beq	r2,zero,804fb4 <xTaskResumeAll+0x11c>
  804fac:	00800044 	movi	r2,1
  804fb0:	d0a70915 	stw	r2,-25564(gp)
  804fb4:	e0bfff17 	ldw	r2,-4(fp)
  804fb8:	10bfffc4 	addi	r2,r2,-1
  804fbc:	e0bfff15 	stw	r2,-4(fp)
  804fc0:	e0bfff17 	ldw	r2,-4(fp)
  804fc4:	103ff71e 	bne	r2,zero,804fa4 <xTaskResumeAll+0x10c>
  804fc8:	d0270815 	stw	zero,-25568(gp)
  804fcc:	d0a70917 	ldw	r2,-25564(gp)
  804fd0:	10000326 	beq	r2,zero,804fe0 <xTaskResumeAll+0x148>
  804fd4:	00800044 	movi	r2,1
  804fd8:	e0bffe15 	stw	r2,-8(fp)
  804fdc:	003b683a 	trap	0
  804fe0:	08063d80 	call	8063d8 <vTaskExitCritical>
  804fe4:	e0bffe17 	ldw	r2,-8(fp)
  804fe8:	e037883a 	mov	sp,fp
  804fec:	dfc00117 	ldw	ra,4(sp)
  804ff0:	df000017 	ldw	fp,0(sp)
  804ff4:	dec00204 	addi	sp,sp,8
  804ff8:	f800283a 	ret

00804ffc <xTaskGetTickCount>:
  804ffc:	defffe04 	addi	sp,sp,-8
  805000:	df000115 	stw	fp,4(sp)
  805004:	df000104 	addi	fp,sp,4
  805008:	d0a70517 	ldw	r2,-25580(gp)
  80500c:	e0bfff15 	stw	r2,-4(fp)
  805010:	e0bfff17 	ldw	r2,-4(fp)
  805014:	e037883a 	mov	sp,fp
  805018:	df000017 	ldw	fp,0(sp)
  80501c:	dec00104 	addi	sp,sp,4
  805020:	f800283a 	ret

00805024 <xTaskGetTickCountFromISR>:
  805024:	defffd04 	addi	sp,sp,-12
  805028:	df000215 	stw	fp,8(sp)
  80502c:	df000204 	addi	fp,sp,8
  805030:	e03ffe15 	stw	zero,-8(fp)
  805034:	d0a70517 	ldw	r2,-25580(gp)
  805038:	e0bfff15 	stw	r2,-4(fp)
  80503c:	e0bfff17 	ldw	r2,-4(fp)
  805040:	e037883a 	mov	sp,fp
  805044:	df000017 	ldw	fp,0(sp)
  805048:	dec00104 	addi	sp,sp,4
  80504c:	f800283a 	ret

00805050 <uxTaskGetNumberOfTasks>:
  805050:	deffff04 	addi	sp,sp,-4
  805054:	df000015 	stw	fp,0(sp)
  805058:	d839883a 	mov	fp,sp
  80505c:	d0a70417 	ldw	r2,-25584(gp)
  805060:	e037883a 	mov	sp,fp
  805064:	df000017 	ldw	fp,0(sp)
  805068:	dec00104 	addi	sp,sp,4
  80506c:	f800283a 	ret

00805070 <pcTaskGetName>:
  805070:	defffd04 	addi	sp,sp,-12
  805074:	df000215 	stw	fp,8(sp)
  805078:	df000204 	addi	fp,sp,8
  80507c:	e13fff15 	stw	r4,-4(fp)
  805080:	e0bfff17 	ldw	r2,-4(fp)
  805084:	1000021e 	bne	r2,zero,805090 <pcTaskGetName+0x20>
  805088:	d0a70017 	ldw	r2,-25600(gp)
  80508c:	00000106 	br	805094 <pcTaskGetName+0x24>
  805090:	e0bfff17 	ldw	r2,-4(fp)
  805094:	e0bffe15 	stw	r2,-8(fp)
  805098:	e0bffe17 	ldw	r2,-8(fp)
  80509c:	10800d04 	addi	r2,r2,52
  8050a0:	e037883a 	mov	sp,fp
  8050a4:	df000017 	ldw	fp,0(sp)
  8050a8:	dec00104 	addi	sp,sp,4
  8050ac:	f800283a 	ret

008050b0 <uxTaskGetSystemState>:
  8050b0:	defff804 	addi	sp,sp,-32
  8050b4:	dfc00715 	stw	ra,28(sp)
  8050b8:	df000615 	stw	fp,24(sp)
  8050bc:	dc000515 	stw	r16,20(sp)
  8050c0:	df000604 	addi	fp,sp,24
  8050c4:	e13ffc15 	stw	r4,-16(fp)
  8050c8:	e17ffd15 	stw	r5,-12(fp)
  8050cc:	e1bffe15 	stw	r6,-8(fp)
  8050d0:	e03ffa15 	stw	zero,-24(fp)
  8050d4:	00800244 	movi	r2,9
  8050d8:	e0bffb15 	stw	r2,-20(fp)
  8050dc:	0804e700 	call	804e70 <vTaskSuspendAll>
  8050e0:	d0a70417 	ldw	r2,-25584(gp)
  8050e4:	e0fffd17 	ldw	r3,-12(fp)
