
civ_002.elf:     file format elf32-littlenios2
civ_002.elf
architecture: nios2:r1, flags 0x00000112:
EXEC_P, HAS_SYMS, D_PAGED
start address 0x01000248

Program Header:
    LOAD off    0x00001000 vaddr 0x01000000 paddr 0x01000000 align 2**12
         filesz 0x00000020 memsz 0x00000020 flags r-x
    LOAD off    0x00001020 vaddr 0x01000020 paddr 0x01000020 align 2**12
         filesz 0x0002e604 memsz 0x0002e604 flags r-x
    LOAD off    0x0002f624 vaddr 0x0102e624 paddr 0x0102f294 align 2**12
         filesz 0x00000c70 memsz 0x00000c70 flags rw-
    LOAD off    0x00030f04 vaddr 0x0102ff04 paddr 0x0102ff04 align 2**12
         filesz 0x00000000 memsz 0x000350c8 flags rw-

Sections:
Idx Name          Size      VMA       LMA       File off  Algn
  0 .entry        00000020  01000000  01000000  00001000  2**5
                  CONTENTS, ALLOC, LOAD, READONLY, CODE
  1 .exceptions   00000228  01000020  01000020  00001020  2**2
                  CONTENTS, ALLOC, LOAD, READONLY, CODE
  2 .text         0002c840  01000248  01000248  00001248  2**2
                  CONTENTS, ALLOC, LOAD, READONLY, CODE
  3 .rodata       00001b9c  0102ca88  0102ca88  0002da88  2**2
                  CONTENTS, ALLOC, LOAD, READONLY, DATA
  4 .rwdata       00000c70  0102e624  0102f294  0002f624  2**2
                  CONTENTS, ALLOC, LOAD, DATA, SMALL_DATA
  5 .bss          000350c8  0102ff04  0102ff04  00030f04  2**2
                  ALLOC, SMALL_DATA
  6 .RAM          00000000  01064fcc  01064fcc  00030294  2**0
                  CONTENTS
  7 .comment      0000002c  00000000  00000000  00030294  2**0
                  CONTENTS, READONLY
  8 .debug_aranges 00001368  00000000  00000000  000302c0  2**3
                  CONTENTS, READONLY, DEBUGGING
  9 .debug_info   000701b7  00000000  00000000  00031628  2**0
                  CONTENTS, READONLY, DEBUGGING
 10 .debug_abbrev 000147d7  00000000  00000000  000a17df  2**0
                  CONTENTS, READONLY, DEBUGGING
 11 .debug_line   00027850  00000000  00000000  000b5fb6  2**0
                  CONTENTS, READONLY, DEBUGGING
 12 .debug_frame  00006c0c  00000000  00000000  000dd808  2**2
                  CONTENTS, READONLY, DEBUGGING
 13 .debug_str    0000a19f  00000000  00000000  000e4414  2**0
                  CONTENTS, READONLY, DEBUGGING
 14 .debug_loc    00023747  00000000  00000000  000ee5b3  2**0
                  CONTENTS, READONLY, DEBUGGING
 15 .debug_alt_sim_info 00000040  00000000  00000000  00111cfc  2**2
                  CONTENTS, READONLY, DEBUGGING
 16 .debug_ranges 00002030  00000000  00000000  00111d40  2**3
                  CONTENTS, READONLY, DEBUGGING
 17 .thread_model 00000003  00000000  00000000  0011c5d4  2**0
                  CONTENTS, READONLY
 18 .cpu          00000006  00000000  00000000  0011c5d7  2**0
                  CONTENTS, READONLY
 19 .qsys         00000001  00000000  00000000  0011c5dd  2**0
                  CONTENTS, READONLY
 20 .simulation_enabled 00000001  00000000  00000000  0011c5de  2**0
                  CONTENTS, READONLY
 21 .sysid_hash   00000004  00000000  00000000  0011c5df  2**0
                  CONTENTS, READONLY
 22 .sysid_base   00000004  00000000  00000000  0011c5e3  2**0
                  CONTENTS, READONLY
 23 .sysid_time   00000004  00000000  00000000  0011c5e7  2**0
                  CONTENTS, READONLY
 24 .stderr_dev   00000004  00000000  00000000  0011c5eb  2**0
                  CONTENTS, READONLY
 25 .stdin_dev    00000004  00000000  00000000  0011c5ef  2**0
                  CONTENTS, READONLY
 26 .stdout_dev   00000004  00000000  00000000  0011c5f3  2**0
                  CONTENTS, READONLY
 27 .sopc_system_name 00000004  00000000  00000000  0011c5f7  2**0
                  CONTENTS, READONLY
 28 .sopcinfo     00058c2c  00000000  00000000  0011c5fb  2**0
                  CONTENTS, READONLY
SYMBOL TABLE:
01000000 l    d  .entry	00000000 .entry
01000020 l    d  .exceptions	00000000 .exceptions
01000248 l    d  .text	00000000 .text
0102ca88 l    d  .rodata	00000000 .rodata
0102e624 l    d  .rwdata	00000000 .rwdata
0102ff04 l    d  .bss	00000000 .bss
01064fcc l    d  .RAM	00000000 .RAM
00000000 l    d  .comment	00000000 .comment
00000000 l    d  .debug_aranges	00000000 .debug_aranges
00000000 l    d  .debug_info	00000000 .debug_info
00000000 l    d  .debug_abbrev	00000000 .debug_abbrev
00000000 l    d  .debug_line	00000000 .debug_line
00000000 l    d  .debug_frame	00000000 .debug_frame
00000000 l    d  .debug_str	00000000 .debug_str
00000000 l    d  .debug_loc	00000000 .debug_loc
00000000 l    d  .debug_alt_sim_info	00000000 .debug_alt_sim_info
00000000 l    d  .debug_ranges	00000000 .debug_ranges
00000000 l    df *ABS*	00000000 ../civ_002_bsp//obj/HAL/src/crt0.o
01000280 l       .text	00000000 alt_after_alt_main
00000000 l    df *ABS*	00000000 obj/default/FreeRTOS/FreeRTOS-Kernel/portable/GCC/NiosII/port_asm.o
01000020 l       .exceptions	00000000 save_context
0100009c l       .exceptions	00000000 save_sp_to_pxCurrentTCB
010000ac l       .exceptions	00000000 hw_irq_test
01000150 l       .exceptions	00000000 soft_exceptions
010000c0 l       .exceptions	00000000 hw_irq_handler
010000d4 l       .exceptions	00000000 restore_context
0100016c l       .exceptions	00000000 call_scheduler
00000000 l    df *ABS*	00000000 alt_irq_handler.c
00000000 l    df *ABS*	00000000 CLI-Commands.c
01030010 l     O .bss	0000001c hs
0102cab4 l     O .rodata	00000010 xClose
01000578 l     F .text	00000054 prvCloseConnect
0102cb20 l     O .rodata	00000010 xTaskStats
01000330 l     F .text	00000054 prvTaskStatsCommand
0102cb70 l     O .rodata	00000010 xHeapStats
01000384 l     F .text	000001a8 prvHeapStatsCommand
0102cbd0 l     O .rodata	00000010 xTaskTimeStats
0100052c l     F .text	0000004c prvTaskTimeStatCommand
0102cc1c l     O .rodata	00000010 xNetBuf
01000284 l     F .text	000000ac prvTaskNetbufCount
00000000 l    df *ABS*	00000000 at24c08.c
00000000 l    df *ABS*	00000000 http_server.c
0102ff08 l     O .bss	00000002 usUsedStackSize
0102f1ec l     O .rwdata	00000004 xReceiveTimeOut
0102f1f0 l     O .rwdata	00000004 xSendTimeOut
0103002c l     O .bss	000005b4 tx_buf
010305e0 l     O .bss	000005b4 rx_buf
01000c38 l     F .text	00000224 prvHTTPServer
01000e5c l     F .text	000000f8 prvFirmwareRXListeninigTask
0102f1f4 l     O .rwdata	00000004 xReceiveTimeOut.4083
0102f1f8 l     O .rwdata	00000004 xReceiveTimeOut.4110
0102f1fc l     O .rwdata	00000004 xReceiveTimeOut.4123
0102f200 l     O .rwdata	00000004 xSendTimeOut.4124
00000000 l    df *ABS*	00000000 lm75.c
00000000 l    df *ABS*	00000000 main.c
01030bb4 l     O .bss	00000058 xIdleTaskTCB.3878
01030c0c l     O .bss	00001000 uxIdleTaskStack.3879
00000000 l    df *ABS*	00000000 telnet_server.c
0102ff2e l     O .bss	00000002 usUsedStackSize
01001644 l     F .text	000002c8 prvConnectionListeningTask
0102f218 l     O .rwdata	00000004 xReceiveTimeOut
0102f21c l     O .rwdata	00000004 xSendTimeOut
0102f220 l     O .rwdata	00000004 xReceiveTimeOut.3791
00000000 l    df *ABS*	00000000 croutine.c
00000000 l    df *ABS*	00000000 event_groups.c
01001f9c l     F .text	00000070 prvTestWaitCondition
00000000 l    df *ABS*	00000000 list.c
00000000 l    df *ABS*	00000000 port.c
01002318 l     F .text	0000002c prvReadGp
0100247c l     F .text	00000074 prvSetupTimerInterrupt
00000000 l    df *ABS*	00000000 portTimer.c
00000000 l    df *ABS*	00000000 queue.c
010028e4 l     F .text	00000090 prvInitialiseNewQueue
01002974 l     F .text	00000060 prvInitialiseMutex
010037dc l     F .text	0000018c prvCopyDataToQueue
01003b90 l     F .text	00000058 prvIsQueueFull
01003a04 l     F .text	000000f4 prvUnlockQueue
01003968 l     F .text	0000009c prvCopyDataFromQueue
01003af8 l     F .text	00000050 prvIsQueueEmpty
0100378c l     F .text	00000050 prvGetDisinheritPriorityAfterTimeout
00000000 l    df *ABS*	00000000 stream_buffer.c
01004aec l     F .text	00000080 prvInitialiseNewStreamBuffer
01004a78 l     F .text	00000074 prvBytesInBuffer
01004204 l     F .text	000000d4 prvWriteMessageToBuffer
01004870 l     F .text	000000f4 prvWriteBytesToBuffer
010045d0 l     F .text	000000bc prvReadMessageFromBuffer
01004964 l     F .text	00000114 prvReadBytesFromBuffer
00000000 l    df *ABS*	00000000 tasks.c
01031c0c l     O .bss	000000b4 pxReadyTasksLists
01031cc0 l     O .bss	00000014 xDelayedTaskList1
01031cd4 l     O .bss	00000014 xDelayedTaskList2
0102ff34 l     O .bss	00000004 pxDelayedTaskList
0102ff38 l     O .bss	00000004 pxOverflowDelayedTaskList
01031ce8 l     O .bss	00000014 xPendingReadyList
01031cfc l     O .bss	00000014 xTasksWaitingTermination
0102ff3c l     O .bss	00000004 uxDeletedTasksWaitingCleanUp
01031d10 l     O .bss	00000014 xSuspendedTaskList
0102ff40 l     O .bss	00000004 uxCurrentNumberOfTasks
0102ff44 l     O .bss	00000004 xTickCount
0102ff48 l     O .bss	00000004 uxTopReadyPriority
0102ff4c l     O .bss	00000004 xSchedulerRunning
0102ff50 l     O .bss	00000004 xPendedTicks
0102ff54 l     O .bss	00000004 xYieldPending
0102ff58 l     O .bss	00000004 xNumOfOverflows
0102ff5c l     O .bss	00000004 uxTaskNumber
0102ff60 l     O .bss	00000004 xNextTaskUnblockTime
0102ff64 l     O .bss	00000004 xIdleTaskHandle
0102ff68 l     O .bss	00000004 uxSchedulerSuspended
01004cd8 l     F .text	000001f8 prvInitialiseNewTask
01004ed0 l     F .text	00000114 prvAddNewTaskToReadyList
010065d8 l     F .text	000000c0 prvInitialiseTaskLists
01006a60 l     F .text	00000044 prvDeleteTCB
01006aa4 l     F .text	00000048 prvResetNextTaskUnblockTime
01007c3c l     F .text	000000e8 prvAddCurrentTaskToDelayedList
010056d4 l     F .text	0000006c prvTaskIsTaskSuspended
010065bc l     F .text	0000001c prvIdleTask
0100686c l     F .text	00000130 prvListTasksWithinSingleList
01006698 l     F .text	0000007c prvCheckTasksWaitingTermination
0100699c l     F .text	00000064 prvTaskCheckFreeStackSpace
01006f8c l     F .text	00000090 prvWriteNameToBuffer
00000000 l    df *ABS*	00000000 timers.c
00000000 l    df *ABS*	00000000 FreeRTOS_CLI.c
0102d1a8 l     O .rodata	00000010 xHelpCommand
010080f8 l     F .text	00000084 prvHelpCommand
0102f228 l     O .rwdata	00000008 xRegisteredCommands
0102ff6c l     O .bss	00000001 cOutputBuffer
0102f230 l     O .rwdata	00000004 pxLastCommandInList.2483
0102ff70 l     O .bss	00000004 pxCommand.2491
0100817c l     F .text	000000b0 prvGetNumberOfParameters
0102ff74 l     O .bss	00000004 pxCommand.2525
00000000 l    df *ABS*	00000000 FreeRTOS_ARP.c
0100822c l     F .text	00000024 vCastPointerTo_ARPPacket_t
01008250 l     F .text	00000024 vCastPointerTo_IPPacket_t
01031d24 l     O .bss	00000048 xARPCache
0102ff78 l     O .bss	00000004 xLastGratuitousARPTime
01008a00 l     F .text	000000f0 prvCacheLookup
0102d260 l     O .rodata	00000026 xDefaultPartARPPacketHeader.4526
00000000 l    df *ABS*	00000000 FreeRTOS_DHCP.c
00000000 l    df *ABS*	00000000 FreeRTOS_DNS.c
00000000 l    df *ABS*	00000000 FreeRTOS_IP.c
010090d4 l     F .text	00000024 vCastPointerTo_EthernetHeader_t
010090f8 l     F .text	00000024 vCastConstPointerTo_EthernetHeader_t
0100911c l     F .text	00000024 vCastPointerTo_ARPPacket_t
01009140 l     F .text	00000024 vCastPointerTo_IPPacket_t
01009164 l     F .text	00000024 vCastConstPointerTo_IPPacket_t
01009188 l     F .text	00000024 vCastPointerTo_ICMPPacket_t
010091ac l     F .text	00000024 vCastConstPointerTo_UDPPacket_t
010091d0 l     F .text	00000024 vCastConstPointerTo_ProtocolPacket_t
010091f4 l     F .text	00000024 vCastPointerTo_FreeRTOS_Socket_t
01009218 l     F .text	00000024 vCastPointerTo_SocketSelect_t
0100923c l     F .text	00000024 vCastPointerTo_NetworkBufferDescriptor_t
0102ff84 l     O .bss	00000004 xNetworkDownEventPending
0102ff88 l     O .bss	00000004 xIPTaskHandle
0102ff8c l     O .bss	00000004 xProcessedTCPMessage
0102ff90 l     O .bss	00000004 xNetworkUp
01031d94 l     O .bss	00000014 xARPTimer
01031da8 l     O .bss	00000014 xTCPTimer
0102ff94 l     O .bss	00000004 xIPTaskInitialised
01009260 l     F .text	00000258 prvIPTask
010096e4 l     F .text	00000048 prvIPTimerReload
010095a8 l     F .text	000000b0 prvCheckNetworkTimers
01009534 l     F .text	00000074 prvCalculateSleepTime
0100a0d0 l     F .text	00000084 prvProcessNetworkDownEvent
01009500 l     F .text	00000034 prvHandleEthernetPacket
0100a19c l     F .text	00000140 prvProcessEthernetPacket
0100972c l     F .text	000000c4 prvIPTimerCheck
01009658 l     F .text	0000008c prvIPTimerStart
0102f23c l     O .rwdata	00000008 xNetworkDownEvent.4586
0102f244 l     O .rwdata	00000008 xNetworkDownEvent.4591
010099e0 l     F .text	00000074 prvPacketBuffer_to_NetworkBuffer
0102ff98 l     O .bss	00000004 xCallEventHook.4658
0100a5a0 l     F .text	000003c0 prvProcessIPPacket
0100a41c l     F .text	00000184 prvAllowIPPacket
0100ac30 l     F .text	00000064 prvProcessICMPPacket
0100a960 l     F .text	000002d0 prvProcessICMPEchoRequest
00000000 l    df *ABS*	00000000 FreeRTOS_Sockets.c
0100bc18 l     F .text	00000034 FreeRTOS_min_int32
0100bc4c l     F .text	00000034 FreeRTOS_min_uint32
0100bc80 l     F .text	00000054 FreeRTOS_round_up
0100bcd4 l     F .text	00000034 FreeRTOS_min_BaseType
0100bd08 l     F .text	00000044 vStreamBufferClear
0100bd4c l     F .text	00000070 uxStreamBufferSpace
0100bdbc l     F .text	0000006c uxStreamBufferDistance
0100be28 l     F .text	00000050 uxStreamBufferGetSpace
0100be78 l     F .text	00000050 uxStreamBufferFrontSpace
0100bec8 l     F .text	00000050 uxStreamBufferGetSize
0100bf18 l     F .text	00000078 uxStreamBufferGetPtr
0100bf90 l     F .text	00000024 vCastPointerTo_FreeRTOS_Socket_t
0100bfb4 l     F .text	00000024 vCastPointerTo_SocketSelect_t
0100bfd8 l     F .text	00000024 vCastPointerTo_NetworkBufferDescriptor_t
0100bffc l     F .text	00000024 vCastPointerTo_StreamBuffer_t
0100c020 l     F .text	00000090 prvValidSocket
0100c0f0 l     F .text	000000b0 prvDetermineSocketSize
0100c62c l     F .text	00000098 prvFindSelectedSocket
0100d7d4 l     F .text	00000108 prvGetPrivatePortNumber
0100d8dc l     F .text	00000094 pxListFindListItemWithValue
0100d020 l     F .text	0000013c prvTCPSetSocketCount
0100d15c l     F .text	00000144 prvSockopt_so_buffer
0100e080 l     F .text	00000074 bMayConnect
0100e0f4 l     F .text	0000021c prvTCPConnectStart
0100e938 l     F .text	0000010c prvTCPSendCheck
0100f284 l     F .text	000001a8 prvTCPCreateStream
0102ff9c l     O .bss	00000004 xLastTime.4863
00000000 l    df *ABS*	00000000 FreeRTOS_Stream_Buffer.c
0100fdb0 l     F .text	00000034 FreeRTOS_min_uint32
0100fde4 l     F .text	00000070 uxStreamBufferSpace
0100fe54 l     F .text	0000006c uxStreamBufferDistance
0100fec0 l     F .text	00000050 uxStreamBufferGetSpace
0100ff10 l     F .text	00000050 uxStreamBufferGetSize
0100ff60 l     F .text	000000a8 xStreamBufferLessThenEqual
00000000 l    df *ABS*	00000000 FreeRTOS_TCP_IP.c
01010358 l     F .text	00000034 FreeRTOS_min_int32
0101038c l     F .text	00000034 FreeRTOS_min_uint32
010103c0 l     F .text	00000070 uxStreamBufferSpace
01010430 l     F .text	0000006c uxStreamBufferDistance
0101049c l     F .text	00000050 uxStreamBufferGetSpace
010104ec l     F .text	00000050 uxStreamBufferFrontSpace
0101053c l     F .text	00000050 uxStreamBufferMidSpace
0101058c l     F .text	000000a0 vStreamBufferMoveMid
0101062c l     F .text	00000024 vCastConstPointerTo_IPHeader_t
01010650 l     F .text	00000024 vCastPointerTo_TCPPacket_t
01010674 l     F .text	00000024 vCastConstPointerTo_TCPPacket_t
01010698 l     F .text	00000024 vCastPointerTo_ProtocolHeaders_t
010106bc l     F .text	00000024 vCastConstPointerTo_ProtocolHeaders_t
010106e0 l     F .text	00000024 vCastPointerTo_FreeRTOS_Socket_t
01010704 l     F .text	00000048 usChar2u16
0101074c l     F .text	00000068 prvTCPSocketIsActive
010107b4 l     F .text	00000148 prvTCPStatusAgeCheck
01013218 l     F .text	000000a8 prvTCPAddTxData
010109a4 l     F .text	00000180 prvTCPSendPacket
01013048 l     F .text	000001d0 prvTCPNextTimeout
01010b24 l     F .text	000000ac prvTCPSendRepeated
01011b18 l     F .text	0000056c prvTCPPrepareConnect
01012574 l     F .text	00000078 prvSetSynAckOptions
01010bd0 l     F .text	00000e4c prvTCPReturnPacket
01012aec l     F .text	0000055c prvTCPPrepareSend
01011a1c l     F .text	000000fc prvTCPCreateWindow
01014b3c l     F .text	000000f0 prvSocketSetMSS
01012084 l     F .text	00000130 prvTCPFlagMeaning
01031dbc l     O .bss	0000000a retString.4662
010121b4 l     F .text	00000160 prvCheckOptions
01012314 l     F .text	00000260 prvSingleStepTCPHeaderOptions
010125ec l     F .text	0000007c prvTCPTouchSocket
0101298c l     F .text	00000160 prvTCPBufferResize
010132c0 l     F .text	00000330 prvTCPHandleFin
010135f0 l     F .text	000001ec prvCheckRxData
010137dc l     F .text	0000020c prvStoreRxData
01014b08 l     F .text	00000034 prvTCPSendReset
010139e8 l     F .text	00000130 prvSetOptions
01013b18 l     F .text	00000480 prvHandleSynReceived
01013f98 l     F .text	0000054c prvHandleEstablished
010144e4 l     F .text	0000013c prvSendData
01014620 l     F .text	00000438 prvTCPHandleState
01014a58 l     F .text	0000007c prvTCPSendSpecialPacketHelper
01014ad4 l     F .text	00000034 prvTCPSendChallengeAck
010153dc l     F .text	000003f0 prvHandleListen
010157cc l     F .text	00000204 prvTCPSocketCopy
0102de1c l     O .rodata	00000034 pcStateNames.4925
00000000 l    df *ABS*	00000000 FreeRTOS_TCP_WIN.c
01015b44 l     F .text	00000048 xSequenceGreaterThanOrEqual
01015b8c l     F .text	0000003c vTCPTimerSet
01015bc8 l     F .text	0000003c ulTimerGetAge
01015c04 l     F .text	00000084 vListInsertGeneric
010161b4 l     F .text	0000004c prvTCPWindowTxHasSpace
00000000 l    df *ABS*	00000000 FreeRTOS_UDP_IP.c
0101649c l     F .text	00000024 vCastPointerTo_UDPPacket_t
010164c0 l     F .text	00000024 vCastConstPointerTo_UDPPacket_t
00000000 l    df *ABS*	00000000 NetworkInterface.c
01031dc8 l     O .bss	00001770 rx_buffer
01033538 l     O .bss	00016800 ucBuffers
00000000 l    df *ABS*	00000000 enc.c
0102ffba l     O .bss	00000002 NextPacketPtr
00000000 l    df *ABS*	00000000 heap_4.c
01049d38 l     O .bss	00019000 ucHeap
0102f24c l     O .rwdata	00000004 xHeapStructSize
0102ffbc l     O .bss	00000008 xStart
0102ffc4 l     O .bss	00000004 pxEnd
0102ffc8 l     O .bss	00000004 xFreeBytesRemaining
0102ffcc l     O .bss	00000004 xMinimumEverFreeBytesRemaining
0102ffd0 l     O .bss	00000004 xNumberOfSuccessfulAllocations
0102ffd4 l     O .bss	00000004 xNumberOfSuccessfulFrees
0102ffd8 l     O .bss	00000004 xBlockAllocatedBit
01017d74 l     F .text	00000120 prvHeapInit
01017e94 l     F .text	00000134 prvInsertBlockIntoFreeList
00000000 l    df *ABS*	00000000 BufferAllocation_1.c
01062d38 l     O .bss	00000014 xFreeBuffersList
0102ffdc l     O .bss	00000004 uxMinimumFreeNetworkBuffers
01062d4c l     O .bss	00000870 xNetworkBuffers
0102ffe0 l     O .bss	00000004 xNetworkBufferSemaphore
010180d4 l     F .text	00000024 bIsValidNetworkDescriptor
010180f8 l     F .text	00000020 prvShowWarnings
00000000 l    df *ABS*	00000000 lib2-divmod.c
00000000 l    df *ABS*	00000000 lib2-mul.c
00000000 l    df *ABS*	00000000 memcmp.c
00000000 l    df *ABS*	00000000 memcpy.c
00000000 l    df *ABS*	00000000 memmove.c
00000000 l    df *ABS*	00000000 memset.c
00000000 l    df *ABS*	00000000 printf.c
00000000 l    df *ABS*	00000000 puts.c
00000000 l    df *ABS*	00000000 rand.c
00000000 l    df *ABS*	00000000 snprintf.c
00000000 l    df *ABS*	00000000 sprintf.c
00000000 l    df *ABS*	00000000 strcpy.c
00000000 l    df *ABS*	00000000 strlen.c
00000000 l    df *ABS*	00000000 strncmp.c
00000000 l    df *ABS*	00000000 strncpy.c
00000000 l    df *ABS*	00000000 strstr.c
01019204 l     F .text	00000400 two_way_long_needle
00000000 l    df *ABS*	00000000 strtol.c
01019890 l     F .text	0000023c _strtol_l.isra.0
00000000 l    df *ABS*	00000000 vfprintf.c
0102e0a2 l     O .rodata	00000010 blanks.5207
0102e092 l     O .rodata	00000010 zeroes.5208
00000000 l    df *ABS*	00000000 vfprintf.c
0101dde0 l     F .text	000000c0 __sbprintf
0102e0c2 l     O .rodata	00000010 blanks.5226
0102e0b2 l     O .rodata	00000010 zeroes.5227
00000000 l    df *ABS*	00000000 wsetup.c
00000000 l    df *ABS*	00000000 ctype_.c
00000000 l    df *ABS*	00000000 dtoa.c
0101e000 l     F .text	00000234 quorem
00000000 l    df *ABS*	00000000 fflush.c
00000000 l    df *ABS*	00000000 findfp.c
0101fbac l     F .text	00000008 __fp_lock
0101fbc0 l     F .text	00000168 __sinit.part.0
0101fd28 l     F .text	00000008 __fp_unlock
00000000 l    df *ABS*	00000000 mallocr.c
00000000 l    df *ABS*	00000000 fvwrite.c
00000000 l    df *ABS*	00000000 fwalk.c
00000000 l    df *ABS*	00000000 impure.c
0102e63c l     O .rwdata	00000424 impure_data
00000000 l    df *ABS*	00000000 localeconv.c
00000000 l    df *ABS*	00000000 makebuf.c
00000000 l    df *ABS*	00000000 mallocr.c
00000000 l    df *ABS*	00000000 memchr.c
00000000 l    df *ABS*	00000000 mprec.c
0102e364 l     O .rodata	0000000c p05.4024
00000000 l    df *ABS*	00000000 mallocr.c
00000000 l    df *ABS*	00000000 sbrkr.c
00000000 l    df *ABS*	00000000 stdio.c
00000000 l    df *ABS*	00000000 strchr.c
00000000 l    df *ABS*	00000000 strnlen.c
00000000 l    df *ABS*	00000000 vfprintf.c
0102e498 l     O .rodata	00000010 blanks.5187
0102e488 l     O .rodata	00000010 zeroes.5188
00000000 l    df *ABS*	00000000 vfprintf.c
0102402c l     F .text	000000f4 __sprint_r.part.0
0102548c l     F .text	000000c0 __sbprintf
0102e4b8 l     O .rodata	00000010 blanks.5203
0102e4a8 l     O .rodata	00000010 zeroes.5204
00000000 l    df *ABS*	00000000 writer.c
00000000 l    df *ABS*	00000000 closer.c
00000000 l    df *ABS*	00000000 mallocr.c
00000000 l    df *ABS*	00000000 fclose.c
00000000 l    df *ABS*	00000000 fputwc.c
00000000 l    df *ABS*	00000000 fstatr.c
00000000 l    df *ABS*	00000000 int_errno.c
00000000 l    df *ABS*	00000000 isattyr.c
00000000 l    df *ABS*	00000000 locale.c
00000000 l    df *ABS*	00000000 lseekr.c
00000000 l    df *ABS*	00000000 mbtowc_r.c
00000000 l    df *ABS*	00000000 readr.c
00000000 l    df *ABS*	00000000 strcmp.c
00000000 l    df *ABS*	00000000 wbuf.c
00000000 l    df *ABS*	00000000 wcrtomb.c
00000000 l    df *ABS*	00000000 wctomb_r.c
00000000 l    df *ABS*	00000000 libgcc2.c
00000000 l    df *ABS*	00000000 libgcc2.c
00000000 l    df *ABS*	00000000 libgcc2.c
00000000 l    df *ABS*	00000000 adddf3.c
00000000 l    df *ABS*	00000000 divdf3.c
00000000 l    df *ABS*	00000000 eqdf2.c
00000000 l    df *ABS*	00000000 gedf2.c
00000000 l    df *ABS*	00000000 ledf2.c
00000000 l    df *ABS*	00000000 muldf3.c
00000000 l    df *ABS*	00000000 subdf3.c
00000000 l    df *ABS*	00000000 unorddf2.c
00000000 l    df *ABS*	00000000 fixdfsi.c
00000000 l    df *ABS*	00000000 floatsidf.c
00000000 l    df *ABS*	00000000 floatunsidf.c
00000000 l    df *ABS*	00000000 libgcc2.c
00000000 l    df *ABS*	00000000 libgcc2.c
00000000 l    df *ABS*	00000000 alt_close.c
010295b4 l     F .text	0000003c alt_get_errno
00000000 l    df *ABS*	00000000 alt_dev.c
010296cc l     F .text	0000002c alt_dev_null_write
00000000 l    df *ABS*	00000000 alt_errno.c
00000000 l    df *ABS*	00000000 alt_fstat.c
010296f8 l     F .text	0000003c alt_get_errno
00000000 l    df *ABS*	00000000 alt_irq_vars.c
00000000 l    df *ABS*	00000000 alt_isatty.c
010297f0 l     F .text	0000003c alt_get_errno
00000000 l    df *ABS*	00000000 alt_load.c
010298dc l     F .text	00000068 alt_load_section
00000000 l    df *ABS*	00000000 alt_lseek.c
010299c8 l     F .text	0000003c alt_get_errno
00000000 l    df *ABS*	00000000 alt_main.c
00000000 l    df *ABS*	00000000 alt_malloc_lock.c
00000000 l    df *ABS*	00000000 alt_read.c
01029b8c l     F .text	0000003c alt_get_errno
00000000 l    df *ABS*	00000000 alt_release_fd.c
00000000 l    df *ABS*	00000000 alt_sbrk.c
0102f280 l     O .rwdata	00000004 heap_end
00000000 l    df *ABS*	00000000 alt_write.c
01029df0 l     F .text	0000003c alt_get_errno
00000000 l    df *ABS*	00000000 alt_sys_init.c
0102f17c l     O .rwdata	00000038 I2C_EEPROM
0102f1b4 l     O .rwdata	00000038 I2C_TEMP
00000000 l    df *ABS*	00000000 altera_avalon_i2c.c
01029fc4 l     F .text	00000110 optional_irq_callback
0102a124 l     F .text	0000009c alt_avalon_i2c_irq
00000000 l    df *ABS*	00000000 altera_avalon_spi.c
00000000 l    df *ABS*	00000000 altera_avalon_timer_sc.c
0102bdbc l     F .text	0000007c alt_avalon_timer_sc_irq
00000000 l    df *ABS*	00000000 alt_busy_sleep.c
00000000 l    df *ABS*	00000000 alt_dcache_flush_all.c
00000000 l    df *ABS*	00000000 alt_dev_llist_insert.c
0102c024 l     F .text	0000003c alt_get_errno
00000000 l    df *ABS*	00000000 alt_do_ctors.c
00000000 l    df *ABS*	00000000 alt_do_dtors.c
00000000 l    df *ABS*	00000000 alt_find_dev.c
00000000 l    df *ABS*	00000000 alt_icache_flush_all.c
00000000 l    df *ABS*	00000000 alt_printf.c
00000000 l    df *ABS*	00000000 alt_putchar.c
00000000 l    df *ABS*	00000000 alt_tick.c
00000000 l    df *ABS*	00000000 altera_nios2_gen2_irq.c
00000000 l    df *ABS*	00000000 atexit.c
00000000 l    df *ABS*	00000000 exit.c
00000000 l    df *ABS*	00000000 putchar.c
00000000 l    df *ABS*	00000000 __atexit.c
00000000 l    df *ABS*	00000000 __call_atexit.c
00000000 l    df *ABS*	00000000 putc.c
00000000 l    df *ABS*	00000000 alt_exit.c
0102c6e8 g     F .text	00000018 putchar
01022274 g     F .text	00000074 _mprec_log10
0100def8 g     F .text	00000040 FreeRTOS_inet_addr
01022354 g     F .text	00000074 __any_on
01025a2c g     F .text	00000058 _isatty_r
01008d08 g     F .text	0000009c FreeRTOS_OutputARPRequest
0102e370 g     O .rodata	00000028 __mprec_tinytens
01029ae4 g     F .text	00000060 alt_main
01018f00 g     F .text	0000008c strcpy
0100b748 g     F .text	00000040 FreeRTOS_UpdateMACAddress
01018b68 g     F .text	000000cc _puts_r
01064ecc g     O .bss	00000100 alt_irq
01025b14 g     F .text	00000064 _lseek_r
010000c4 g       .exceptions	00000000 restore_sp_from_pxCurrentTCB
01006160 g     F .text	00000064 vTaskPlaceOnUnorderedEventList
01017d14 g     F .text	00000020 xPortGetFreeHeapSize
01001cf4 g     F .text	0000003c xEventGroupGetBitsFromISR
010173a0 g     F .text	00000074 eth_read_phy
0102f294 g       *ABS*	00000000 __flash_rwdata_start
01000ba4 g     F .text	00000094 vStartHTTPServer
01027f7c g     F .text	00000080 .hidden __eqdf2
0100c494 g     F .text	0000007c FreeRTOS_FD_CLR
0100a154 g     F .text	00000048 vIPNetworkUpCalls
0100d970 g     F .text	00000060 pxUDPSocketLookup
0100d9d0 g     F .text	000001d8 FreeRTOS_inet_ntoa
01009ef8 g     F .text	00000100 xSendEventStructToIPTask
01064fcc g       *ABS*	00000000 __alt_heap_start
0100534c g     F .text	00000058 uxTaskPriorityGet
0100c6c4 g     F .text	00000230 FreeRTOS_recvfrom
01018b30 g     F .text	00000038 printf
010177bc g     F .text	00000054 enc_get_buf_len
010170d0 g     F .text	000000c4 eth_read_ctrl_8
01025e60 g     F .text	0000006c _wcrtomb_r
01022b28 g     F .text	0000005c __sseek
0101feb8 g     F .text	00000010 __sinit
0100156c g     F .text	00000024 ulDNSHandlePacket
01006714 g     F .text	00000158 vTaskGetInfo
01025d04 g     F .text	00000148 __swbuf_r
0102f250 g     O .rwdata	00000004 xBufferAllocFixedSize
01014c2c g     F .text	000007b0 xProcessReceivedTCPPacket
010014c0 g     F .text	00000040 vLoggingPrintf
01025a84 g     F .text	00000070 _setlocale_r
0102ff80 g     O .bss	00000002 usPacketIdentifier
0101fd30 g     F .text	00000078 __sfmoreglue
0102a7f4 g     F .text	000000a8 alt_avalon_i2c_rx_read
010042d8 g     F .text	00000168 xStreamBufferReceive
01029b68 g     F .text	00000024 __malloc_unlock
01016d64 g     F .text	000000e0 vNetworkInterfaceAllocateRAMToBuffers
0101729c g     F .text	00000090 eth_write_ctrl_16
010050cc g     F .text	000000f0 xTaskDelayUntil
0100fa2c g     F .text	00000044 FreeRTOS_netstat
0102cf2c g     O .rodata	000000a9 http_header
0100ce94 g     F .text	0000018c vSocketClose
0102ba1c g     F .text	00000044 alt_avalon_i2c_enabled_ints_get
01017810 g     F .text	00000110 eth_rx_packet
0102a574 g     F .text	00000094 alt_avalon_i2c_master_config_speed_get
01001960 g     F .text	00000184 xEventGroupSync
0100e310 g     F .text	00000110 FreeRTOS_connect
010188e4 g     F .text	0000012c memmove
01007b90 g     F .text	000000ac ulTaskGenericNotifyValueClear
01006ed8 g     F .text	00000054 vTaskEnterCritical
0101fea4 g     F .text	00000014 _cleanup
01018d7c g     F .text	000000cc snprintf
01002d68 g     F .text	000000f4 xQueueGenericSendFromISR
0102b264 g     F .text	0000020c alt_avalon_i2c_master_transmit_using_interrupts
01005be4 g     F .text	00000040 pcTaskGetName
01021414 g     F .text	000000a4 _Balloc
0102f206 g     O .rwdata	00000004 my_ip
01003e7c g     F .text	00000088 xStreamBufferSpacesAvailable
0100c410 g     F .text	00000084 FreeRTOS_FD_SET
01027ffc g     F .text	000000f0 .hidden __gtdf2
0102c674 g     F .text	00000024 altera_nios2_gen2_irq_init
010159d0 g     F .text	00000064 FreeRTOS_GetTCPStateName
01003d5c g     F .text	000000b4 xStreamBufferReset
01031d6c g     O .bss	00000014 xNetworkAddressing
01000000 g     F .entry	0000000c __reset
01002a30 g     F .text	00000090 xQueueGiveMutexRecursive
01020944 g     F .text	00000008 __localeconv_l
01018544 g     F .text	00000034 pxResizeNetworkBufferWithDescriptor
0102ff30 g     O .bss	00000004 pxCurrentTCB
0102ffa8 g     O .bss	00000004 piodata
01009ac4 g     F .text	000002cc FreeRTOS_IPInit
01000020 g       *ABS*	00000000 __flash_exceptions_start
010259cc g     F .text	00000060 _fstat_r
0102fff0 g     O .bss	00000004 errno
01022aa0 g     F .text	00000008 __seofread
01000818 g     F .text	000000a0 eeprom_write_16
01022ef4 g     F .text	00001138 ___svfiprintf_internal_r
0100200c g     F .text	00000048 uxEventGroupGetNumber
01004110 g     F .text	000000f4 xStreamBufferSendFromISR
01030000 g     O .bss	00000004 alt_argv
01007f54 g     F .text	00000020 FreeRTOS_CLIGetOutputBuffer
0100dfac g     F .text	000000d4 vSocketWakeUpUser
0100f878 g     F .text	00000080 FreeRTOS_issocketconnected
010371ec g       *ABS*	00000000 _gp
0102ba60 g     F .text	0000004c alt_avalon_i2c_rx_fifo_threshold_get
01016fe8 g     F .text	00000078 eth_clear_bit
010053f0 g     F .text	000001c0 vTaskPrioritySet
010012b4 g     F .text	00000064 vStartTempChecking
010063e4 g     F .text	0000003c vTaskInternalSetTimeOutState
01001ae4 g     F .text	000001a8 xEventGroupWaitBits
0102a704 g     F .text	00000044 alt_avalon_i2c_is_busy
0102effc g     O .rwdata	00000180 alt_fd_list
01010008 g     F .text	000001bc uxStreamBufferAdd
01012668 g     F .text	00000324 vTCPStateChange
01002424 g     F .text	00000038 xPortStartScheduler
0102c6e0 g     F .text	00000008 _putchar_r
0102a4a8 g     F .text	000000cc alt_avalon_i2c_master_config_set
01016f2c g     F .text	00000044 enc_delay
010059a0 g     F .text	00000048 vTaskEndScheduler
0102c1c4 g     F .text	00000090 alt_find_dev
01017194 g     F .text	00000084 eth_read_ctrl_16
010187e4 g     F .text	00000100 memcpy
01006110 g     F .text	00000050 vTaskPlaceOnEventList
010062c4 g     F .text	000000d4 vTaskRemoveFromUnorderedEventList
0101fbb4 g     F .text	0000000c _cleanup_r
010293fc g     F .text	000000c8 .hidden __floatsidf
0100f8f8 g     F .text	0000005c FreeRTOS_mss
0102f20e g     O .rwdata	00000004 mygate
010280ec g     F .text	000000f0 .hidden __ltdf2
01016f70 g     F .text	00000078 eth_set_bit
01003584 g     F .text	0000007c xQueuePeekFromISR
0100df38 g     F .text	00000074 FreeRTOS_GetLocalAddress
010005cc g     F .text	00000064 vRegisterCLICommands
0102ca88 g       *ABS*	00000000 __DTOR_END__
0102b0a4 g     F .text	000001c0 alt_avalon_i2c_master_transmit
01008274 g     F .text	000002bc eARPProcessPacket
0100c568 g     F .text	000000c4 FreeRTOS_select
01018c34 g     F .text	00000010 puts
01017c50 g     F .text	000000c4 vPortFree
0102f234 g     O .rwdata	00000006 xBroadcastMACAddress
01009ff8 g     F .text	000000d8 eConsiderFrameForProcessing
0100dc6c g     F .text	00000078 FreeRTOS_inet_ntop4
010221d0 g     F .text	000000a4 __ratio
01025474 g     F .text	00000018 __vfiprintf_internal
010030e0 g     F .text	00000210 xQueueSemaphoreTake
01000a10 g     F .text	000000f4 eeprom_read_32
0100152c g     F .text	00000040 ulApplicationGetNextSequenceNumber
01003708 g     F .text	00000028 uxQueueGetQueueNumber
0100f9b0 g     F .text	0000007c FreeRTOS_rx_size
01018b00 g     F .text	00000030 _printf_r
01018670 g     F .text	00000064 .hidden __udivsi3
0102982c g     F .text	000000b0 isatty
01002054 g     F .text	00000034 vEventGroupSetNumber
0100f954 g     F .text	0000005c FreeRTOS_connstatus
0102e3c0 g     O .rodata	000000c8 __mprec_tens
01006a00 g     F .text	00000060 uxTaskGetStackHighWaterMark
010098a0 g     F .text	00000094 FreeRTOS_GetUDPPayloadBuffer
01016070 g     F .text	00000104 ulTCPWindowTxGet
0100211c g     F .text	0000008c vListInsertEnd
0102a314 g     F .text	00000098 alt_avalon_i2c_enable
0102ffec g     O .bss	00000004 __malloc_top_pad
0102ffa4 g     O .bss	00000001 flag
0100729c g     F .text	00000104 ulTaskGenericNotifyTake
01017414 g     F .text	00000054 eth_soft_reset
0100190c g     F .text	00000054 xEventGroupCreate
0102b948 g     F .text	0000006c alt_avalon_i2c_int_disable
0102ff2c g     O .bss	00000001 close_flag
0102094c g     F .text	0000000c _localeconv_r
0102183c g     F .text	00000034 __i2b
01020318 g     F .text	000004d4 __sfvwrite_r
0102ff18 g     O .bss	00000004 xTaskTempHandle
010229f4 g     F .text	00000058 _sbrk_r
0100888c g     F .text	00000174 eARPGetCacheEntry
01001f24 g     F .text	0000003c vEventGroupSetBitsCallback
01005818 g     F .text	000000f4 xTaskResumeFromISR
0102ffb0 g     O .bss	00000004 xBytesReceived
01008cd4 g     F .text	00000034 vARPSendGratuitous
01018520 g     F .text	00000024 uxGetNumberOfFreeNetworkBuffers
01025bc8 g     F .text	00000064 _read_r
010020f0 g     F .text	0000002c vListInitialiseItem
0102f274 g     O .rwdata	00000004 alt_max_fd
010108fc g     F .text	000000a8 xTCPSocketCheck
010094b8 g     F .text	00000048 xIsCallingFromIPTask
010024f0 g     F .text	00000044 vPortSysTickHandler
010256d4 g     F .text	000000f8 _fclose_r
0102f20a g     O .rwdata	00000004 mymask
01002f38 g     F .text	000001a8 xQueueReceive
0101fb84 g     F .text	00000028 fflush
0102ffe8 g     O .bss	00000004 __malloc_max_sbrked_mem
01064ea4 g     O .bss	00000014 xBoundTCPSocketsList
010053a4 g     F .text	0000004c uxTaskPriorityGetFromISR
01002534 g     F .text	00000164 alt_irq_register
0102b470 g     F .text	00000210 alt_avalon_i2c_master_receive
0100c3c4 g     F .text	0000004c FreeRTOS_DeleteSocketSet
0102ff1c g     O .bss	00000001 temperature
01015d08 g     F .text	00000160 vTCPWindowInit
01026c78 g     F .text	000009a0 .hidden __adddf3
01021f84 g     F .text	00000104 __b2d
010266b0 g     F .text	000005c8 .hidden __umoddi3
01029a04 g     F .text	000000e0 lseek
0102ff04 g     O .bss	00000004 eeprom_dev
0102b9b4 g     F .text	00000068 alt_avalon_i2c_int_enable
0102f254 g     O .rwdata	00000004 _global_impure_ptr
01017664 g     F .text	00000090 eth_read_buf_16
01001d30 g     F .text	00000180 xEventGroupSetBits
010223c8 g     F .text	0000062c _realloc_r
01064fcc g       *ABS*	00000000 __bss_end
01019ad0 g     F .text	00000018 strtol_l
0102c56c g     F .text	00000108 alt_tick
01026094 g     F .text	0000061c .hidden __udivdi3
0102b870 g     F .text	00000058 alt_avalon_i2c_int_status_get
0102592c g     F .text	00000024 _fputwc_r
0102e398 g     O .rodata	00000028 __mprec_bigtens
01021618 g     F .text	00000110 __s2b
01015edc g     F .text	00000194 lTCPWindowTxAdd
010294c4 g     F .text	0000009c .hidden __floatunsidf
01021d14 g     F .text	00000058 __mcmp
01009d90 g     F .text	00000090 FreeRTOS_GetAddressConfiguration
01017a48 g     F .text	00000208 pvPortMalloc
0101fed8 g     F .text	00000014 __fp_lock_all
0100a2dc g     F .text	00000084 xIsIPv4Multicast
010036cc g     F .text	0000003c vQueueDelete
01016ba0 g     F .text	000000d0 process_data_packet
0100245c g     F .text	00000020 vPortEndScheduler
01002088 g     F .text	00000068 vListInitialise
0100468c g     F .text	00000058 xStreamBufferIsEmpty
0102c4d0 g     F .text	0000009c alt_alarm_stop
01019ae8 g     F .text	00000018 strtol
0102a1c0 g     F .text	00000054 alt_avalon_i2c_register_callback
0102a214 g     F .text	000000c0 alt_avalon_i2c_init
0102fff8 g     O .bss	00000004 alt_irq_active
01000784 g     F .text	00000094 eeprom_write_8
01022cf0 g     F .text	00000040 strnlen
0100017c g     F .exceptions	000000cc alt_irq_handler
0102efd4 g     O .rwdata	00000028 alt_dev_null
01005b70 g     F .text	00000028 xTaskGetTickCount
01002bb4 g     F .text	000001b4 xQueueGenericSend
0100c0b0 g     F .text	00000040 vNetworkSocketsInit
0100f42c g     F .text	000001a0 lTCPAddRxdata
01003f44 g     F .text	000001cc xStreamBufferSend
01016174 g     F .text	00000040 xTCPWindowTxDone
010047e8 g     F .text	00000088 xStreamBufferReceiveCompletedFromISR
0102c004 g     F .text	00000020 alt_dcache_flush_all
01021728 g     F .text	00000064 __hi0bits
01005c24 g     F .text	000001c4 uxTaskGetSystemState
010079a4 g     F .text	00000160 vTaskGenericNotifyGiveFromISR
0102937c g     F .text	00000080 .hidden __fixdfsi
01004440 g     F .text	000000a8 xStreamBufferNextMessageLengthBytes
01006c74 g     F .text	00000108 xTaskPriorityDisinherit
0102f294 g       *ABS*	00000000 __ram_rwdata_end
01016a74 g     F .text	0000012c xProcessReceivedUDPPacket
0102f26c g     O .rwdata	00000008 alt_dev_list
01029e2c g     F .text	00000104 write
0102c8a8 g     F .text	000000cc _putc_r
01016c70 g     F .text	00000048 isr_rx_packet
0102ab30 g     F .text	0000004c alt_avalon_i2c_check_arblost
010061c4 g     F .text	00000100 xTaskRemoveFromEventList
01001478 g     F .text	00000048 vApplicationMallocFailedHook
0102b90c g     F .text	0000003c alt_avalon_i2c_int_clear
0102e624 g       *ABS*	00000000 __ram_rodata_end
01018350 g     F .text	00000080 pxNetworkBufferGetFromISR
01029734 g     F .text	000000bc fstat
01031d80 g     O .bss	00000014 xDefaultAddressing
01001c8c g     F .text	00000068 xEventGroupClearBits
01016d0c g     F .text	00000058 xNetworkInterfaceInitialise
01016478 g     F .text	00000024 vTCPWindowDestroy
010280ec g     F .text	000000f0 .hidden __ledf2
010032f0 g     F .text	000001b0 xQueuePeek
0102f284 g     O .rwdata	00000008 alt_avalon_i2c_list
01017218 g     F .text	00000084 eth_write_ctrl_8
01016e98 g     F .text	00000034 vNetworkNotifyIFUp
01021ab0 g     F .text	00000128 __pow5mult
01024138 g     F .text	0000133c ___vfiprintf_internal_r
010186d4 g     F .text	0000005c .hidden __umodsi3
01008f10 g     F .text	0000003c FreeRTOS_ClearARP
01064fcc g       *ABS*	00000000 end
010044e8 g     F .text	000000e8 xStreamBufferReceiveFromISR
01004fe4 g     F .text	000000e8 vTaskDelete
0100edc0 g     F .text	00000150 FreeRTOS_listen
0102a2d4 g     F .text	00000040 alt_avalon_i2c_open
0100b724 g     F .text	00000024 FreeRTOS_GetNetmask
01007264 g     F .text	00000038 pvTaskIncrementMutexHeldCount
0102ffb8 g     O .bss	00000001 current_bank
0102ca88 g       *ABS*	00000000 __CTOR_LIST__
0100069c g     F .text	000000e8 eeprom_write
01800000 g       *ABS*	00000000 __alt_stack_pointer
0102acb8 g     F .text	000000e8 alt_avalon_i2c_master_tx
0102be38 g     F .text	00000074 alt_avalon_timer_sc_init
01029560 g     F .text	00000054 .hidden __clzsi2
01018cb8 g     F .text	000000c4 _snprintf_r
0101fec8 g     F .text	00000004 __sfp_lock_acquire
0102132c g     F .text	000000e8 memchr
0101bc40 g     F .text	00002188 ___vfprintf_internal_r
01018e48 g     F .text	00000054 _sprintf_r
01006420 g     F .text	000000e8 xTaskCheckForTimeOut
0100d2a0 g     F .text	00000534 FreeRTOS_setsockopt
0102001c g     F .text	000002fc _free_r
0102c274 g     F .text	0000022c alt_printf
01017754 g     F .text	00000068 eth_read_buf
01009a54 g     F .text	00000034 pxUDPPayloadBuffer_to_NetworkBuffer
01006b14 g     F .text	00000160 xTaskPriorityInherit
0102e1d3 g     O .rodata	00000180 _ctype_b
0100f7fc g     F .text	0000007c FreeRTOS_tx_size
01025af4 g     F .text	0000000c __locale_mb_cur_max
01000b04 g     F .text	000000a0 eeprom_read_8
010026d0 g     F .text	00000050 vTaskGetTimestamp
0100ce08 g     F .text	0000008c FreeRTOS_closesocket
01016e44 g     F .text	00000020 xGetPhyLinkStatus
0102c790 g     F .text	00000118 __call_exitprocs
010635e4 g     O .bss	00000d55 test
010073a0 g     F .text	00000164 xTaskGenericNotifyWait
01003cf8 g     F .text	00000064 vStreamBufferDelete
0102a0d4 g     F .text	00000050 alt_avalon_i2c_register_optional_irq_handler
0102f25c g     O .rwdata	00000004 __malloc_sbrk_base
01000248 g     F .text	0000003c _start
01030008 g     O .bss	00000004 _alt_tick_rate
010059e8 g     F .text	0000002c vTaskSuspendAll
01005218 g     F .text	00000134 eTaskGetState
01019604 g     F .text	0000028c strstr
010046e4 g     F .text	0000007c xStreamBufferIsFull
0100cad8 g     F .text	00000150 FreeRTOS_bind
0102ffb4 g     O .bss	00000004 nirq_isr_context
01007da0 g     F .text	000001b4 FreeRTOS_CLIProcessCommand
01005b98 g     F .text	0000002c xTaskGetTickCountFromISR
0102b680 g     F .text	000001f0 alt_avalon_i2c_master_receive_using_interrupts
01018c58 g     F .text	00000060 rand
0102baac g     F .text	00000064 alt_avalon_i2c_rx_fifo_threshold_set
01021bd8 g     F .text	0000013c __lshift
0102bbc0 g     F .text	000001fc alt_avalon_spi_command
0103000c g     O .bss	00000004 _alt_nticks
0100f6a4 g     F .text	000000d4 FreeRTOS_maywrite
01029bc8 g     F .text	00000108 read
01029f68 g     F .text	0000005c alt_sys_init
01004b94 g     F .text	00000034 vStreamBufferSetStreamBufferNumber
01022d30 g     F .text	000001c4 __ssprint_r
01002280 g     F .text	00000098 uxListRemove
0102c700 g     F .text	00000090 __register_exitproc
01019024 g     F .text	000000fc strncmp
0102aedc g     F .text	000001c8 alt_avalon_i2c_master_tx_rx
01003c38 g     F .text	000000c0 xStreamBufferGenericCreate
01021870 g     F .text	00000240 __multiply
01018730 g     F .text	00000028 .hidden __mulsi3
0102e624 g       *ABS*	00000000 __ram_rwdata_start
0102ca88 g       *ABS*	00000000 __ram_rodata_start
01019120 g     F .text	000000e4 strncpy
010635bc g     O .bss	00000028 __malloc_current_mallinfo
01005740 g     F .text	000000d8 vTaskResume
01022088 g     F .text	00000148 __d2b
0100b7dc g     F .text	00000030 FreeRTOS_SetGatewayAddress
01004bc8 g     F .text	0000002c ucStreamBufferGetStreamBufferType
01005ff4 g     F .text	0000011c vTaskSwitchContext
01018500 g     F .text	00000020 uxGetMinimumFreeNetworkBuffers
0100dc08 g     F .text	00000064 FreeRTOS_inet_ntop
0100b6dc g     F .text	00000024 FreeRTOS_GetGatewayAddress
0102beac g     F .text	00000158 alt_busy_sleep
010255b0 g     F .text	00000058 _close_r
01000f54 g     F .text	00000228 prvFirmwareRXInstanceTask
01001590 g     F .text	00000048 vApplicationGetIdleTaskMemory
0102a748 g     F .text	000000ac alt_avalon_i2c_rx_read_available
01018758 g     F .text	0000008c memcmp
0100eb10 g     F .text	000002b0 FreeRTOS_send
01064fcc g       *ABS*	00000000 __alt_stack_base
0101824c g     F .text	00000104 pxGetNetworkBufferWithDescriptor
0100ef10 g     F .text	000000a0 FreeRTOS_shutdown
01006578 g     F .text	00000044 vTaskSetTaskNumber
0101dea0 g     F .text	00000160 __swsetup_r
01001318 g     F .text	0000003c vApplicationStackOverflowHook
010055b0 g     F .text	00000124 vTaskSuspend
01027618 g     F .text	00000964 .hidden __divdf3
0101fda8 g     F .text	000000fc __sfp
010222e8 g     F .text	0000006c __copybits
01005de8 g     F .text	00000048 xTaskCatchUpTicks
01005bc4 g     F .text	00000020 uxTaskGetNumberOfTasks
010164e4 g     F .text	00000590 vProcessGeneratedUDPPacket
0102ea60 g     O .rwdata	00000408 __malloc_av_
0101fed4 g     F .text	00000004 __sinit_lock_release
0102e624 g     O .rwdata	00000018 xDefaultPartUDPPacketHeader
010281dc g     F .text	000007e0 .hidden __muldf3
01022a4c g     F .text	00000054 __sread
0100fa70 g     F .text	00000340 vSocketSelect
0100f778 g     F .text	00000084 FreeRTOS_tx_space
0100f11c g     F .text	0000010c pxTCPSocketLookup
0102c060 g     F .text	000000a4 alt_dev_llist_insert
01029b44 g     F .text	00000024 __malloc_lock
01029d40 g     F .text	000000b0 sbrk
01019b00 g     F .text	00002140 ___svfprintf_internal_r
0102ab7c g     F .text	0000013c alt_avalon_i2c_interrupt_transaction_status
01002ac0 g     F .text	0000009c xQueueTakeMutexRecursive
0102aae4 g     F .text	0000004c alt_avalon_i2c_check_nack
0101fb24 g     F .text	00000060 _fflush_r
01001eb0 g     F .text	00000074 vEventGroupDelete
010101c4 g     F .text	00000194 uxStreamBufferGet
010162ec g     F .text	00000148 ulTCPWindowTxAck
01025608 g     F .text	000000cc _calloc_r
01064339 g     O .bss	000005b4 rx_buf
01007504 g     F .text	00000234 xTaskGenericNotify
0100f5cc g     F .text	000000d8 FreeRTOS_GetRemoteAddress
0102ff04 g       *ABS*	00000000 __bss_start
01064eb8 g     O .bss	00000014 xBoundUDPSocketsList
0100701c g     F .text	00000204 vTaskList
01006530 g     F .text	00000048 uxTaskGetTaskNumber
01018a10 g     F .text	000000f0 memset
01001354 g     F .text	000000c8 main
01000000 g       *ABS*	00000000 __alt_mem_RAM
0102aab0 g     F .text	00000034 alt_avalon_i2c_master_target_set
01030004 g     O .bss	00000004 alt_envp
0102ffe4 g     O .bss	00000004 __malloc_max_total_mem
0100dba8 g     F .text	00000060 FreeRTOS_inet_pton
01025e4c g     F .text	00000014 __swbuf
01018c44 g     F .text	00000014 srand
010008b8 g     F .text	000000b8 eeprom_write_32
0102b8c8 g     F .text	00000044 alt_avalon_i2c_int_raw_status_get
01009e20 g     F .text	00000090 FreeRTOS_SetAddressConfiguration
010011f0 g     F .text	000000c4 prvTempTask
010021a8 g     F .text	000000d8 vListInsert
0100c348 g     F .text	0000007c FreeRTOS_CreateSocketSet
0100efb0 g     F .text	0000016c xTCPTimerCheck
01022b84 g     F .text	00000008 __sclose
01800000 g       *ABS*	00000000 __alt_heap_limit
01017920 g     F .text	00000128 enc_tx_packet
010257cc g     F .text	00000010 fclose
01019acc g     F .text	00000004 _strtol_r
0102ff10 g     O .bss	00000008 txbuffer
0101e234 g     F .text	000016c8 _dtoa_r
01020b38 g     F .text	000007f4 _malloc_r
01025f5c g     F .text	00000030 __ascii_wctomb
0100b700 g     F .text	00000024 FreeRTOS_GetDNSServerAddress
01003764 g     F .text	00000028 ucQueueGetQueueType
0102f278 g     O .rwdata	00000004 alt_errno
0102ffac g     O .bss	00000004 xRXTaskHandle
01007f74 g     F .text	00000184 FreeRTOS_CLIGetParameter
010207ec g     F .text	000000a4 _fwalk
01016434 g     F .text	00000044 xTCPWindowRxEmpty
010034a0 g     F .text	000000e4 xQueueReceiveFromISR
01025b78 g     F .text	0000000c _mbtowc_r
01006aec g     F .text	00000028 xTaskGetCurrentTaskHandle
010183d0 g     F .text	0000005c vNetworkBufferReleaseFromISR
01001500 g     F .text	0000002c xApplicationGetRandomNumber
0102c974 g     F .text	000000e0 putc
01018578 g     F .text	00000080 .hidden __divsi3
0100284c g     F .text	00000098 xQueueGenericCreate
0101ff00 g     F .text	0000011c _malloc_trim_r
0102ca88 g       *ABS*	00000000 __CTOR_END__
01025c2c g     F .text	000000d8 strcmp
01002b5c g     F .text	00000058 xQueueCreateCountingSemaphore
0102ca88 g       *ABS*	00000000 __flash_rodata_start
0101842c g     F .text	000000d4 vReleaseNetworkBufferAndDescriptor
0102ca88 g       *ABS*	00000000 __DTOR_LIST__
01003e10 g     F .text	0000006c xStreamBufferSetTriggerLevel
0100b82c g     F .text	00000020 FreeRTOS_IsNetworkUp
01007738 g     F .text	0000026c xTaskGenericNotifyFromISR
01027f7c g     F .text	00000080 .hidden __nedf2
010015d8 g     F .text	0000006c vStartTelnetServer
01003730 g     F .text	00000034 vQueueSetQueueNumber
01029f30 g     F .text	00000038 alt_irq_init
01029cd0 g     F .text	00000070 alt_release_fd
0102ffa0 g     O .bss	00000004 xTCPWindowLoggingLevel
01005a14 g     F .text	0000015c xTaskResumeAll
0100e694 g     F .text	000002a4 FreeRTOS_recv
0102f224 g     O .rwdata	00000004 uxTopUsedPriority
01003640 g     F .text	00000054 uxQueueSpacesAvailable
01018e9c g     F .text	00000064 sprintf
0102e4d8 g     O .rodata	00000100 .hidden __clz_tab
0100590c g     F .text	00000094 vTaskStartScheduler
0102fff4 g     O .bss	00000004 _PathLocale
0102c698 g     F .text	00000014 atexit
0100c1a0 g     F .text	000001a8 FreeRTOS_socket
0102554c g     F .text	00000064 _write_r
01015a34 g     F .text	00000110 xTCPCheckNewClient
01002698 g     F .text	00000038 vConfigureTimerForRunTimeStats
0102ff0c g     O .bss	00000004 fwInstTaskHandle
01025b00 g     F .text	00000014 setlocale
01003be8 g     F .text	00000050 xQueueIsQueueFullFromISR
010648ed g     O .bss	000005b4 tx_buf
01000970 g     F .text	000000a0 eeprom_read
0100b6ac g     F .text	00000030 FreeRTOS_SetIPAddress
0102f204 g     O .rwdata	00000002 poll_period
0102f258 g     O .rwdata	00000004 _impure_ptr
0102fffc g     O .bss	00000004 alt_argc
0101f8fc g     F .text	00000228 __sflush_r
01004b6c g     F .text	00000028 uxStreamBufferGetStreamBufferNumber
0102c164 g     F .text	00000060 _do_dtors
010011ac g     F .text	00000024 get_temp
0100141c g     F .text	0000005c vApplicationIPNetworkEventHook
0102aa78 g     F .text	00000038 alt_avalon_i2c_master_target_get
0102a988 g     F .text	000000f0 alt_avalon_i2c_send_address
01016cb8 g     F .text	00000054 nIRQ_Initial
01000630 g     F .text	0000006c eeprom_init
01007d24 g     F .text	0000007c FreeRTOS_CLIRegisterCommand
01025b84 g     F .text	00000044 __ascii_mbtowc
01021f28 g     F .text	0000005c __ulp
0101feec g     F .text	00000014 __fp_unlock_all
01006508 g     F .text	00000028 vTaskMissedYield
0102ff7c g     O .bss	00000004 xNetworkEventQueue
01008af0 g     F .text	000001e4 vARPAgeCache
01016e64 g     F .text	00000034 vNetworkNotifyIFDown
0102f264 g     O .rwdata	00000008 alt_fs_list
01003600 g     F .text	00000040 uxQueueMessagesWaiting
0100dce4 g     F .text	00000214 FreeRTOS_inet_pton4
0100e420 g     F .text	00000274 FreeRTOS_accept
0100117c g     F .text	00000030 set_poll_period
01009934 g     F .text	000000ac pxDuplicateNetworkBufferWithDescriptor
01016200 g     F .text	000000ec xTCPWindowTxHasData
0100ea44 g     F .text	000000cc FreeRTOS_get_tx_head
01005e30 g     F .text	000001c4 xTaskIncrementTick
01000020 g       *ABS*	00000000 __ram_exceptions_start
0100b80c g     F .text	00000020 xIPIsNetworkTaskReady
01020958 g     F .text	0000000c localeconv
01020964 g     F .text	00000098 __swhatbuf_r
0102f212 g     O .rwdata	00000006 mymac
0102bb5c g     F .text	00000064 alt_avalon_i2c_tfr_cmd_fifo_threshold_set
01015c88 g     F .text	00000080 vTCPWindowCreate
0102a3ac g     F .text	0000004c alt_avalon_i2c_disable
0102ff20 g     O .bss	00000004 i2c_temp
01002720 g     F .text	0000012c xQueueGenericReset
0102f294 g       *ABS*	00000000 _edata
01064fcc g       *ABS*	00000000 _end
0100b688 g     F .text	00000024 FreeRTOS_GetIPAddress
010257dc g     F .text	00000150 __fputwc
01000248 g       *ABS*	00000000 __ram_exceptions_end
01017498 g     F .text	000001cc eth_init
0100b788 g     F .text	00000024 FreeRTOS_GetMACAddress
01004bf4 g     F .text	000000e4 xTaskCreate
01017d54 g     F .text	00000020 vPortInitialiseBlocks
01007b04 g     F .text	0000008c xTaskGenericNotifyStateClear
0102a3f8 g     F .text	000000b0 alt_avalon_i2c_master_config_get
01022aa8 g     F .text	00000080 __swrite
0102f260 g     O .rwdata	00000004 __malloc_trim_threshold
0102c6ac g     F .text	00000034 exit
01020890 g     F .text	000000b4 _fwalk_reent
01021d6c g     F .text	000001bc __mdiff
0100a360 g     F .text	000000bc vSetMultiCastIPv4MacAddress
0100ac94 g     F .text	0000061c usGenerateProtocolChecksum
01017060 g     F .text	00000070 eth_set_bank
010185f8 g     F .text	00000078 .hidden __modsi3
0100cc28 g     F .text	000001e0 vSocketBind
010051bc g     F .text	0000005c vTaskDelay
01008f4c g     F .text	000000ec xCheckLoopback
01800000 g       *ABS*	00000000 __alt_data_end
0101fecc g     F .text	00000004 __sfp_lock_release
010011d0 g     F .text	00000020 temp_getI2CStatus
0102a608 g     F .text	000000fc alt_avalon_i2c_master_config_speed_set
0102e0d2 g     O .rodata	00000101 _ctype_
01006d7c g     F .text	0000015c vTaskPriorityDisinheritAfterTimeout
0102a89c g     F .text	000000ec alt_avalon_i2c_cmd_write
01029328 g     F .text	00000054 .hidden __unorddf2
0100c510 g     F .text	00000058 FreeRTOS_FD_ISSET
01008da4 g     F .text	0000016c vARPGenerateRequestPacket
0102ca54 g     F .text	00000034 _exit
01025f8c g     F .text	00000108 .hidden __muldi3
010209fc g     F .text	0000013c __smakebuf_r
01008530 g     F .text	0000035c vARPRefreshCacheEntry
01006f2c g     F .text	00000060 vTaskExitCritical
01009038 g     F .text	0000009c FreeRTOS_PrintARPCache
01018f8c g     F .text	00000098 strlen
0100f228 g     F .text	0000005c FreeRTOS_get_rx_buf
01002344 g     F .text	000000e0 pxPortInitialiseStack
01027ffc g     F .text	000000f0 .hidden __gedf2
0100c8f4 g     F .text	000001e4 FreeRTOS_sendto
0102c4a0 g     F .text	00000030 alt_putchar
01015e68 g     F .text	00000074 lTCPWindowRxCheck
01017fc8 g     F .text	0000010c vPortGetHeapStats
01024120 g     F .text	00000018 __sprint_r
0102c254 g     F .text	00000020 alt_icache_flush_all
01022b8c g     F .text	00000164 strchr
01016ecc g     F .text	00000060 xNetworkInterfaceOutput
01006398 g     F .text	0000004c vTaskSetTimeOutState
01009eb0 g     F .text	00000048 xSendEventToIPTask
0100b84c g     F .text	000003cc FreeRTOS_strerror_r
01009840 g     F .text	00000060 FreeRTOS_NetworkDownFromISR
0100b5ec g     F .text	0000009c vReturnEthernetFrame
010097f0 g     F .text	00000050 FreeRTOS_NetworkDown
0102f27c g     O .rwdata	00000004 alt_priority_mask
0101732c g     F .text	00000074 eth_write_phy
0100b7ac g     F .text	00000030 FreeRTOS_SetNetmask
0102ff28 g     O .bss	00000004 len
0101ddc8 g     F .text	00000018 __vfprintf_internal
01025f50 g     F .text	0000000c _wctomb_r
01003694 g     F .text	00000038 uxQueueMessagesWaitingFromISR
01003b48 g     F .text	00000048 xQueueIsQueueEmptyFromISR
01003f04 g     F .text	00000040 xStreamBufferBytesAvailable
01030b94 g     O .bss	00000020 rxbuffer
010289bc g     F .text	0000096c .hidden __subdf3
0102178c g     F .text	000000b0 __lo0bits
010176f4 g     F .text	00000060 eth_read_buf_8
0102f28c g     O .rwdata	00000008 alt_alarm_list
0102c104 g     F .text	00000060 _do_ctors
0102ff24 g     O .bss	00000004 status
01007220 g     F .text	00000044 uxTaskResetEventItemValue
01025ecc g     F .text	00000084 wcrtomb
010029d4 g     F .text	0000005c xQueueCreateMutex
0100b2b0 g     F .text	0000033c usGenerateChecksum
010295f0 g     F .text	000000dc close
01018118 g     F .text	00000134 xNetworkBuffersInitialise
0102ee68 g     O .rwdata	0000016c __global_locale
0102bb10 g     F .text	0000004c alt_avalon_i2c_tfr_cmd_fifo_threshold_get
01029944 g     F .text	00000084 alt_load
0102ada0 g     F .text	0000013c alt_avalon_i2c_master_rx
01001f60 g     F .text	0000003c vEventGroupClearBitsCallback
01017d34 g     F .text	00000020 xPortGetMinimumEverFreeHeapSize
01004760 g     F .text	00000088 xStreamBufferSendCompletedFromISR
01002e5c g     F .text	000000dc xQueueGiveFromISR
01025950 g     F .text	0000007c fputwc
01017468 g     F .text	00000030 eth_get_pktcnt
01009a88 g     F .text	0000003c FreeRTOS_ReleaseUDPPayloadBuffer
0101fed0 g     F .text	00000004 __sinit_lock_acquire
010214dc g     F .text	0000013c __multadd
010214b8 g     F .text	00000024 _Bfree



Disassembly of section .entry:

01000000 <__reset>:
 1000000:	00404034 	movhi	at,256
 1000004:	08409214 	ori	at,at,584
 1000008:	0800683a 	jmp	at
	...

Disassembly of section .exceptions:

01000020 <save_context>:
 1000020:	ef7fff04 	addi	ea,ea,-4
 1000024:	deffe304 	addi	sp,sp,-116
 1000028:	dfc00015 	stw	ra,0(sp)
 100002c:	d8400215 	stw	at,8(sp)
 1000030:	d8800315 	stw	r2,12(sp)
 1000034:	d8c00415 	stw	r3,16(sp)
 1000038:	d9000515 	stw	r4,20(sp)
 100003c:	d9400615 	stw	r5,24(sp)
 1000040:	d9800715 	stw	r6,28(sp)
 1000044:	d9c00815 	stw	r7,32(sp)
 1000048:	da000915 	stw	r8,36(sp)
 100004c:	da400a15 	stw	r9,40(sp)
 1000050:	da800b15 	stw	r10,44(sp)
 1000054:	dac00c15 	stw	r11,48(sp)
 1000058:	db000d15 	stw	r12,52(sp)
 100005c:	db400e15 	stw	r13,56(sp)
 1000060:	db800f15 	stw	r14,60(sp)
 1000064:	dbc01015 	stw	r15,64(sp)
 1000068:	000b307a 	rdctl	r5,estatus
 100006c:	d9401115 	stw	r5,68(sp)
 1000070:	df401215 	stw	ea,72(sp)
 1000074:	dc001315 	stw	r16,76(sp)
 1000078:	dc401415 	stw	r17,80(sp)
 100007c:	dc801515 	stw	r18,84(sp)
 1000080:	dcc01615 	stw	r19,88(sp)
 1000084:	dd001715 	stw	r20,92(sp)
 1000088:	dd401815 	stw	r21,96(sp)
 100008c:	dd801915 	stw	r22,100(sp)
 1000090:	ddc01a15 	stw	r23,104(sp)
 1000094:	de801b15 	stw	gp,108(sp)
 1000098:	df001c15 	stw	fp,112(sp)

0100009c <save_sp_to_pxCurrentTCB>:
 100009c:	060040f4 	movhi	et,259
 10000a0:	c63fcc04 	addi	et,et,-208
 10000a4:	c6000017 	ldw	et,0(et)
 10000a8:	c6c00015 	stw	sp,0(et)

010000ac <hw_irq_test>:
 10000ac:	0009313a 	rdctl	r4,ipending
 10000b0:	000b307a 	rdctl	r5,estatus
 10000b4:	2880004c 	andi	r2,r5,1
 10000b8:	10002526 	beq	r2,zero,1000150 <soft_exceptions>
 10000bc:	20002426 	beq	r4,zero,1000150 <soft_exceptions>

010000c0 <hw_irq_handler>:
 10000c0:	100017c0 	call	100017c <alt_irq_handler>

010000c4 <restore_sp_from_pxCurrentTCB>:
 10000c4:	060040f4 	movhi	et,259
 10000c8:	c63fcc04 	addi	et,et,-208
 10000cc:	c6000017 	ldw	et,0(et)
 10000d0:	c6c00017 	ldw	sp,0(et)

010000d4 <restore_context>:
 10000d4:	dfc00017 	ldw	ra,0(sp)
 10000d8:	d8400217 	ldw	at,8(sp)
 10000dc:	d8800317 	ldw	r2,12(sp)
 10000e0:	d8c00417 	ldw	r3,16(sp)
 10000e4:	d9000517 	ldw	r4,20(sp)
 10000e8:	d9400617 	ldw	r5,24(sp)
 10000ec:	d9800717 	ldw	r6,28(sp)
 10000f0:	d9c00817 	ldw	r7,32(sp)
 10000f4:	da000917 	ldw	r8,36(sp)
 10000f8:	da400a17 	ldw	r9,40(sp)
 10000fc:	da800b17 	ldw	r10,44(sp)
 1000100:	dac00c17 	ldw	r11,48(sp)
 1000104:	db000d17 	ldw	r12,52(sp)
 1000108:	db400e17 	ldw	r13,56(sp)
 100010c:	db800f17 	ldw	r14,60(sp)
 1000110:	dbc01017 	ldw	r15,64(sp)
 1000114:	de001117 	ldw	et,68(sp)
 1000118:	c001707a 	wrctl	estatus,et
 100011c:	df401217 	ldw	ea,72(sp)
 1000120:	dc001317 	ldw	r16,76(sp)
 1000124:	dc401417 	ldw	r17,80(sp)
 1000128:	dc801517 	ldw	r18,84(sp)
 100012c:	dcc01617 	ldw	r19,88(sp)
 1000130:	dd001717 	ldw	r20,92(sp)
 1000134:	dd401817 	ldw	r21,96(sp)
 1000138:	dd801917 	ldw	r22,100(sp)
 100013c:	ddc01a17 	ldw	r23,104(sp)
 1000140:	de801b17 	ldw	gp,108(sp)
 1000144:	df001c17 	ldw	fp,112(sp)
 1000148:	dec01d04 	addi	sp,sp,116
 100014c:	ef80083a 	eret

01000150 <soft_exceptions>:
 1000150:	ee000017 	ldw	et,0(ea)
 1000154:	00400ef4 	movhi	at,59
 1000158:	085a0e94 	ori	at,at,26682
 100015c:	c070c03a 	cmpne	et,et,at
 1000160:	c0000226 	beq	et,zero,100016c <call_scheduler>
 1000164:	003da03a 	break	0
 1000168:	003fda06 	br	10000d4 <restore_context>

0100016c <call_scheduler>:
 100016c:	ef400104 	addi	ea,ea,4
 1000170:	df401215 	stw	ea,72(sp)
 1000174:	1005ff40 	call	1005ff4 <vTaskSwitchContext>
 1000178:	003fd206 	br	10000c4 <restore_sp_from_pxCurrentTCB>

0100017c <alt_irq_handler>:
 100017c:	defff904 	addi	sp,sp,-28
 1000180:	dfc00615 	stw	ra,24(sp)
 1000184:	df000515 	stw	fp,20(sp)
 1000188:	df000504 	addi	fp,sp,20
 100018c:	0001883a 	nop
 1000190:	0005313a 	rdctl	r2,ipending
 1000194:	e0bffc15 	stw	r2,-16(fp)
 1000198:	e0bffc17 	ldw	r2,-16(fp)
 100019c:	e0bfff15 	stw	r2,-4(fp)
 10001a0:	e03ffd15 	stw	zero,-12(fp)
 10001a4:	00800044 	movi	r2,1
 10001a8:	e0bffe15 	stw	r2,-8(fp)
 10001ac:	e0ffff17 	ldw	r3,-4(fp)
 10001b0:	e0bffe17 	ldw	r2,-8(fp)
 10001b4:	1884703a 	and	r2,r3,r2
 10001b8:	10001226 	beq	r2,zero,1000204 <alt_irq_handler+0x88>
 10001bc:	e0bffd17 	ldw	r2,-12(fp)
 10001c0:	100690fa 	slli	r3,r2,3
 10001c4:	008041b4 	movhi	r2,262
 10001c8:	1885883a 	add	r2,r3,r2
 10001cc:	10d3b317 	ldw	r3,20172(r2)
 10001d0:	e0bffd17 	ldw	r2,-12(fp)
 10001d4:	100890fa 	slli	r4,r2,3
 10001d8:	008041b4 	movhi	r2,262
 10001dc:	2085883a 	add	r2,r4,r2
 10001e0:	1093b417 	ldw	r2,20176(r2)
 10001e4:	e17ffd17 	ldw	r5,-12(fp)
 10001e8:	1009883a 	mov	r4,r2
 10001ec:	183ee83a 	callr	r3
 10001f0:	0001883a 	nop
 10001f4:	0005313a 	rdctl	r2,ipending
 10001f8:	e0bffb15 	stw	r2,-20(fp)
 10001fc:	e0bffb17 	ldw	r2,-20(fp)
 1000200:	00000706 	br	1000220 <alt_irq_handler+0xa4>
 1000204:	e0bffe17 	ldw	r2,-8(fp)
 1000208:	1085883a 	add	r2,r2,r2
 100020c:	e0bffe15 	stw	r2,-8(fp)
 1000210:	e0bffd17 	ldw	r2,-12(fp)
 1000214:	10800044 	addi	r2,r2,1
 1000218:	e0bffd15 	stw	r2,-12(fp)
 100021c:	003fe306 	br	10001ac <alt_irq_handler+0x30>
 1000220:	e0bfff15 	stw	r2,-4(fp)
 1000224:	e0bfff17 	ldw	r2,-4(fp)
 1000228:	103fdd1e 	bne	r2,zero,10001a0 <alt_irq_handler+0x24>
 100022c:	0001883a 	nop
 1000230:	0001883a 	nop
 1000234:	e037883a 	mov	sp,fp
 1000238:	dfc00117 	ldw	ra,4(sp)
 100023c:	df000017 	ldw	fp,0(sp)
 1000240:	dec00204 	addi	sp,sp,8
 1000244:	f800283a 	ret

Disassembly of section .text:

01000248 <_start>:
 1000248:	06c06034 	movhi	sp,384
 100024c:	dec00014 	ori	sp,sp,0
 1000250:	068040f4 	movhi	gp,259
 1000254:	d69c7b14 	ori	gp,gp,29164
 1000258:	008040b4 	movhi	r2,258
 100025c:	10bfc114 	ori	r2,r2,65284
 1000260:	00c041b4 	movhi	r3,262
 1000264:	18d3f314 	ori	r3,r3,20428
 1000268:	10c00326 	beq	r2,r3,1000278 <_start+0x30>
 100026c:	10000015 	stw	zero,0(r2)
 1000270:	10800104 	addi	r2,r2,4
 1000274:	10fffd36 	bltu	r2,r3,100026c <_start+0x24>
 1000278:	10299440 	call	1029944 <alt_load>
 100027c:	1029ae40 	call	1029ae4 <alt_main>

01000280 <alt_after_alt_main>:
 1000280:	003fff06 	br	1000280 <alt_after_alt_main>

01000284 <prvTaskNetbufCount>:
 1000284:	defff904 	addi	sp,sp,-28
 1000288:	dfc00615 	stw	ra,24(sp)
 100028c:	df000515 	stw	fp,20(sp)
 1000290:	dc000415 	stw	r16,16(sp)
 1000294:	df000504 	addi	fp,sp,20
 1000298:	e13ffd15 	stw	r4,-12(fp)
 100029c:	e17ffc15 	stw	r5,-16(fp)
 10002a0:	e1bffb15 	stw	r6,-20(fp)
 10002a4:	008040f4 	movhi	r2,259
 10002a8:	10b30b04 	addi	r2,r2,-13268
 10002ac:	e0bffe15 	stw	r2,-8(fp)
 10002b0:	e17ffe17 	ldw	r5,-8(fp)
 10002b4:	e13ffd17 	ldw	r4,-12(fp)
 10002b8:	1018f000 	call	1018f00 <strcpy>
 10002bc:	e13ffd17 	ldw	r4,-12(fp)
 10002c0:	1018f8c0 	call	1018f8c <strlen>
 10002c4:	1007883a 	mov	r3,r2
 10002c8:	e0bffd17 	ldw	r2,-12(fp)
 10002cc:	10e1883a 	add	r16,r2,r3
 10002d0:	10185200 	call	1018520 <uxGetNumberOfFreeNetworkBuffers>
 10002d4:	100d883a 	mov	r6,r2
 10002d8:	014040f4 	movhi	r5,259
 10002dc:	29731d04 	addi	r5,r5,-13196
 10002e0:	8009883a 	mov	r4,r16
 10002e4:	1018e9c0 	call	1018e9c <sprintf>
 10002e8:	e13ffd17 	ldw	r4,-12(fp)
 10002ec:	1018f8c0 	call	1018f8c <strlen>
 10002f0:	1007883a 	mov	r3,r2
 10002f4:	e0bffd17 	ldw	r2,-12(fp)
 10002f8:	10e1883a 	add	r16,r2,r3
 10002fc:	10185000 	call	1018500 <uxGetMinimumFreeNetworkBuffers>
 1000300:	100d883a 	mov	r6,r2
 1000304:	014040f4 	movhi	r5,259
 1000308:	29732604 	addi	r5,r5,-13160
 100030c:	8009883a 	mov	r4,r16
 1000310:	1018e9c0 	call	1018e9c <sprintf>
 1000314:	0005883a 	mov	r2,zero
 1000318:	e6ffff04 	addi	sp,fp,-4
 100031c:	dfc00217 	ldw	ra,8(sp)
 1000320:	df000117 	ldw	fp,4(sp)
 1000324:	dc000017 	ldw	r16,0(sp)
 1000328:	dec00304 	addi	sp,sp,12
 100032c:	f800283a 	ret

01000330 <prvTaskStatsCommand>:
 1000330:	defffa04 	addi	sp,sp,-24
 1000334:	dfc00515 	stw	ra,20(sp)
 1000338:	df000415 	stw	fp,16(sp)
 100033c:	df000404 	addi	fp,sp,16
 1000340:	e13ffe15 	stw	r4,-8(fp)
 1000344:	e17ffd15 	stw	r5,-12(fp)
 1000348:	e1bffc15 	stw	r6,-16(fp)
 100034c:	008040f4 	movhi	r2,259
 1000350:	10b32f04 	addi	r2,r2,-13124
 1000354:	e0bfff15 	stw	r2,-4(fp)
 1000358:	e17fff17 	ldw	r5,-4(fp)
 100035c:	e13ffe17 	ldw	r4,-8(fp)
 1000360:	1018f000 	call	1018f00 <strcpy>
 1000364:	e13ffe17 	ldw	r4,-8(fp)
 1000368:	100701c0 	call	100701c <vTaskList>
 100036c:	0005883a 	mov	r2,zero
 1000370:	e037883a 	mov	sp,fp
 1000374:	dfc00117 	ldw	ra,4(sp)
 1000378:	df000017 	ldw	fp,0(sp)
 100037c:	dec00204 	addi	sp,sp,8
 1000380:	f800283a 	ret

01000384 <prvHeapStatsCommand>:
 1000384:	defffa04 	addi	sp,sp,-24
 1000388:	dfc00515 	stw	ra,20(sp)
 100038c:	df000415 	stw	fp,16(sp)
 1000390:	df000404 	addi	fp,sp,16
 1000394:	e13ffe15 	stw	r4,-8(fp)
 1000398:	e17ffd15 	stw	r5,-12(fp)
 100039c:	e1bffc15 	stw	r6,-16(fp)
 10003a0:	008040f4 	movhi	r2,259
 10003a4:	10b34404 	addi	r2,r2,-13040
 10003a8:	e0bfff15 	stw	r2,-4(fp)
 10003ac:	e17fff17 	ldw	r5,-4(fp)
 10003b0:	e13ffe17 	ldw	r4,-8(fp)
 10003b4:	1018f000 	call	1018f00 <strcpy>
 10003b8:	010040f4 	movhi	r4,259
 10003bc:	21000404 	addi	r4,r4,16
 10003c0:	1017fc80 	call	1017fc8 <vPortGetHeapStats>
 10003c4:	e13ffe17 	ldw	r4,-8(fp)
 10003c8:	1018f8c0 	call	1018f8c <strlen>
 10003cc:	1007883a 	mov	r3,r2
 10003d0:	e0bffe17 	ldw	r2,-8(fp)
 10003d4:	10c7883a 	add	r3,r2,r3
 10003d8:	008040f4 	movhi	r2,259
 10003dc:	10800417 	ldw	r2,16(r2)
 10003e0:	100d883a 	mov	r6,r2
 10003e4:	014040f4 	movhi	r5,259
 10003e8:	29735604 	addi	r5,r5,-12968
 10003ec:	1809883a 	mov	r4,r3
 10003f0:	1018e9c0 	call	1018e9c <sprintf>
 10003f4:	e13ffe17 	ldw	r4,-8(fp)
 10003f8:	1018f8c0 	call	1018f8c <strlen>
 10003fc:	1007883a 	mov	r3,r2
 1000400:	e0bffe17 	ldw	r2,-8(fp)
 1000404:	10c7883a 	add	r3,r2,r3
 1000408:	008040f4 	movhi	r2,259
 100040c:	10800717 	ldw	r2,28(r2)
 1000410:	100d883a 	mov	r6,r2
 1000414:	014040f4 	movhi	r5,259
 1000418:	29736004 	addi	r5,r5,-12928
 100041c:	1809883a 	mov	r4,r3
 1000420:	1018e9c0 	call	1018e9c <sprintf>
 1000424:	e13ffe17 	ldw	r4,-8(fp)
 1000428:	1018f8c0 	call	1018f8c <strlen>
 100042c:	1007883a 	mov	r3,r2
 1000430:	e0bffe17 	ldw	r2,-8(fp)
 1000434:	10c7883a 	add	r3,r2,r3
 1000438:	008040f4 	movhi	r2,259
 100043c:	10800817 	ldw	r2,32(r2)
 1000440:	100d883a 	mov	r6,r2
 1000444:	014040f4 	movhi	r5,259
 1000448:	29736a04 	addi	r5,r5,-12888
 100044c:	1809883a 	mov	r4,r3
 1000450:	1018e9c0 	call	1018e9c <sprintf>
 1000454:	e13ffe17 	ldw	r4,-8(fp)
 1000458:	1018f8c0 	call	1018f8c <strlen>
 100045c:	1007883a 	mov	r3,r2
 1000460:	e0bffe17 	ldw	r2,-8(fp)
 1000464:	10c7883a 	add	r3,r2,r3
 1000468:	008040f4 	movhi	r2,259
 100046c:	10800917 	ldw	r2,36(r2)
 1000470:	100d883a 	mov	r6,r2
 1000474:	014040f4 	movhi	r5,259
 1000478:	29737404 	addi	r5,r5,-12848
 100047c:	1809883a 	mov	r4,r3
 1000480:	1018e9c0 	call	1018e9c <sprintf>
 1000484:	e13ffe17 	ldw	r4,-8(fp)
 1000488:	1018f8c0 	call	1018f8c <strlen>
 100048c:	1007883a 	mov	r3,r2
 1000490:	e0bffe17 	ldw	r2,-8(fp)
 1000494:	10c7883a 	add	r3,r2,r3
 1000498:	008040f4 	movhi	r2,259
 100049c:	10800a17 	ldw	r2,40(r2)
 10004a0:	100d883a 	mov	r6,r2
 10004a4:	014040f4 	movhi	r5,259
 10004a8:	29737e04 	addi	r5,r5,-12808
 10004ac:	1809883a 	mov	r4,r3
 10004b0:	1018e9c0 	call	1018e9c <sprintf>
 10004b4:	e13ffe17 	ldw	r4,-8(fp)
 10004b8:	1018f8c0 	call	1018f8c <strlen>
 10004bc:	1007883a 	mov	r3,r2
 10004c0:	e0bffe17 	ldw	r2,-8(fp)
 10004c4:	10c7883a 	add	r3,r2,r3
 10004c8:	008040f4 	movhi	r2,259
 10004cc:	10800617 	ldw	r2,24(r2)
 10004d0:	100d883a 	mov	r6,r2
 10004d4:	014040f4 	movhi	r5,259
 10004d8:	29738804 	addi	r5,r5,-12768
 10004dc:	1809883a 	mov	r4,r3
 10004e0:	1018e9c0 	call	1018e9c <sprintf>
 10004e4:	e13ffe17 	ldw	r4,-8(fp)
 10004e8:	1018f8c0 	call	1018f8c <strlen>
 10004ec:	1007883a 	mov	r3,r2
 10004f0:	e0bffe17 	ldw	r2,-8(fp)
 10004f4:	10c7883a 	add	r3,r2,r3
 10004f8:	008040f4 	movhi	r2,259
 10004fc:	10800517 	ldw	r2,20(r2)
 1000500:	100d883a 	mov	r6,r2
 1000504:	014040f4 	movhi	r5,259
 1000508:	29739204 	addi	r5,r5,-12728
 100050c:	1809883a 	mov	r4,r3
 1000510:	1018e9c0 	call	1018e9c <sprintf>
 1000514:	0005883a 	mov	r2,zero
 1000518:	e037883a 	mov	sp,fp
 100051c:	dfc00117 	ldw	ra,4(sp)
 1000520:	df000017 	ldw	fp,0(sp)
 1000524:	dec00204 	addi	sp,sp,8
 1000528:	f800283a 	ret

0100052c <prvTaskTimeStatCommand>:
 100052c:	defffa04 	addi	sp,sp,-24
 1000530:	dfc00515 	stw	ra,20(sp)
 1000534:	df000415 	stw	fp,16(sp)
 1000538:	df000404 	addi	fp,sp,16
 100053c:	e13ffe15 	stw	r4,-8(fp)
 1000540:	e17ffd15 	stw	r5,-12(fp)
 1000544:	e1bffc15 	stw	r6,-16(fp)
 1000548:	008040f4 	movhi	r2,259
 100054c:	10b39c04 	addi	r2,r2,-12688
 1000550:	e0bfff15 	stw	r2,-4(fp)
 1000554:	e17fff17 	ldw	r5,-4(fp)
 1000558:	e13ffe17 	ldw	r4,-8(fp)
 100055c:	1018f000 	call	1018f00 <strcpy>
 1000560:	0005883a 	mov	r2,zero
 1000564:	e037883a 	mov	sp,fp
 1000568:	dfc00117 	ldw	ra,4(sp)
 100056c:	df000017 	ldw	fp,0(sp)
 1000570:	dec00204 	addi	sp,sp,8
 1000574:	f800283a 	ret

01000578 <prvCloseConnect>:
 1000578:	defffa04 	addi	sp,sp,-24
 100057c:	dfc00515 	stw	ra,20(sp)
 1000580:	df000415 	stw	fp,16(sp)
 1000584:	df000404 	addi	fp,sp,16
 1000588:	e13ffe15 	stw	r4,-8(fp)
 100058c:	e17ffd15 	stw	r5,-12(fp)
 1000590:	e1bffc15 	stw	r6,-16(fp)
 1000594:	00800044 	movi	r2,1
 1000598:	d0a35005 	stb	r2,-29376(gp)
 100059c:	008040f4 	movhi	r2,259
 10005a0:	10b3af04 	addi	r2,r2,-12612
 10005a4:	e0bfff15 	stw	r2,-4(fp)
 10005a8:	e17fff17 	ldw	r5,-4(fp)
 10005ac:	e13ffe17 	ldw	r4,-8(fp)
 10005b0:	1018f000 	call	1018f00 <strcpy>
 10005b4:	0005883a 	mov	r2,zero
 10005b8:	e037883a 	mov	sp,fp
 10005bc:	dfc00117 	ldw	ra,4(sp)
 10005c0:	df000017 	ldw	fp,0(sp)
 10005c4:	dec00204 	addi	sp,sp,8
 10005c8:	f800283a 	ret

010005cc <vRegisterCLICommands>:
 10005cc:	defffe04 	addi	sp,sp,-8
 10005d0:	dfc00115 	stw	ra,4(sp)
 10005d4:	df000015 	stw	fp,0(sp)
 10005d8:	d839883a 	mov	fp,sp
 10005dc:	010040f4 	movhi	r4,259
 10005e0:	2132c804 	addi	r4,r4,-13536
 10005e4:	1007d240 	call	1007d24 <FreeRTOS_CLIRegisterCommand>
 10005e8:	010040f4 	movhi	r4,259
 10005ec:	2132dc04 	addi	r4,r4,-13456
 10005f0:	1007d240 	call	1007d24 <FreeRTOS_CLIRegisterCommand>
 10005f4:	010040f4 	movhi	r4,259
 10005f8:	2132f404 	addi	r4,r4,-13360
 10005fc:	1007d240 	call	1007d24 <FreeRTOS_CLIRegisterCommand>
 1000600:	010040f4 	movhi	r4,259
 1000604:	21330704 	addi	r4,r4,-13284
 1000608:	1007d240 	call	1007d24 <FreeRTOS_CLIRegisterCommand>
 100060c:	010040f4 	movhi	r4,259
 1000610:	2132ad04 	addi	r4,r4,-13644
 1000614:	1007d240 	call	1007d24 <FreeRTOS_CLIRegisterCommand>
 1000618:	0001883a 	nop
 100061c:	e037883a 	mov	sp,fp
 1000620:	dfc00117 	ldw	ra,4(sp)
 1000624:	df000017 	ldw	fp,0(sp)
 1000628:	dec00204 	addi	sp,sp,8
 100062c:	f800283a 	ret

01000630 <eeprom_init>:
 1000630:	defffe04 	addi	sp,sp,-8
 1000634:	dfc00115 	stw	ra,4(sp)
 1000638:	df000015 	stw	fp,0(sp)
 100063c:	d839883a 	mov	fp,sp
 1000640:	010040f4 	movhi	r4,259
 1000644:	2133c104 	addi	r4,r4,-12540
 1000648:	102a2d40 	call	102a2d4 <alt_avalon_i2c_open>
 100064c:	d0a34615 	stw	r2,-29416(gp)
 1000650:	d0a34617 	ldw	r2,-29416(gp)
 1000654:	1000071e 	bne	r2,zero,1000674 <eeprom_init+0x44>
 1000658:	014040f4 	movhi	r5,259
 100065c:	2973c104 	addi	r5,r5,-12540
 1000660:	010040f4 	movhi	r4,259
 1000664:	2133c504 	addi	r4,r4,-12524
 1000668:	1018b300 	call	1018b30 <printf>
 100066c:	00800044 	movi	r2,1
 1000670:	00000506 	br	1000688 <eeprom_init+0x58>
 1000674:	d0a34617 	ldw	r2,-29416(gp)
 1000678:	01401404 	movi	r5,80
 100067c:	1009883a 	mov	r4,r2
 1000680:	102aab00 	call	102aab0 <alt_avalon_i2c_master_target_set>
 1000684:	0005883a 	mov	r2,zero
 1000688:	e037883a 	mov	sp,fp
 100068c:	dfc00117 	ldw	ra,4(sp)
 1000690:	df000017 	ldw	fp,0(sp)
 1000694:	dec00204 	addi	sp,sp,8
 1000698:	f800283a 	ret

0100069c <eeprom_write>:
 100069c:	defffa04 	addi	sp,sp,-24
 10006a0:	dfc00515 	stw	ra,20(sp)
 10006a4:	df000415 	stw	fp,16(sp)
 10006a8:	df000404 	addi	fp,sp,16
 10006ac:	e13ffd15 	stw	r4,-12(fp)
 10006b0:	2805883a 	mov	r2,r5
 10006b4:	e0bffc05 	stb	r2,-16(fp)
 10006b8:	00801404 	movi	r2,80
 10006bc:	e0bfffc5 	stb	r2,-1(fp)
 10006c0:	e0bffc03 	ldbu	r2,-16(fp)
 10006c4:	e0bfff85 	stb	r2,-2(fp)
 10006c8:	e0bffd17 	ldw	r2,-12(fp)
 10006cc:	10c00003 	ldbu	r3,0(r2)
 10006d0:	10800043 	ldbu	r2,1(r2)
 10006d4:	1004923a 	slli	r2,r2,8
 10006d8:	10c4b03a 	or	r2,r2,r3
 10006dc:	10bfffcc 	andi	r2,r2,65535
 10006e0:	1080c00c 	andi	r2,r2,768
 10006e4:	10000c26 	beq	r2,zero,1000718 <eeprom_write+0x7c>
 10006e8:	e0bffd17 	ldw	r2,-12(fp)
 10006ec:	10c00003 	ldbu	r3,0(r2)
 10006f0:	10800043 	ldbu	r2,1(r2)
 10006f4:	1004923a 	slli	r2,r2,8
 10006f8:	10c4b03a 	or	r2,r2,r3
 10006fc:	10bfffcc 	andi	r2,r2,65535
 1000700:	1004d23a 	srli	r2,r2,8
 1000704:	108000cc 	andi	r2,r2,3
 1000708:	1007883a 	mov	r3,r2
 100070c:	e0bfffc3 	ldbu	r2,-1(fp)
 1000710:	1884b03a 	or	r2,r3,r2
 1000714:	e0bfffc5 	stb	r2,-1(fp)
 1000718:	e0bfff83 	ldbu	r2,-2(fp)
 100071c:	10800470 	cmpltui	r2,r2,17
 1000720:	1000021e 	bne	r2,zero,100072c <eeprom_write+0x90>
 1000724:	00800404 	movi	r2,16
 1000728:	e0bfff85 	stb	r2,-2(fp)
 100072c:	d0a34617 	ldw	r2,-29416(gp)
 1000730:	e0ffffc3 	ldbu	r3,-1(fp)
 1000734:	180b883a 	mov	r5,r3
 1000738:	1009883a 	mov	r4,r2
 100073c:	102aab00 	call	102aab0 <alt_avalon_i2c_master_target_set>
 1000740:	d0e34617 	ldw	r3,-29416(gp)
 1000744:	e0bffd17 	ldw	r2,-12(fp)
 1000748:	11000044 	addi	r4,r2,1
 100074c:	e0bfff83 	ldbu	r2,-2(fp)
 1000750:	10800044 	addi	r2,r2,1
 1000754:	000f883a 	mov	r7,zero
 1000758:	100d883a 	mov	r6,r2
 100075c:	200b883a 	mov	r5,r4
 1000760:	1809883a 	mov	r4,r3
 1000764:	102acb80 	call	102acb8 <alt_avalon_i2c_master_tx>
 1000768:	e0bffe15 	stw	r2,-8(fp)
 100076c:	e0bffe17 	ldw	r2,-8(fp)
 1000770:	e037883a 	mov	sp,fp
 1000774:	dfc00117 	ldw	ra,4(sp)
 1000778:	df000017 	ldw	fp,0(sp)
 100077c:	dec00204 	addi	sp,sp,8
 1000780:	f800283a 	ret

01000784 <eeprom_write_8>:
 1000784:	defff904 	addi	sp,sp,-28
 1000788:	dfc00615 	stw	ra,24(sp)
 100078c:	df000515 	stw	fp,20(sp)
 1000790:	df000504 	addi	fp,sp,20
 1000794:	2005883a 	mov	r2,r4
 1000798:	2807883a 	mov	r3,r5
 100079c:	e0bffc0d 	sth	r2,-16(fp)
 10007a0:	1805883a 	mov	r2,r3
 10007a4:	e0bffb05 	stb	r2,-20(fp)
 10007a8:	e0bffc0b 	ldhu	r2,-16(fp)
 10007ac:	1004d23a 	srli	r2,r2,8
 10007b0:	108000cc 	andi	r2,r2,3
 10007b4:	10801414 	ori	r2,r2,80
 10007b8:	e0bfffc5 	stb	r2,-1(fp)
 10007bc:	e0bffc0b 	ldhu	r2,-16(fp)
 10007c0:	e0bffd85 	stb	r2,-10(fp)
 10007c4:	e0bffb03 	ldbu	r2,-20(fp)
 10007c8:	e0bffdc5 	stb	r2,-9(fp)
 10007cc:	d0a34617 	ldw	r2,-29416(gp)
 10007d0:	e0ffffc3 	ldbu	r3,-1(fp)
 10007d4:	180b883a 	mov	r5,r3
 10007d8:	1009883a 	mov	r4,r2
 10007dc:	102aab00 	call	102aab0 <alt_avalon_i2c_master_target_set>
 10007e0:	d0a34617 	ldw	r2,-29416(gp)
 10007e4:	e0fffd84 	addi	r3,fp,-10
 10007e8:	000f883a 	mov	r7,zero
 10007ec:	01800084 	movi	r6,2
 10007f0:	180b883a 	mov	r5,r3
 10007f4:	1009883a 	mov	r4,r2
 10007f8:	102acb80 	call	102acb8 <alt_avalon_i2c_master_tx>
 10007fc:	e0bffe15 	stw	r2,-8(fp)
 1000800:	e0bffe17 	ldw	r2,-8(fp)
 1000804:	e037883a 	mov	sp,fp
 1000808:	dfc00117 	ldw	ra,4(sp)
 100080c:	df000017 	ldw	fp,0(sp)
 1000810:	dec00204 	addi	sp,sp,8
 1000814:	f800283a 	ret

01000818 <eeprom_write_16>:
 1000818:	defff904 	addi	sp,sp,-28
 100081c:	dfc00615 	stw	ra,24(sp)
 1000820:	df000515 	stw	fp,20(sp)
 1000824:	df000504 	addi	fp,sp,20
 1000828:	2005883a 	mov	r2,r4
 100082c:	2807883a 	mov	r3,r5
 1000830:	e0bffc0d 	sth	r2,-16(fp)
 1000834:	1805883a 	mov	r2,r3
 1000838:	e0bffb0d 	sth	r2,-20(fp)
 100083c:	e0bffc0b 	ldhu	r2,-16(fp)
 1000840:	1004d23a 	srli	r2,r2,8
 1000844:	108000cc 	andi	r2,r2,3
 1000848:	10801414 	ori	r2,r2,80
 100084c:	e0bfffc5 	stb	r2,-1(fp)
 1000850:	e0bffc0b 	ldhu	r2,-16(fp)
 1000854:	e0bffd45 	stb	r2,-11(fp)
 1000858:	e0bffb0b 	ldhu	r2,-20(fp)
 100085c:	1004d23a 	srli	r2,r2,8
 1000860:	e0bffd85 	stb	r2,-10(fp)
 1000864:	e0bffb0b 	ldhu	r2,-20(fp)
 1000868:	e0bffdc5 	stb	r2,-9(fp)
 100086c:	d0a34617 	ldw	r2,-29416(gp)
 1000870:	e0ffffc3 	ldbu	r3,-1(fp)
 1000874:	180b883a 	mov	r5,r3
 1000878:	1009883a 	mov	r4,r2
 100087c:	102aab00 	call	102aab0 <alt_avalon_i2c_master_target_set>
 1000880:	d0a34617 	ldw	r2,-29416(gp)
 1000884:	e0fffd44 	addi	r3,fp,-11
 1000888:	000f883a 	mov	r7,zero
 100088c:	018000c4 	movi	r6,3
 1000890:	180b883a 	mov	r5,r3
 1000894:	1009883a 	mov	r4,r2
 1000898:	102acb80 	call	102acb8 <alt_avalon_i2c_master_tx>
 100089c:	e0bffe15 	stw	r2,-8(fp)
 10008a0:	e0bffe17 	ldw	r2,-8(fp)
 10008a4:	e037883a 	mov	sp,fp
 10008a8:	dfc00117 	ldw	ra,4(sp)
 10008ac:	df000017 	ldw	fp,0(sp)
 10008b0:	dec00204 	addi	sp,sp,8
 10008b4:	f800283a 	ret

010008b8 <eeprom_write_32>:
 10008b8:	defff704 	addi	sp,sp,-36
 10008bc:	dfc00815 	stw	ra,32(sp)
 10008c0:	df000715 	stw	fp,28(sp)
 10008c4:	df000704 	addi	fp,sp,28
 10008c8:	2005883a 	mov	r2,r4
 10008cc:	e17ff915 	stw	r5,-28(fp)
 10008d0:	e0bffa0d 	sth	r2,-24(fp)
 10008d4:	e0bff917 	ldw	r2,-28(fp)
 10008d8:	e0bfff15 	stw	r2,-4(fp)
 10008dc:	e0bffa0b 	ldhu	r2,-24(fp)
 10008e0:	1004d23a 	srli	r2,r2,8
 10008e4:	108000cc 	andi	r2,r2,3
 10008e8:	10801414 	ori	r2,r2,80
 10008ec:	e0bffec5 	stb	r2,-5(fp)
 10008f0:	e0bffa0b 	ldhu	r2,-24(fp)
 10008f4:	e0bffbc5 	stb	r2,-17(fp)
 10008f8:	e0bfff17 	ldw	r2,-4(fp)
 10008fc:	1004d63a 	srli	r2,r2,24
 1000900:	e0bffc05 	stb	r2,-16(fp)
 1000904:	e0bfff17 	ldw	r2,-4(fp)
 1000908:	1004d43a 	srli	r2,r2,16
 100090c:	e0bffc45 	stb	r2,-15(fp)
 1000910:	e0bfff17 	ldw	r2,-4(fp)
 1000914:	1004d23a 	srli	r2,r2,8
 1000918:	e0bffc85 	stb	r2,-14(fp)
 100091c:	e0bfff17 	ldw	r2,-4(fp)
 1000920:	e0bffcc5 	stb	r2,-13(fp)
 1000924:	d0a34617 	ldw	r2,-29416(gp)
 1000928:	e0fffec3 	ldbu	r3,-5(fp)
 100092c:	180b883a 	mov	r5,r3
 1000930:	1009883a 	mov	r4,r2
 1000934:	102aab00 	call	102aab0 <alt_avalon_i2c_master_target_set>
 1000938:	d0a34617 	ldw	r2,-29416(gp)
 100093c:	e0fffbc4 	addi	r3,fp,-17
 1000940:	000f883a 	mov	r7,zero
 1000944:	01800144 	movi	r6,5
 1000948:	180b883a 	mov	r5,r3
 100094c:	1009883a 	mov	r4,r2
 1000950:	102acb80 	call	102acb8 <alt_avalon_i2c_master_tx>
 1000954:	e0bffd15 	stw	r2,-12(fp)
 1000958:	e0bffd17 	ldw	r2,-12(fp)
 100095c:	e037883a 	mov	sp,fp
 1000960:	dfc00117 	ldw	ra,4(sp)
 1000964:	df000017 	ldw	fp,0(sp)
 1000968:	dec00204 	addi	sp,sp,8
 100096c:	f800283a 	ret

01000970 <eeprom_read>:
 1000970:	defff604 	addi	sp,sp,-40
 1000974:	dfc00915 	stw	ra,36(sp)
 1000978:	df000815 	stw	fp,32(sp)
 100097c:	df000804 	addi	fp,sp,32
 1000980:	2005883a 	mov	r2,r4
 1000984:	e17ffb15 	stw	r5,-20(fp)
 1000988:	3007883a 	mov	r3,r6
 100098c:	e0bffc0d 	sth	r2,-16(fp)
 1000990:	1805883a 	mov	r2,r3
 1000994:	e0bffa05 	stb	r2,-24(fp)
 1000998:	e0bffc0b 	ldhu	r2,-16(fp)
 100099c:	10803fcc 	andi	r2,r2,255
 10009a0:	e0bffd15 	stw	r2,-12(fp)
 10009a4:	e0bffc0b 	ldhu	r2,-16(fp)
 10009a8:	1004d23a 	srli	r2,r2,8
 10009ac:	108000cc 	andi	r2,r2,3
 10009b0:	10801414 	ori	r2,r2,80
 10009b4:	e0bfffc5 	stb	r2,-1(fp)
 10009b8:	d0a34617 	ldw	r2,-29416(gp)
 10009bc:	e0ffffc3 	ldbu	r3,-1(fp)
 10009c0:	180b883a 	mov	r5,r3
 10009c4:	1009883a 	mov	r4,r2
 10009c8:	102aab00 	call	102aab0 <alt_avalon_i2c_master_target_set>
 10009cc:	d0e34617 	ldw	r3,-29416(gp)
 10009d0:	e0bffa07 	ldb	r2,-24(fp)
 10009d4:	e13ffd04 	addi	r4,fp,-12
 10009d8:	d8000115 	stw	zero,4(sp)
 10009dc:	d8800015 	stw	r2,0(sp)
 10009e0:	e1fffb17 	ldw	r7,-20(fp)
 10009e4:	01800044 	movi	r6,1
 10009e8:	200b883a 	mov	r5,r4
 10009ec:	1809883a 	mov	r4,r3
 10009f0:	102aedc0 	call	102aedc <alt_avalon_i2c_master_tx_rx>
 10009f4:	e0bffe15 	stw	r2,-8(fp)
 10009f8:	e0bffe17 	ldw	r2,-8(fp)
 10009fc:	e037883a 	mov	sp,fp
 1000a00:	dfc00117 	ldw	ra,4(sp)
 1000a04:	df000017 	ldw	fp,0(sp)
 1000a08:	dec00204 	addi	sp,sp,8
 1000a0c:	f800283a 	ret

01000a10 <eeprom_read_32>:
 1000a10:	defff704 	addi	sp,sp,-36
 1000a14:	dfc00815 	stw	ra,32(sp)
 1000a18:	df000715 	stw	fp,28(sp)
 1000a1c:	df000704 	addi	fp,sp,28
 1000a20:	2005883a 	mov	r2,r4
 1000a24:	e0bffb0d 	sth	r2,-20(fp)
 1000a28:	e03ffdc5 	stb	zero,-9(fp)
 1000a2c:	e03ffe05 	stb	zero,-8(fp)
 1000a30:	e03ffe45 	stb	zero,-7(fp)
 1000a34:	e03ffe85 	stb	zero,-6(fp)
 1000a38:	e03fff15 	stw	zero,-4(fp)
 1000a3c:	e0bffb0b 	ldhu	r2,-20(fp)
 1000a40:	e0bffc15 	stw	r2,-16(fp)
 1000a44:	e0bffb0b 	ldhu	r2,-20(fp)
 1000a48:	1004d23a 	srli	r2,r2,8
 1000a4c:	108000cc 	andi	r2,r2,3
 1000a50:	10801414 	ori	r2,r2,80
 1000a54:	e0bffec5 	stb	r2,-5(fp)
 1000a58:	d0a34617 	ldw	r2,-29416(gp)
 1000a5c:	e0fffec3 	ldbu	r3,-5(fp)
 1000a60:	180b883a 	mov	r5,r3
 1000a64:	1009883a 	mov	r4,r2
 1000a68:	102aab00 	call	102aab0 <alt_avalon_i2c_master_target_set>
 1000a6c:	d0e34617 	ldw	r3,-29416(gp)
 1000a70:	e17ffdc4 	addi	r5,fp,-9
 1000a74:	e13ffc04 	addi	r4,fp,-16
 1000a78:	d8000115 	stw	zero,4(sp)
 1000a7c:	00800104 	movi	r2,4
 1000a80:	d8800015 	stw	r2,0(sp)
 1000a84:	280f883a 	mov	r7,r5
 1000a88:	01800044 	movi	r6,1
 1000a8c:	200b883a 	mov	r5,r4
 1000a90:	1809883a 	mov	r4,r3
 1000a94:	102aedc0 	call	102aedc <alt_avalon_i2c_master_tx_rx>
 1000a98:	e0bffdc3 	ldbu	r2,-9(fp)
 1000a9c:	10803fcc 	andi	r2,r2,255
 1000aa0:	1004963a 	slli	r2,r2,24
 1000aa4:	e0bfff15 	stw	r2,-4(fp)
 1000aa8:	e0bffe03 	ldbu	r2,-8(fp)
 1000aac:	10803fcc 	andi	r2,r2,255
 1000ab0:	1004943a 	slli	r2,r2,16
 1000ab4:	e0ffff17 	ldw	r3,-4(fp)
 1000ab8:	1884b03a 	or	r2,r3,r2
 1000abc:	e0bfff15 	stw	r2,-4(fp)
 1000ac0:	e0bffe43 	ldbu	r2,-7(fp)
 1000ac4:	10803fcc 	andi	r2,r2,255
 1000ac8:	1004923a 	slli	r2,r2,8
 1000acc:	e0ffff17 	ldw	r3,-4(fp)
 1000ad0:	1884b03a 	or	r2,r3,r2
 1000ad4:	e0bfff15 	stw	r2,-4(fp)
 1000ad8:	e0bffe83 	ldbu	r2,-6(fp)
 1000adc:	10803fcc 	andi	r2,r2,255
 1000ae0:	e0ffff17 	ldw	r3,-4(fp)
 1000ae4:	1884b03a 	or	r2,r3,r2
 1000ae8:	e0bfff15 	stw	r2,-4(fp)
 1000aec:	e0bfff17 	ldw	r2,-4(fp)
 1000af0:	e037883a 	mov	sp,fp
 1000af4:	dfc00117 	ldw	ra,4(sp)
 1000af8:	df000017 	ldw	fp,0(sp)
 1000afc:	dec00204 	addi	sp,sp,8
 1000b00:	f800283a 	ret

01000b04 <eeprom_read_8>:
 1000b04:	defff804 	addi	sp,sp,-32
 1000b08:	dfc00715 	stw	ra,28(sp)
 1000b0c:	df000615 	stw	fp,24(sp)
 1000b10:	df000604 	addi	fp,sp,24
 1000b14:	2005883a 	mov	r2,r4
 1000b18:	e0bffc0d 	sth	r2,-16(fp)
 1000b1c:	e03ffe85 	stb	zero,-6(fp)
 1000b20:	e03fff15 	stw	zero,-4(fp)
 1000b24:	e0bffc0b 	ldhu	r2,-16(fp)
 1000b28:	e0bffd15 	stw	r2,-12(fp)
 1000b2c:	e0bffc0b 	ldhu	r2,-16(fp)
 1000b30:	1004d23a 	srli	r2,r2,8
 1000b34:	108000cc 	andi	r2,r2,3
 1000b38:	10801414 	ori	r2,r2,80
 1000b3c:	e0bffec5 	stb	r2,-5(fp)
 1000b40:	d0a34617 	ldw	r2,-29416(gp)
 1000b44:	e0fffec3 	ldbu	r3,-5(fp)
 1000b48:	180b883a 	mov	r5,r3
 1000b4c:	1009883a 	mov	r4,r2
 1000b50:	102aab00 	call	102aab0 <alt_avalon_i2c_master_target_set>
 1000b54:	d0e34617 	ldw	r3,-29416(gp)
 1000b58:	e17ffe84 	addi	r5,fp,-6
 1000b5c:	e13ffd04 	addi	r4,fp,-12
 1000b60:	d8000115 	stw	zero,4(sp)
 1000b64:	00800044 	movi	r2,1
 1000b68:	d8800015 	stw	r2,0(sp)
 1000b6c:	280f883a 	mov	r7,r5
 1000b70:	01800044 	movi	r6,1
 1000b74:	200b883a 	mov	r5,r4
 1000b78:	1809883a 	mov	r4,r3
 1000b7c:	102aedc0 	call	102aedc <alt_avalon_i2c_master_tx_rx>
 1000b80:	e0bffe83 	ldbu	r2,-6(fp)
 1000b84:	10803fcc 	andi	r2,r2,255
 1000b88:	e0bfff15 	stw	r2,-4(fp)
 1000b8c:	e0bfff17 	ldw	r2,-4(fp)
 1000b90:	e037883a 	mov	sp,fp
 1000b94:	dfc00117 	ldw	ra,4(sp)
 1000b98:	df000017 	ldw	fp,0(sp)
 1000b9c:	dec00204 	addi	sp,sp,8
 1000ba0:	f800283a 	ret

01000ba4 <vStartHTTPServer>:
 1000ba4:	defffa04 	addi	sp,sp,-24
 1000ba8:	dfc00515 	stw	ra,20(sp)
 1000bac:	df000415 	stw	fp,16(sp)
 1000bb0:	df000404 	addi	fp,sp,16
 1000bb4:	2005883a 	mov	r2,r4
 1000bb8:	e17ffe15 	stw	r5,-8(fp)
 1000bbc:	e0bfff0d 	sth	r2,-4(fp)
 1000bc0:	e0ffff0b 	ldhu	r3,-4(fp)
 1000bc4:	e0bffe17 	ldw	r2,-8(fp)
 1000bc8:	10800044 	addi	r2,r2,1
 1000bcc:	d8000115 	stw	zero,4(sp)
 1000bd0:	d8800015 	stw	r2,0(sp)
 1000bd4:	000f883a 	mov	r7,zero
 1000bd8:	180d883a 	mov	r6,r3
 1000bdc:	014040f4 	movhi	r5,259
 1000be0:	2973f604 	addi	r5,r5,-12328
 1000be4:	01004034 	movhi	r4,256
 1000be8:	21030e04 	addi	r4,r4,3128
 1000bec:	1004bf40 	call	1004bf4 <xTaskCreate>
 1000bf0:	d8000115 	stw	zero,4(sp)
 1000bf4:	00800144 	movi	r2,5
 1000bf8:	d8800015 	stw	r2,0(sp)
 1000bfc:	000f883a 	mov	r7,zero
 1000c00:	01810004 	movi	r6,1024
 1000c04:	014040f4 	movhi	r5,259
 1000c08:	2973f804 	addi	r5,r5,-12320
 1000c0c:	01004034 	movhi	r4,256
 1000c10:	21039704 	addi	r4,r4,3676
 1000c14:	1004bf40 	call	1004bf4 <xTaskCreate>
 1000c18:	e0bfff0b 	ldhu	r2,-4(fp)
 1000c1c:	d0a3470d 	sth	r2,-29412(gp)
 1000c20:	0001883a 	nop
 1000c24:	e037883a 	mov	sp,fp
 1000c28:	dfc00117 	ldw	ra,4(sp)
 1000c2c:	df000017 	ldw	fp,0(sp)
 1000c30:	dec00204 	addi	sp,sp,8
 1000c34:	f800283a 	ret

01000c38 <prvHTTPServer>:
 1000c38:	deffec04 	addi	sp,sp,-80
 1000c3c:	dfc01315 	stw	ra,76(sp)
 1000c40:	df001215 	stw	fp,72(sp)
 1000c44:	dc001115 	stw	r16,68(sp)
 1000c48:	df001204 	addi	fp,sp,72
 1000c4c:	e13fef15 	stw	r4,-68(fp)
 1000c50:	00800204 	movi	r2,8
 1000c54:	e0bff015 	stw	r2,-64(fp)
 1000c58:	00800504 	movi	r2,20
 1000c5c:	e0bffc15 	stw	r2,-16(fp)
 1000c60:	e03ffe15 	stw	zero,-8(fp)
 1000c64:	01800184 	movi	r6,6
 1000c68:	01400044 	movi	r5,1
 1000c6c:	01000084 	movi	r4,2
 1000c70:	100c1a00 	call	100c1a0 <FreeRTOS_socket>
 1000c74:	e0bffb15 	stw	r2,-20(fp)
 1000c78:	00800104 	movi	r2,4
 1000c7c:	d8800015 	stw	r2,0(sp)
 1000c80:	d1e00204 	addi	r7,gp,-32760
 1000c84:	000d883a 	mov	r6,zero
 1000c88:	000b883a 	mov	r5,zero
 1000c8c:	e13ffb17 	ldw	r4,-20(fp)
 1000c90:	100d2a00 	call	100d2a0 <FreeRTOS_setsockopt>
 1000c94:	00801404 	movi	r2,80
 1000c98:	e0bff18d 	sth	r2,-58(fp)
 1000c9c:	e0bff18b 	ldhu	r2,-58(fp)
 1000ca0:	10bfffcc 	andi	r2,r2,65535
 1000ca4:	1004923a 	slli	r2,r2,8
 1000ca8:	1007883a 	mov	r3,r2
 1000cac:	e0bff18b 	ldhu	r2,-58(fp)
 1000cb0:	10bfffcc 	andi	r2,r2,65535
 1000cb4:	1004d23a 	srli	r2,r2,8
 1000cb8:	1884b03a 	or	r2,r3,r2
 1000cbc:	e0bff18d 	sth	r2,-58(fp)
 1000cc0:	e0bff104 	addi	r2,fp,-60
 1000cc4:	01800204 	movi	r6,8
 1000cc8:	100b883a 	mov	r5,r2
 1000ccc:	e13ffb17 	ldw	r4,-20(fp)
 1000cd0:	100cad80 	call	100cad8 <FreeRTOS_bind>
 1000cd4:	e17ffc17 	ldw	r5,-16(fp)
 1000cd8:	e13ffb17 	ldw	r4,-20(fp)
 1000cdc:	100edc00 	call	100edc0 <FreeRTOS_listen>
 1000ce0:	e03ffa15 	stw	zero,-24(fp)
 1000ce4:	e0fff004 	addi	r3,fp,-64
 1000ce8:	e0bff304 	addi	r2,fp,-52
 1000cec:	180d883a 	mov	r6,r3
 1000cf0:	100b883a 	mov	r5,r2
 1000cf4:	e13ffb17 	ldw	r4,-20(fp)
 1000cf8:	100e4200 	call	100e420 <FreeRTOS_accept>
 1000cfc:	e0bff915 	stw	r2,-28(fp)
 1000d00:	e0bff917 	ldw	r2,-28(fp)
 1000d04:	10bfffe0 	cmpeqi	r2,r2,-1
 1000d08:	103ff61e 	bne	r2,zero,1000ce4 <prvHTTPServer+0xac>
 1000d0c:	00800104 	movi	r2,4
 1000d10:	d8800015 	stw	r2,0(sp)
 1000d14:	d1e00204 	addi	r7,gp,-32760
 1000d18:	000d883a 	mov	r6,zero
 1000d1c:	000b883a 	mov	r5,zero
 1000d20:	e13ff917 	ldw	r4,-28(fp)
 1000d24:	100d2a00 	call	100d2a0 <FreeRTOS_setsockopt>
 1000d28:	00800104 	movi	r2,4
 1000d2c:	d8800015 	stw	r2,0(sp)
 1000d30:	d1e00104 	addi	r7,gp,-32764
 1000d34:	01800044 	movi	r6,1
 1000d38:	000b883a 	mov	r5,zero
 1000d3c:	e13ff917 	ldw	r4,-28(fp)
 1000d40:	100d2a00 	call	100d2a0 <FreeRTOS_setsockopt>
 1000d44:	000f883a 	mov	r7,zero
 1000d48:	01802a04 	movi	r6,168
 1000d4c:	014040f4 	movhi	r5,259
 1000d50:	2973cb04 	addi	r5,r5,-12500
 1000d54:	e13ff917 	ldw	r4,-28(fp)
 1000d58:	100eb100 	call	100eb10 <FreeRTOS_send>
 1000d5c:	0009883a 	mov	r4,zero
 1000d60:	1000a100 	call	1000a10 <eeprom_read_32>
 1000d64:	e0bffa15 	stw	r2,-24(fp)
 1000d68:	01016d04 	movi	r4,1460
 1000d6c:	1017a480 	call	1017a48 <pvPortMalloc>
 1000d70:	e0bff815 	stw	r2,-32(fp)
 1000d74:	e03ffd15 	stw	zero,-12(fp)
 1000d78:	00000b06 	br	1000da8 <prvHTTPServer+0x170>
 1000d7c:	e0bffd17 	ldw	r2,-12(fp)
 1000d80:	10800404 	addi	r2,r2,16
 1000d84:	113fffcc 	andi	r4,r2,65535
 1000d88:	e0fff817 	ldw	r3,-32(fp)
 1000d8c:	e0bffd17 	ldw	r2,-12(fp)
 1000d90:	18a1883a 	add	r16,r3,r2
 1000d94:	1000b040 	call	1000b04 <eeprom_read_8>
 1000d98:	80800005 	stb	r2,0(r16)
 1000d9c:	e0bffd17 	ldw	r2,-12(fp)
 1000da0:	10800044 	addi	r2,r2,1
 1000da4:	e0bffd15 	stw	r2,-12(fp)
 1000da8:	e0fffd17 	ldw	r3,-12(fp)
 1000dac:	e0bffa17 	ldw	r2,-24(fp)
 1000db0:	18bff236 	bltu	r3,r2,1000d7c <prvHTTPServer+0x144>
 1000db4:	e0bffa17 	ldw	r2,-24(fp)
 1000db8:	e0bff715 	stw	r2,-36(fp)
 1000dbc:	00000d06 	br	1000df4 <prvHTTPServer+0x1bc>
 1000dc0:	e0bffe17 	ldw	r2,-8(fp)
 1000dc4:	e0fff817 	ldw	r3,-32(fp)
 1000dc8:	1885883a 	add	r2,r3,r2
 1000dcc:	000f883a 	mov	r7,zero
 1000dd0:	e1bff717 	ldw	r6,-36(fp)
 1000dd4:	100b883a 	mov	r5,r2
 1000dd8:	e13ff917 	ldw	r4,-28(fp)
 1000ddc:	100eb100 	call	100eb10 <FreeRTOS_send>
 1000de0:	e0bff615 	stw	r2,-40(fp)
 1000de4:	e0fffe17 	ldw	r3,-8(fp)
 1000de8:	e0bff617 	ldw	r2,-40(fp)
 1000dec:	1885883a 	add	r2,r3,r2
 1000df0:	e0bffe15 	stw	r2,-8(fp)
 1000df4:	e0fffe17 	ldw	r3,-8(fp)
 1000df8:	e0bffa17 	ldw	r2,-24(fp)
 1000dfc:	18bff036 	bltu	r3,r2,1000dc0 <prvHTTPServer+0x188>
 1000e00:	01400084 	movi	r5,2
 1000e04:	e13ff917 	ldw	r4,-28(fp)
 1000e08:	100ef100 	call	100ef10 <FreeRTOS_shutdown>
 1000e0c:	1005b700 	call	1005b70 <xTaskGetTickCount>
 1000e10:	e0bff515 	stw	r2,-44(fp)
 1000e14:	000f883a 	mov	r7,zero
 1000e18:	01816d04 	movi	r6,1460
 1000e1c:	014040f4 	movhi	r5,259
 1000e20:	29417804 	addi	r5,r5,1504
 1000e24:	e13ff917 	ldw	r4,-28(fp)
 1000e28:	100e6940 	call	100e694 <FreeRTOS_recv>
 1000e2c:	10000716 	blt	r2,zero,1000e4c <prvHTTPServer+0x214>
 1000e30:	1005b700 	call	1005b70 <xTaskGetTickCount>
 1000e34:	1007883a 	mov	r3,r2
 1000e38:	e0bff517 	ldw	r2,-44(fp)
 1000e3c:	1885c83a 	sub	r2,r3,r2
 1000e40:	1084e230 	cmpltui	r2,r2,5000
 1000e44:	103ff31e 	bne	r2,zero,1000e14 <prvHTTPServer+0x1dc>
 1000e48:	00000106 	br	1000e50 <prvHTTPServer+0x218>
 1000e4c:	0001883a 	nop
 1000e50:	e13ff917 	ldw	r4,-28(fp)
 1000e54:	100ce080 	call	100ce08 <FreeRTOS_closesocket>
 1000e58:	003fa206 	br	1000ce4 <prvHTTPServer+0xac>

01000e5c <prvFirmwareRXListeninigTask>:
 1000e5c:	defff304 	addi	sp,sp,-52
 1000e60:	dfc00c15 	stw	ra,48(sp)
 1000e64:	df000b15 	stw	fp,44(sp)
 1000e68:	df000b04 	addi	fp,sp,44
 1000e6c:	e13ff715 	stw	r4,-36(fp)
 1000e70:	00800204 	movi	r2,8
 1000e74:	e0bff815 	stw	r2,-32(fp)
 1000e78:	00800504 	movi	r2,20
 1000e7c:	e0bfff15 	stw	r2,-4(fp)
 1000e80:	01800184 	movi	r6,6
 1000e84:	01400044 	movi	r5,1
 1000e88:	01000084 	movi	r4,2
 1000e8c:	100c1a00 	call	100c1a0 <FreeRTOS_socket>
 1000e90:	e0bffe15 	stw	r2,-8(fp)
 1000e94:	00800104 	movi	r2,4
 1000e98:	d8800015 	stw	r2,0(sp)
 1000e9c:	d1e00304 	addi	r7,gp,-32756
 1000ea0:	000d883a 	mov	r6,zero
 1000ea4:	000b883a 	mov	r5,zero
 1000ea8:	e13ffe17 	ldw	r4,-8(fp)
 1000eac:	100d2a00 	call	100d2a0 <FreeRTOS_setsockopt>
 1000eb0:	0085c304 	movi	r2,5900
 1000eb4:	e0bff98d 	sth	r2,-26(fp)
 1000eb8:	e0bff98b 	ldhu	r2,-26(fp)
 1000ebc:	10bfffcc 	andi	r2,r2,65535
 1000ec0:	1004923a 	slli	r2,r2,8
 1000ec4:	1007883a 	mov	r3,r2
 1000ec8:	e0bff98b 	ldhu	r2,-26(fp)
 1000ecc:	10bfffcc 	andi	r2,r2,65535
 1000ed0:	1004d23a 	srli	r2,r2,8
 1000ed4:	1884b03a 	or	r2,r3,r2
 1000ed8:	e0bff98d 	sth	r2,-26(fp)
 1000edc:	e0bff904 	addi	r2,fp,-28
 1000ee0:	01800204 	movi	r6,8
 1000ee4:	100b883a 	mov	r5,r2
 1000ee8:	e13ffe17 	ldw	r4,-8(fp)
 1000eec:	100cad80 	call	100cad8 <FreeRTOS_bind>
 1000ef0:	e17fff17 	ldw	r5,-4(fp)
 1000ef4:	e13ffe17 	ldw	r4,-8(fp)
 1000ef8:	100edc00 	call	100edc0 <FreeRTOS_listen>
 1000efc:	e0fff804 	addi	r3,fp,-32
 1000f00:	e0bffb04 	addi	r2,fp,-20
 1000f04:	180d883a 	mov	r6,r3
 1000f08:	100b883a 	mov	r5,r2
 1000f0c:	e13ffe17 	ldw	r4,-8(fp)
 1000f10:	100e4200 	call	100e420 <FreeRTOS_accept>
 1000f14:	e0bffd15 	stw	r2,-12(fp)
 1000f18:	e0bffd17 	ldw	r2,-12(fp)
 1000f1c:	10bfffe0 	cmpeqi	r2,r2,-1
 1000f20:	103ff61e 	bne	r2,zero,1000efc <prvFirmwareRXListeninigTask+0xa0>
 1000f24:	d0a34804 	addi	r2,gp,-29408
 1000f28:	d8800115 	stw	r2,4(sp)
 1000f2c:	00800144 	movi	r2,5
 1000f30:	d8800015 	stw	r2,0(sp)
 1000f34:	e1fffd17 	ldw	r7,-12(fp)
 1000f38:	01830004 	movi	r6,3072
 1000f3c:	014040f4 	movhi	r5,259
 1000f40:	2973fb04 	addi	r5,r5,-12308
 1000f44:	01004034 	movhi	r4,256
 1000f48:	2103d504 	addi	r4,r4,3924
 1000f4c:	1004bf40 	call	1004bf4 <xTaskCreate>
 1000f50:	003fea06 	br	1000efc <prvFirmwareRXListeninigTask+0xa0>

01000f54 <prvFirmwareRXInstanceTask>:
 1000f54:	deffee04 	addi	sp,sp,-72
 1000f58:	dfc01115 	stw	ra,68(sp)
 1000f5c:	df001015 	stw	fp,64(sp)
 1000f60:	df001004 	addi	fp,sp,64
 1000f64:	e13ff115 	stw	r4,-60(fp)
 1000f68:	e03ffd15 	stw	zero,-12(fp)
 1000f6c:	e03fff15 	stw	zero,-4(fp)
 1000f70:	e0bff117 	ldw	r2,-60(fp)
 1000f74:	e0bffc15 	stw	r2,-16(fp)
 1000f78:	01016d04 	movi	r4,1460
 1000f7c:	1017a480 	call	1017a48 <pvPortMalloc>
 1000f80:	e0bffb15 	stw	r2,-20(fp)
 1000f84:	e03ffa15 	stw	zero,-24(fp)
 1000f88:	e03ff915 	stw	zero,-28(fp)
 1000f8c:	e0bffb17 	ldw	r2,-20(fp)
 1000f90:	10005b26 	beq	r2,zero,1001100 <prvFirmwareRXInstanceTask+0x1ac>
 1000f94:	00800104 	movi	r2,4
 1000f98:	d8800015 	stw	r2,0(sp)
 1000f9c:	d1e00404 	addi	r7,gp,-32752
 1000fa0:	000d883a 	mov	r6,zero
 1000fa4:	000b883a 	mov	r5,zero
 1000fa8:	e13ffc17 	ldw	r4,-16(fp)
 1000fac:	100d2a00 	call	100d2a0 <FreeRTOS_setsockopt>
 1000fb0:	00800104 	movi	r2,4
 1000fb4:	d8800015 	stw	r2,0(sp)
 1000fb8:	d1e00504 	addi	r7,gp,-32748
 1000fbc:	01800044 	movi	r6,1
 1000fc0:	000b883a 	mov	r5,zero
 1000fc4:	e13ffc17 	ldw	r4,-16(fp)
 1000fc8:	100d2a00 	call	100d2a0 <FreeRTOS_setsockopt>
 1000fcc:	000f883a 	mov	r7,zero
 1000fd0:	01816d04 	movi	r6,1460
 1000fd4:	e17ffb17 	ldw	r5,-20(fp)
 1000fd8:	e13ffc17 	ldw	r4,-16(fp)
 1000fdc:	100e6940 	call	100e694 <FreeRTOS_recv>
 1000fe0:	e0bffd15 	stw	r2,-12(fp)
 1000fe4:	014040f4 	movhi	r5,259
 1000fe8:	2973fd04 	addi	r5,r5,-12300
 1000fec:	e13ffb17 	ldw	r4,-20(fp)
 1000ff0:	10196040 	call	1019604 <strstr>
 1000ff4:	e0bff915 	stw	r2,-28(fp)
 1000ff8:	e0bff917 	ldw	r2,-28(fp)
 1000ffc:	10800404 	addi	r2,r2,16
 1001000:	01800284 	movi	r6,10
 1001004:	000b883a 	mov	r5,zero
 1001008:	1009883a 	mov	r4,r2
 100100c:	1019ae80 	call	1019ae8 <strtol>
 1001010:	e0bffa15 	stw	r2,-24(fp)
 1001014:	e13ffa17 	ldw	r4,-24(fp)
 1001018:	1017a480 	call	1017a48 <pvPortMalloc>
 100101c:	e0bff815 	stw	r2,-32(fp)
 1001020:	e03ffd15 	stw	zero,-12(fp)
 1001024:	00000d06 	br	100105c <prvFirmwareRXInstanceTask+0x108>
 1001028:	e0bfff17 	ldw	r2,-4(fp)
 100102c:	e0fff817 	ldw	r3,-32(fp)
 1001030:	1885883a 	add	r2,r3,r2
 1001034:	000f883a 	mov	r7,zero
 1001038:	e1bffa17 	ldw	r6,-24(fp)
 100103c:	100b883a 	mov	r5,r2
 1001040:	e13ffc17 	ldw	r4,-16(fp)
 1001044:	100e6940 	call	100e694 <FreeRTOS_recv>
 1001048:	e0bffd15 	stw	r2,-12(fp)
 100104c:	e0ffff17 	ldw	r3,-4(fp)
 1001050:	e0bffd17 	ldw	r2,-12(fp)
 1001054:	1885883a 	add	r2,r3,r2
 1001058:	e0bfff15 	stw	r2,-4(fp)
 100105c:	e0ffff17 	ldw	r3,-4(fp)
 1001060:	e0bffa17 	ldw	r2,-24(fp)
 1001064:	18bff036 	bltu	r3,r2,1001028 <prvFirmwareRXInstanceTask+0xd4>
 1001068:	e03ffe8d 	sth	zero,-6(fp)
 100106c:	00000d06 	br	10010a4 <prvFirmwareRXInstanceTask+0x150>
 1001070:	e0bffe8b 	ldhu	r2,-6(fp)
 1001074:	10800404 	addi	r2,r2,16
 1001078:	113fffcc 	andi	r4,r2,65535
 100107c:	e0bffe8b 	ldhu	r2,-6(fp)
 1001080:	e0fff817 	ldw	r3,-32(fp)
 1001084:	1885883a 	add	r2,r3,r2
 1001088:	10800003 	ldbu	r2,0(r2)
 100108c:	10803fcc 	andi	r2,r2,255
 1001090:	100b883a 	mov	r5,r2
 1001094:	10007840 	call	1000784 <eeprom_write_8>
 1001098:	e0bffe8b 	ldhu	r2,-6(fp)
 100109c:	10800044 	addi	r2,r2,1
 10010a0:	e0bffe8d 	sth	r2,-6(fp)
 10010a4:	e0fffe8b 	ldhu	r3,-6(fp)
 10010a8:	e0bffa17 	ldw	r2,-24(fp)
 10010ac:	18bff036 	bltu	r3,r2,1001070 <prvFirmwareRXInstanceTask+0x11c>
 10010b0:	e03ffe0d 	sth	zero,-8(fp)
 10010b4:	00000b06 	br	10010e4 <prvFirmwareRXInstanceTask+0x190>
 10010b8:	e0bffe0b 	ldhu	r2,-8(fp)
 10010bc:	1009883a 	mov	r4,r2
 10010c0:	1000b040 	call	1000b04 <eeprom_read_8>
 10010c4:	e0fffe0b 	ldhu	r3,-8(fp)
 10010c8:	1009883a 	mov	r4,r2
 10010cc:	008041b4 	movhi	r2,262
 10010d0:	1885883a 	add	r2,r3,r2
 10010d4:	110d7905 	stb	r4,13796(r2)
 10010d8:	e0bffe0b 	ldhu	r2,-8(fp)
 10010dc:	10800044 	addi	r2,r2,1
 10010e0:	e0bffe0d 	sth	r2,-8(fp)
 10010e4:	e0bffe0b 	ldhu	r2,-8(fp)
 10010e8:	10835570 	cmpltui	r2,r2,3413
 10010ec:	103ff21e 	bne	r2,zero,10010b8 <prvFirmwareRXInstanceTask+0x164>
 10010f0:	e17ffa17 	ldw	r5,-24(fp)
 10010f4:	0009883a 	mov	r4,zero
 10010f8:	10008b80 	call	10008b8 <eeprom_write_32>
 10010fc:	0001883a 	nop
 1001100:	01400084 	movi	r5,2
 1001104:	e13ffc17 	ldw	r4,-16(fp)
 1001108:	100ef100 	call	100ef10 <FreeRTOS_shutdown>
 100110c:	1005b700 	call	1005b70 <xTaskGetTickCount>
 1001110:	e0bff715 	stw	r2,-36(fp)
 1001114:	000f883a 	mov	r7,zero
 1001118:	01816d04 	movi	r6,1460
 100111c:	e17ffb17 	ldw	r5,-20(fp)
 1001120:	e13ffc17 	ldw	r4,-16(fp)
 1001124:	100e6940 	call	100e694 <FreeRTOS_recv>
 1001128:	10000716 	blt	r2,zero,1001148 <prvFirmwareRXInstanceTask+0x1f4>
 100112c:	1005b700 	call	1005b70 <xTaskGetTickCount>
 1001130:	1007883a 	mov	r3,r2
 1001134:	e0bff717 	ldw	r2,-36(fp)
 1001138:	1885c83a 	sub	r2,r3,r2
 100113c:	1084e230 	cmpltui	r2,r2,5000
 1001140:	103ff41e 	bne	r2,zero,1001114 <prvFirmwareRXInstanceTask+0x1c0>
 1001144:	00000106 	br	100114c <prvFirmwareRXInstanceTask+0x1f8>
 1001148:	0001883a 	nop
 100114c:	e13ffb17 	ldw	r4,-20(fp)
 1001150:	1017c500 	call	1017c50 <vPortFree>
 1001154:	e13ffc17 	ldw	r4,-16(fp)
 1001158:	100ce080 	call	100ce08 <FreeRTOS_closesocket>
 100115c:	0009883a 	mov	r4,zero
 1001160:	1004fe40 	call	1004fe4 <vTaskDelete>
 1001164:	0001883a 	nop
 1001168:	e037883a 	mov	sp,fp
 100116c:	dfc00117 	ldw	ra,4(sp)
 1001170:	df000017 	ldw	fp,0(sp)
 1001174:	dec00204 	addi	sp,sp,8
 1001178:	f800283a 	ret

0100117c <set_poll_period>:
 100117c:	defffe04 	addi	sp,sp,-8
 1001180:	df000115 	stw	fp,4(sp)
 1001184:	df000104 	addi	fp,sp,4
 1001188:	2005883a 	mov	r2,r4
 100118c:	e0bfff0d 	sth	r2,-4(fp)
 1001190:	e0bfff0b 	ldhu	r2,-4(fp)
 1001194:	d0a0060d 	sth	r2,-32744(gp)
 1001198:	0001883a 	nop
 100119c:	e037883a 	mov	sp,fp
 10011a0:	df000017 	ldw	fp,0(sp)
 10011a4:	dec00104 	addi	sp,sp,4
 10011a8:	f800283a 	ret

010011ac <get_temp>:
 10011ac:	deffff04 	addi	sp,sp,-4
 10011b0:	df000015 	stw	fp,0(sp)
 10011b4:	d839883a 	mov	fp,sp
 10011b8:	d0a34c03 	ldbu	r2,-29392(gp)
 10011bc:	10803fcc 	andi	r2,r2,255
 10011c0:	e037883a 	mov	sp,fp
 10011c4:	df000017 	ldw	fp,0(sp)
 10011c8:	dec00104 	addi	sp,sp,4
 10011cc:	f800283a 	ret

010011d0 <temp_getI2CStatus>:
 10011d0:	deffff04 	addi	sp,sp,-4
 10011d4:	df000015 	stw	fp,0(sp)
 10011d8:	d839883a 	mov	fp,sp
 10011dc:	d0a34e17 	ldw	r2,-29384(gp)
 10011e0:	e037883a 	mov	sp,fp
 10011e4:	df000017 	ldw	fp,0(sp)
 10011e8:	dec00104 	addi	sp,sp,4
 10011ec:	f800283a 	ret

010011f0 <prvTempTask>:
 10011f0:	defffb04 	addi	sp,sp,-20
 10011f4:	dfc00415 	stw	ra,16(sp)
 10011f8:	df000315 	stw	fp,12(sp)
 10011fc:	df000304 	addi	fp,sp,12
 1001200:	e13fff15 	stw	r4,-4(fp)
 1001204:	010040f4 	movhi	r4,259
 1001208:	21340104 	addi	r4,r4,-12284
 100120c:	102a2d40 	call	102a2d4 <alt_avalon_i2c_open>
 1001210:	d0a34d15 	stw	r2,-29388(gp)
 1001214:	d0a34d17 	ldw	r2,-29388(gp)
 1001218:	1000051e 	bne	r2,zero,1001230 <prvTempTask+0x40>
 100121c:	014040f4 	movhi	r5,259
 1001220:	29740104 	addi	r5,r5,-12284
 1001224:	010040f4 	movhi	r4,259
 1001228:	21340504 	addi	r4,r4,-12268
 100122c:	1018b300 	call	1018b30 <printf>
 1001230:	d0a34d17 	ldw	r2,-29388(gp)
 1001234:	01401204 	movi	r5,72
 1001238:	1009883a 	mov	r4,r2
 100123c:	102aab00 	call	102aab0 <alt_avalon_i2c_master_target_set>
 1001240:	d0234905 	stb	zero,-29404(gp)
 1001244:	d0e34d17 	ldw	r3,-29388(gp)
 1001248:	d8000115 	stw	zero,4(sp)
 100124c:	00800084 	movi	r2,2
 1001250:	d8800015 	stw	r2,0(sp)
 1001254:	01c040f4 	movhi	r7,259
 1001258:	39c2e504 	addi	r7,r7,2964
 100125c:	01800044 	movi	r6,1
 1001260:	d1634904 	addi	r5,gp,-29404
 1001264:	1809883a 	mov	r4,r3
 1001268:	102aedc0 	call	102aedc <alt_avalon_i2c_master_tx_rx>
 100126c:	d0a34e15 	stw	r2,-29384(gp)
 1001270:	008040f4 	movhi	r2,259
 1001274:	1082e503 	ldbu	r2,2964(r2)
 1001278:	d0a34c05 	stb	r2,-29392(gp)
 100127c:	d0a34c03 	ldbu	r2,-29392(gp)
 1001280:	10803fcc 	andi	r2,r2,255
 1001284:	00806035 	stwio	r2,384(zero)
 1001288:	d0a0060b 	ldhu	r2,-32744(gp)
 100128c:	10bfffcc 	andi	r2,r2,65535
 1001290:	0140fa04 	movi	r5,1000
 1001294:	1009883a 	mov	r4,r2
 1001298:	10187300 	call	1018730 <__mulsi3>
 100129c:	0140fa04 	movi	r5,1000
 10012a0:	1009883a 	mov	r4,r2
 10012a4:	10186700 	call	1018670 <__udivsi3>
 10012a8:	1009883a 	mov	r4,r2
 10012ac:	10051bc0 	call	10051bc <vTaskDelay>
 10012b0:	003fe306 	br	1001240 <prvTempTask+0x50>

010012b4 <vStartTempChecking>:
 10012b4:	defffa04 	addi	sp,sp,-24
 10012b8:	dfc00515 	stw	ra,20(sp)
 10012bc:	df000415 	stw	fp,16(sp)
 10012c0:	df000404 	addi	fp,sp,16
 10012c4:	2005883a 	mov	r2,r4
 10012c8:	e17ffe15 	stw	r5,-8(fp)
 10012cc:	e0bfff0d 	sth	r2,-4(fp)
 10012d0:	e0ffff0b 	ldhu	r3,-4(fp)
 10012d4:	d0a34b04 	addi	r2,gp,-29396
 10012d8:	d8800115 	stw	r2,4(sp)
 10012dc:	e0bffe17 	ldw	r2,-8(fp)
 10012e0:	d8800015 	stw	r2,0(sp)
 10012e4:	000f883a 	mov	r7,zero
 10012e8:	180d883a 	mov	r6,r3
 10012ec:	014040f4 	movhi	r5,259
 10012f0:	29740b04 	addi	r5,r5,-12244
 10012f4:	01004034 	movhi	r4,256
 10012f8:	21047c04 	addi	r4,r4,4592
 10012fc:	1004bf40 	call	1004bf4 <xTaskCreate>
 1001300:	0001883a 	nop
 1001304:	e037883a 	mov	sp,fp
 1001308:	dfc00117 	ldw	ra,4(sp)
 100130c:	df000017 	ldw	fp,0(sp)
 1001310:	dec00204 	addi	sp,sp,8
 1001314:	f800283a 	ret

01001318 <vApplicationStackOverflowHook>:
 1001318:	defffc04 	addi	sp,sp,-16
 100131c:	dfc00315 	stw	ra,12(sp)
 1001320:	df000215 	stw	fp,8(sp)
 1001324:	df000204 	addi	fp,sp,8
 1001328:	e13fff15 	stw	r4,-4(fp)
 100132c:	e17ffe15 	stw	r5,-8(fp)
 1001330:	010040f4 	movhi	r4,259
 1001334:	21340d04 	addi	r4,r4,-12236
 1001338:	1018c340 	call	1018c34 <puts>
 100133c:	0001883a 	nop
 1001340:	e037883a 	mov	sp,fp
 1001344:	dfc00117 	ldw	ra,4(sp)
 1001348:	df000017 	ldw	fp,0(sp)
 100134c:	dec00204 	addi	sp,sp,8
 1001350:	f800283a 	ret

01001354 <main>:
 1001354:	deffdc04 	addi	sp,sp,-144
 1001358:	dfc02315 	stw	ra,140(sp)
 100135c:	df002215 	stw	fp,136(sp)
 1001360:	df002204 	addi	fp,sp,136
 1001364:	10006300 	call	1000630 <eeprom_init>
 1001368:	0081c004 	movi	r2,1792
 100136c:	e0bfff8d 	sth	r2,-2(fp)
 1001370:	e0bfff8b 	ldhu	r2,-2(fp)
 1001374:	1004d23a 	srli	r2,r2,8
 1001378:	108000cc 	andi	r2,r2,3
 100137c:	10801414 	ori	r2,r2,80
 1001380:	e0bfff45 	stb	r2,-3(fp)
 1001384:	0009883a 	mov	r4,zero
 1001388:	1000a100 	call	1000a10 <eeprom_read_32>
 100138c:	d0a34f15 	stw	r2,-29380(gp)
 1001390:	01000404 	movi	r4,16
 1001394:	1000b040 	call	1000b04 <eeprom_read_8>
 1001398:	1007883a 	mov	r3,r2
 100139c:	008040f4 	movhi	r2,259
 10013a0:	10c2e505 	stb	r3,2964(r2)
 10013a4:	01000444 	movi	r4,17
 10013a8:	1000b040 	call	1000b04 <eeprom_read_8>
 10013ac:	1007883a 	mov	r3,r2
 10013b0:	008040f4 	movhi	r2,259
 10013b4:	10c2e545 	stb	r3,2965(r2)
 10013b8:	01000484 	movi	r4,18
 10013bc:	1000b040 	call	1000b04 <eeprom_read_8>
 10013c0:	1007883a 	mov	r3,r2
 10013c4:	008040f4 	movhi	r2,259
 10013c8:	10c2e585 	stb	r3,2966(r2)
 10013cc:	010004c4 	movi	r4,19
 10013d0:	1000b040 	call	1000b04 <eeprom_read_8>
 10013d4:	1007883a 	mov	r3,r2
 10013d8:	008040f4 	movhi	r2,259
 10013dc:	10c2e5c5 	stb	r3,2967(r2)
 10013e0:	10005cc0 	call	10005cc <vRegisterCLICommands>
 10013e4:	d0a00984 	addi	r2,gp,-32730
 10013e8:	d8800015 	stw	r2,0(sp)
 10013ec:	000f883a 	mov	r7,zero
 10013f0:	d1a00884 	addi	r6,gp,-32734
 10013f4:	d1600784 	addi	r5,gp,-32738
 10013f8:	d1200684 	addi	r4,gp,-32742
 10013fc:	1009ac40 	call	1009ac4 <FreeRTOS_IPInit>
 1001400:	100590c0 	call	100590c <vTaskStartScheduler>
 1001404:	0005883a 	mov	r2,zero
 1001408:	e037883a 	mov	sp,fp
 100140c:	dfc00117 	ldw	ra,4(sp)
 1001410:	df000017 	ldw	fp,0(sp)
 1001414:	dec00204 	addi	sp,sp,8
 1001418:	f800283a 	ret

0100141c <vApplicationIPNetworkEventHook>:
 100141c:	defffd04 	addi	sp,sp,-12
 1001420:	dfc00215 	stw	ra,8(sp)
 1001424:	df000115 	stw	fp,4(sp)
 1001428:	df000104 	addi	fp,sp,4
 100142c:	e13fff15 	stw	r4,-4(fp)
 1001430:	010040f4 	movhi	r4,259
 1001434:	21341504 	addi	r4,r4,-12204
 1001438:	1018c340 	call	1018c34 <puts>
 100143c:	01400184 	movi	r5,6
 1001440:	01020004 	movi	r4,2048
 1001444:	10015d80 	call	10015d8 <vStartTelnetServer>
 1001448:	01400204 	movi	r5,8
 100144c:	01030004 	movi	r4,3072
 1001450:	1000ba40 	call	1000ba4 <vStartHTTPServer>
 1001454:	01400144 	movi	r5,5
 1001458:	01010004 	movi	r4,1024
 100145c:	10012b40 	call	10012b4 <vStartTempChecking>
 1001460:	0001883a 	nop
 1001464:	e037883a 	mov	sp,fp
 1001468:	dfc00117 	ldw	ra,4(sp)
 100146c:	df000017 	ldw	fp,0(sp)
 1001470:	dec00204 	addi	sp,sp,8
 1001474:	f800283a 	ret

01001478 <vApplicationMallocFailedHook>:
 1001478:	defffe04 	addi	sp,sp,-8
 100147c:	dfc00115 	stw	ra,4(sp)
 1001480:	df000015 	stw	fp,0(sp)
 1001484:	d839883a 	mov	fp,sp
 1001488:	010040f4 	movhi	r4,259
 100148c:	21341d04 	addi	r4,r4,-12172
 1001490:	1018c340 	call	1018c34 <puts>
 1001494:	1017d140 	call	1017d14 <xPortGetFreeHeapSize>
 1001498:	100b883a 	mov	r5,r2
 100149c:	010040f4 	movhi	r4,259
 10014a0:	21342504 	addi	r4,r4,-12140
 10014a4:	1018b300 	call	1018b30 <printf>
 10014a8:	0001883a 	nop
 10014ac:	e037883a 	mov	sp,fp
 10014b0:	dfc00117 	ldw	ra,4(sp)
 10014b4:	df000017 	ldw	fp,0(sp)
 10014b8:	dec00204 	addi	sp,sp,8
 10014bc:	f800283a 	ret

010014c0 <vLoggingPrintf>:
 10014c0:	defffa04 	addi	sp,sp,-24
 10014c4:	dfc00215 	stw	ra,8(sp)
 10014c8:	df000115 	stw	fp,4(sp)
 10014cc:	df000104 	addi	fp,sp,4
 10014d0:	e13fff15 	stw	r4,-4(fp)
 10014d4:	e1400215 	stw	r5,8(fp)
 10014d8:	e1800315 	stw	r6,12(fp)
 10014dc:	e1c00415 	stw	r7,16(fp)
 10014e0:	e13fff17 	ldw	r4,-4(fp)
 10014e4:	1018b300 	call	1018b30 <printf>
 10014e8:	0001883a 	nop
 10014ec:	e037883a 	mov	sp,fp
 10014f0:	dfc00117 	ldw	ra,4(sp)
 10014f4:	df000017 	ldw	fp,0(sp)
 10014f8:	dec00504 	addi	sp,sp,20
 10014fc:	f800283a 	ret

01001500 <xApplicationGetRandomNumber>:
 1001500:	defffd04 	addi	sp,sp,-12
 1001504:	dfc00215 	stw	ra,8(sp)
 1001508:	df000115 	stw	fp,4(sp)
 100150c:	df000104 	addi	fp,sp,4
 1001510:	e13fff15 	stw	r4,-4(fp)
 1001514:	1018c580 	call	1018c58 <rand>
 1001518:	e037883a 	mov	sp,fp
 100151c:	dfc00117 	ldw	ra,4(sp)
 1001520:	df000017 	ldw	fp,0(sp)
 1001524:	dec00204 	addi	sp,sp,8
 1001528:	f800283a 	ret

0100152c <ulApplicationGetNextSequenceNumber>:
 100152c:	defffb04 	addi	sp,sp,-20
 1001530:	df000415 	stw	fp,16(sp)
 1001534:	df000404 	addi	fp,sp,16
 1001538:	e13fff15 	stw	r4,-4(fp)
 100153c:	2805883a 	mov	r2,r5
 1001540:	e1bffd15 	stw	r6,-12(fp)
 1001544:	3807883a 	mov	r3,r7
 1001548:	e0bffe0d 	sth	r2,-8(fp)
 100154c:	1805883a 	mov	r2,r3
 1001550:	e0bffc0d 	sth	r2,-16(fp)
 1001554:	00b7abb4 	movhi	r2,57006
 1001558:	10aeae84 	addi	r2,r2,-17734
 100155c:	e037883a 	mov	sp,fp
 1001560:	df000017 	ldw	fp,0(sp)
 1001564:	dec00104 	addi	sp,sp,4
 1001568:	f800283a 	ret

0100156c <ulDNSHandlePacket>:
 100156c:	defffe04 	addi	sp,sp,-8
 1001570:	df000115 	stw	fp,4(sp)
 1001574:	df000104 	addi	fp,sp,4
 1001578:	e13fff15 	stw	r4,-4(fp)
 100157c:	0005883a 	mov	r2,zero
 1001580:	e037883a 	mov	sp,fp
 1001584:	df000017 	ldw	fp,0(sp)
 1001588:	dec00104 	addi	sp,sp,4
 100158c:	f800283a 	ret

01001590 <vApplicationGetIdleTaskMemory>:
 1001590:	defffc04 	addi	sp,sp,-16
 1001594:	df000315 	stw	fp,12(sp)
 1001598:	df000304 	addi	fp,sp,12
 100159c:	e13fff15 	stw	r4,-4(fp)
 10015a0:	e17ffe15 	stw	r5,-8(fp)
 10015a4:	e1bffd15 	stw	r6,-12(fp)
 10015a8:	e0ffff17 	ldw	r3,-4(fp)
 10015ac:	008040f4 	movhi	r2,259
 10015b0:	1082ed04 	addi	r2,r2,2996
 10015b4:	18800015 	stw	r2,0(r3)
 10015b8:	e0bffd17 	ldw	r2,-12(fp)
 10015bc:	00c10004 	movi	r3,1024
 10015c0:	10c00015 	stw	r3,0(r2)
 10015c4:	0001883a 	nop
 10015c8:	e037883a 	mov	sp,fp
 10015cc:	df000017 	ldw	fp,0(sp)
 10015d0:	dec00104 	addi	sp,sp,4
 10015d4:	f800283a 	ret

010015d8 <vStartTelnetServer>:
 10015d8:	defffa04 	addi	sp,sp,-24
 10015dc:	dfc00515 	stw	ra,20(sp)
 10015e0:	df000415 	stw	fp,16(sp)
 10015e4:	df000404 	addi	fp,sp,16
 10015e8:	2005883a 	mov	r2,r4
 10015ec:	e17ffe15 	stw	r5,-8(fp)
 10015f0:	e0bfff0d 	sth	r2,-4(fp)
 10015f4:	e0ffff0b 	ldhu	r3,-4(fp)
 10015f8:	e0bffe17 	ldw	r2,-8(fp)
 10015fc:	10800044 	addi	r2,r2,1
 1001600:	d8000115 	stw	zero,4(sp)
 1001604:	d8800015 	stw	r2,0(sp)
 1001608:	000f883a 	mov	r7,zero
 100160c:	180d883a 	mov	r6,r3
 1001610:	014040f4 	movhi	r5,259
 1001614:	29742904 	addi	r5,r5,-12124
 1001618:	01004034 	movhi	r4,256
 100161c:	21059104 	addi	r4,r4,5700
 1001620:	1004bf40 	call	1004bf4 <xTaskCreate>
 1001624:	e0bfff0b 	ldhu	r2,-4(fp)
 1001628:	d0a3508d 	sth	r2,-29374(gp)
 100162c:	0001883a 	nop
 1001630:	e037883a 	mov	sp,fp
 1001634:	dfc00117 	ldw	ra,4(sp)
 1001638:	df000017 	ldw	fp,0(sp)
 100163c:	dec00204 	addi	sp,sp,8
 1001640:	f800283a 	ret

01001644 <prvConnectionListeningTask>:
 1001644:	deffef04 	addi	sp,sp,-68
 1001648:	dfc01015 	stw	ra,64(sp)
 100164c:	df000f15 	stw	fp,60(sp)
 1001650:	df000f04 	addi	fp,sp,60
 1001654:	e13ff215 	stw	r4,-56(fp)
 1001658:	00800204 	movi	r2,8
 100165c:	e0bff315 	stw	r2,-52(fp)
 1001660:	00800504 	movi	r2,20
 1001664:	e0bfff15 	stw	r2,-4(fp)
 1001668:	008040f4 	movhi	r2,259
 100166c:	10b42b04 	addi	r2,r2,-12116
 1001670:	e0bffe15 	stw	r2,-8(fp)
 1001674:	e13ffe17 	ldw	r4,-8(fp)
 1001678:	1018f8c0 	call	1018f8c <strlen>
 100167c:	e0bffd15 	stw	r2,-12(fp)
 1001680:	01800184 	movi	r6,6
 1001684:	01400044 	movi	r5,1
 1001688:	01000084 	movi	r4,2
 100168c:	100c1a00 	call	100c1a0 <FreeRTOS_socket>
 1001690:	e0bffc15 	stw	r2,-16(fp)
 1001694:	00800104 	movi	r2,4
 1001698:	d8800015 	stw	r2,0(sp)
 100169c:	d1e00d04 	addi	r7,gp,-32716
 10016a0:	000d883a 	mov	r6,zero
 10016a4:	000b883a 	mov	r5,zero
 10016a8:	e13ffc17 	ldw	r4,-16(fp)
 10016ac:	100d2a00 	call	100d2a0 <FreeRTOS_setsockopt>
 10016b0:	008005c4 	movi	r2,23
 10016b4:	e0bff48d 	sth	r2,-46(fp)
 10016b8:	e0bff48b 	ldhu	r2,-46(fp)
 10016bc:	10bfffcc 	andi	r2,r2,65535
 10016c0:	1004923a 	slli	r2,r2,8
 10016c4:	1007883a 	mov	r3,r2
 10016c8:	e0bff48b 	ldhu	r2,-46(fp)
 10016cc:	10bfffcc 	andi	r2,r2,65535
 10016d0:	1004d23a 	srli	r2,r2,8
 10016d4:	1884b03a 	or	r2,r3,r2
 10016d8:	e0bff48d 	sth	r2,-46(fp)
 10016dc:	e0bff404 	addi	r2,fp,-48
 10016e0:	01800204 	movi	r6,8
 10016e4:	100b883a 	mov	r5,r2
 10016e8:	e13ffc17 	ldw	r4,-16(fp)
 10016ec:	100cad80 	call	100cad8 <FreeRTOS_bind>
 10016f0:	e17fff17 	ldw	r5,-4(fp)
 10016f4:	e13ffc17 	ldw	r4,-16(fp)
 10016f8:	100edc00 	call	100edc0 <FreeRTOS_listen>
 10016fc:	e0fff304 	addi	r3,fp,-52
 1001700:	e0bff604 	addi	r2,fp,-40
 1001704:	180d883a 	mov	r6,r3
 1001708:	100b883a 	mov	r5,r2
 100170c:	e13ffc17 	ldw	r4,-16(fp)
 1001710:	100e4200 	call	100e420 <FreeRTOS_accept>
 1001714:	e0bffb15 	stw	r2,-20(fp)
 1001718:	e0bffb17 	ldw	r2,-20(fp)
 100171c:	10bfffe0 	cmpeqi	r2,r2,-1
 1001720:	103ff61e 	bne	r2,zero,10016fc <prvConnectionListeningTask+0xb8>
 1001724:	00800104 	movi	r2,4
 1001728:	d8800015 	stw	r2,0(sp)
 100172c:	d1e00d04 	addi	r7,gp,-32716
 1001730:	000d883a 	mov	r6,zero
 1001734:	000b883a 	mov	r5,zero
 1001738:	e13ffb17 	ldw	r4,-20(fp)
 100173c:	100d2a00 	call	100d2a0 <FreeRTOS_setsockopt>
 1001740:	00800104 	movi	r2,4
 1001744:	d8800015 	stw	r2,0(sp)
 1001748:	d1e00c04 	addi	r7,gp,-32720
 100174c:	01800044 	movi	r6,1
 1001750:	000b883a 	mov	r5,zero
 1001754:	e13ffb17 	ldw	r4,-20(fp)
 1001758:	100d2a00 	call	100d2a0 <FreeRTOS_setsockopt>
 100175c:	e13ffe17 	ldw	r4,-8(fp)
 1001760:	1018f8c0 	call	1018f8c <strlen>
 1001764:	000f883a 	mov	r7,zero
 1001768:	100d883a 	mov	r6,r2
 100176c:	e17ffe17 	ldw	r5,-8(fp)
 1001770:	e13ffb17 	ldw	r4,-20(fp)
 1001774:	100eb100 	call	100eb10 <FreeRTOS_send>
 1001778:	e0bffd15 	stw	r2,-12(fp)
 100177c:	e13ffe17 	ldw	r4,-8(fp)
 1001780:	1018f8c0 	call	1018f8c <strlen>
 1001784:	1007883a 	mov	r3,r2
 1001788:	e0bffd17 	ldw	r2,-12(fp)
 100178c:	1880481e 	bne	r3,r2,10018b0 <prvConnectionListeningTask+0x26c>
 1001790:	01816d04 	movi	r6,1460
 1001794:	000b883a 	mov	r5,zero
 1001798:	010041b4 	movhi	r4,262
 100179c:	2110ce44 	addi	r4,r4,17209
 10017a0:	1018a100 	call	1018a10 <memset>
 10017a4:	000f883a 	mov	r7,zero
 10017a8:	01816d04 	movi	r6,1460
 10017ac:	014041b4 	movhi	r5,262
 10017b0:	2950ce44 	addi	r5,r5,17209
 10017b4:	e13ffb17 	ldw	r4,-20(fp)
 10017b8:	100e6940 	call	100e694 <FreeRTOS_recv>
 10017bc:	e0bffa15 	stw	r2,-24(fp)
 10017c0:	e0bffa17 	ldw	r2,-24(fp)
 10017c4:	10003516 	blt	r2,zero,100189c <prvConnectionListeningTask+0x258>
 10017c8:	008041b4 	movhi	r2,262
 10017cc:	1090ce43 	ldbu	r2,17209(r2)
 10017d0:	10803fcc 	andi	r2,r2,255
 10017d4:	1080201c 	xori	r2,r2,128
 10017d8:	10bfe004 	addi	r2,r2,-128
 10017dc:	10bfffd8 	cmpnei	r2,r2,-1
 10017e0:	1000041e 	bne	r2,zero,10017f4 <prvConnectionListeningTask+0x1b0>
 10017e4:	010040f4 	movhi	r4,259
 10017e8:	21345104 	addi	r4,r4,-11964
 10017ec:	1018c340 	call	1018c34 <puts>
 10017f0:	003fe706 	br	1001790 <prvConnectionListeningTask+0x14c>
 10017f4:	e0bffa17 	ldw	r2,-24(fp)
 10017f8:	10ffff84 	addi	r3,r2,-2
 10017fc:	008041b4 	movhi	r2,262
 1001800:	1885883a 	add	r2,r3,r2
 1001804:	1010ce45 	stb	zero,17209(r2)
 1001808:	01816d04 	movi	r6,1460
 100180c:	014041b4 	movhi	r5,262
 1001810:	29523b44 	addi	r5,r5,18669
 1001814:	010041b4 	movhi	r4,262
 1001818:	2110ce44 	addi	r4,r4,17209
 100181c:	1007da00 	call	1007da0 <FreeRTOS_CLIProcessCommand>
 1001820:	e0bff915 	stw	r2,-28(fp)
 1001824:	010041b4 	movhi	r4,262
 1001828:	21123b44 	addi	r4,r4,18669
 100182c:	1018f8c0 	call	1018f8c <strlen>
 1001830:	000f883a 	mov	r7,zero
 1001834:	100d883a 	mov	r6,r2
 1001838:	014041b4 	movhi	r5,262
 100183c:	29523b44 	addi	r5,r5,18669
 1001840:	e13ffb17 	ldw	r4,-20(fp)
 1001844:	100eb100 	call	100eb10 <FreeRTOS_send>
 1001848:	e0bffd15 	stw	r2,-12(fp)
 100184c:	e0bff917 	ldw	r2,-28(fp)
 1001850:	103fed1e 	bne	r2,zero,1001808 <prvConnectionListeningTask+0x1c4>
 1001854:	d0a35003 	ldbu	r2,-29376(gp)
 1001858:	10803fcc 	andi	r2,r2,255
 100185c:	10800058 	cmpnei	r2,r2,1
 1001860:	1000021e 	bne	r2,zero,100186c <prvConnectionListeningTask+0x228>
 1001864:	d0235005 	stb	zero,-29376(gp)
 1001868:	00001106 	br	10018b0 <prvConnectionListeningTask+0x26c>
 100186c:	e0bffd17 	ldw	r2,-12(fp)
 1001870:	10000c16 	blt	r2,zero,10018a4 <prvConnectionListeningTask+0x260>
 1001874:	000f883a 	mov	r7,zero
 1001878:	018000c4 	movi	r6,3
 100187c:	014040f4 	movhi	r5,259
 1001880:	29745404 	addi	r5,r5,-11952
 1001884:	e13ffb17 	ldw	r4,-20(fp)
 1001888:	100eb100 	call	100eb10 <FreeRTOS_send>
 100188c:	e0bffd15 	stw	r2,-12(fp)
 1001890:	e0bffd17 	ldw	r2,-12(fp)
 1001894:	10000516 	blt	r2,zero,10018ac <prvConnectionListeningTask+0x268>
 1001898:	003fbd06 	br	1001790 <prvConnectionListeningTask+0x14c>
 100189c:	0001883a 	nop
 10018a0:	00000306 	br	10018b0 <prvConnectionListeningTask+0x26c>
 10018a4:	0001883a 	nop
 10018a8:	00000106 	br	10018b0 <prvConnectionListeningTask+0x26c>
 10018ac:	0001883a 	nop
 10018b0:	01400084 	movi	r5,2
 10018b4:	e13ffb17 	ldw	r4,-20(fp)
 10018b8:	100ef100 	call	100ef10 <FreeRTOS_shutdown>
 10018bc:	1005b700 	call	1005b70 <xTaskGetTickCount>
 10018c0:	e0bff815 	stw	r2,-32(fp)
 10018c4:	000f883a 	mov	r7,zero
 10018c8:	01816d04 	movi	r6,1460
 10018cc:	014041b4 	movhi	r5,262
 10018d0:	2950ce44 	addi	r5,r5,17209
 10018d4:	e13ffb17 	ldw	r4,-20(fp)
 10018d8:	100e6940 	call	100e694 <FreeRTOS_recv>
 10018dc:	10000716 	blt	r2,zero,10018fc <prvConnectionListeningTask+0x2b8>
 10018e0:	1005b700 	call	1005b70 <xTaskGetTickCount>
 10018e4:	1007883a 	mov	r3,r2
 10018e8:	e0bff817 	ldw	r2,-32(fp)
 10018ec:	1885c83a 	sub	r2,r3,r2
 10018f0:	1084e230 	cmpltui	r2,r2,5000
 10018f4:	103ff31e 	bne	r2,zero,10018c4 <prvConnectionListeningTask+0x280>
 10018f8:	00000106 	br	1001900 <prvConnectionListeningTask+0x2bc>
 10018fc:	0001883a 	nop
 1001900:	e13ffb17 	ldw	r4,-20(fp)
 1001904:	100ce080 	call	100ce08 <FreeRTOS_closesocket>
 1001908:	003f7c06 	br	10016fc <prvConnectionListeningTask+0xb8>

0100190c <xEventGroupCreate>:
 100190c:	defffd04 	addi	sp,sp,-12
 1001910:	dfc00215 	stw	ra,8(sp)
 1001914:	df000115 	stw	fp,4(sp)
 1001918:	df000104 	addi	fp,sp,4
 100191c:	01000704 	movi	r4,28
 1001920:	1017a480 	call	1017a48 <pvPortMalloc>
 1001924:	e0bfff15 	stw	r2,-4(fp)
 1001928:	e0bfff17 	ldw	r2,-4(fp)
 100192c:	10000626 	beq	r2,zero,1001948 <xEventGroupCreate+0x3c>
 1001930:	e0bfff17 	ldw	r2,-4(fp)
 1001934:	10000015 	stw	zero,0(r2)
 1001938:	e0bfff17 	ldw	r2,-4(fp)
 100193c:	10800104 	addi	r2,r2,4
 1001940:	1009883a 	mov	r4,r2
 1001944:	10020880 	call	1002088 <vListInitialise>
 1001948:	e0bfff17 	ldw	r2,-4(fp)
 100194c:	e037883a 	mov	sp,fp
 1001950:	dfc00117 	ldw	ra,4(sp)
 1001954:	df000017 	ldw	fp,0(sp)
 1001958:	dec00204 	addi	sp,sp,8
 100195c:	f800283a 	ret

01001960 <xEventGroupSync>:
 1001960:	defff504 	addi	sp,sp,-44
 1001964:	dfc00a15 	stw	ra,40(sp)
 1001968:	df000915 	stw	fp,36(sp)
 100196c:	df000904 	addi	fp,sp,36
 1001970:	e13ffa15 	stw	r4,-24(fp)
 1001974:	e17ff915 	stw	r5,-28(fp)
 1001978:	e1bff815 	stw	r6,-32(fp)
 100197c:	e1fff715 	stw	r7,-36(fp)
 1001980:	e0bffa17 	ldw	r2,-24(fp)
 1001984:	e0bffe15 	stw	r2,-8(fp)
 1001988:	e03ffd15 	stw	zero,-12(fp)
 100198c:	10059e80 	call	10059e8 <vTaskSuspendAll>
 1001990:	e0bffe17 	ldw	r2,-8(fp)
 1001994:	10800017 	ldw	r2,0(r2)
 1001998:	e0bffc15 	stw	r2,-16(fp)
 100199c:	e17ff917 	ldw	r5,-28(fp)
 10019a0:	e13ffa17 	ldw	r4,-24(fp)
 10019a4:	1001d300 	call	1001d30 <xEventGroupSetBits>
 10019a8:	e0fffc17 	ldw	r3,-16(fp)
 10019ac:	e0bff917 	ldw	r2,-28(fp)
 10019b0:	1886b03a 	or	r3,r3,r2
 10019b4:	e0bff817 	ldw	r2,-32(fp)
 10019b8:	1884703a 	and	r2,r3,r2
 10019bc:	e0fff817 	ldw	r3,-32(fp)
 10019c0:	18800d1e 	bne	r3,r2,10019f8 <xEventGroupSync+0x98>
 10019c4:	e0fffc17 	ldw	r3,-16(fp)
 10019c8:	e0bff917 	ldw	r2,-28(fp)
 10019cc:	1884b03a 	or	r2,r3,r2
 10019d0:	e0bfff15 	stw	r2,-4(fp)
 10019d4:	e0bffe17 	ldw	r2,-8(fp)
 10019d8:	10c00017 	ldw	r3,0(r2)
 10019dc:	e0bff817 	ldw	r2,-32(fp)
 10019e0:	0084303a 	nor	r2,zero,r2
 10019e4:	1886703a 	and	r3,r3,r2
 10019e8:	e0bffe17 	ldw	r2,-8(fp)
 10019ec:	10c00015 	stw	r3,0(r2)
 10019f0:	e03ff715 	stw	zero,-36(fp)
 10019f4:	00001106 	br	1001a3c <xEventGroupSync+0xdc>
 10019f8:	e0bff717 	ldw	r2,-36(fp)
 10019fc:	10000a26 	beq	r2,zero,1001a28 <xEventGroupSync+0xc8>
 1001a00:	e0bffe17 	ldw	r2,-8(fp)
 1001a04:	10c00104 	addi	r3,r2,4
 1001a08:	e0bff817 	ldw	r2,-32(fp)
 1001a0c:	10814034 	orhi	r2,r2,1280
 1001a10:	e1bff717 	ldw	r6,-36(fp)
 1001a14:	100b883a 	mov	r5,r2
 1001a18:	1809883a 	mov	r4,r3
 1001a1c:	10061600 	call	1006160 <vTaskPlaceOnUnorderedEventList>
 1001a20:	e03fff15 	stw	zero,-4(fp)
 1001a24:	00000506 	br	1001a3c <xEventGroupSync+0xdc>
 1001a28:	e0bffe17 	ldw	r2,-8(fp)
 1001a2c:	10800017 	ldw	r2,0(r2)
 1001a30:	e0bfff15 	stw	r2,-4(fp)
 1001a34:	00800044 	movi	r2,1
 1001a38:	e0bffd15 	stw	r2,-12(fp)
 1001a3c:	1005a140 	call	1005a14 <xTaskResumeAll>
 1001a40:	e0bffb15 	stw	r2,-20(fp)
 1001a44:	e0bff717 	ldw	r2,-36(fp)
 1001a48:	10002026 	beq	r2,zero,1001acc <xEventGroupSync+0x16c>
 1001a4c:	e0bffb17 	ldw	r2,-20(fp)
 1001a50:	1000011e 	bne	r2,zero,1001a58 <xEventGroupSync+0xf8>
 1001a54:	003b683a 	trap	0
 1001a58:	10072200 	call	1007220 <uxTaskResetEventItemValue>
 1001a5c:	e0bfff15 	stw	r2,-4(fp)
 1001a60:	e0bfff17 	ldw	r2,-4(fp)
 1001a64:	1080802c 	andhi	r2,r2,512
 1001a68:	1000131e 	bne	r2,zero,1001ab8 <xEventGroupSync+0x158>
 1001a6c:	1006ed80 	call	1006ed8 <vTaskEnterCritical>
 1001a70:	e0bffe17 	ldw	r2,-8(fp)
 1001a74:	10800017 	ldw	r2,0(r2)
 1001a78:	e0bfff15 	stw	r2,-4(fp)
 1001a7c:	e0ffff17 	ldw	r3,-4(fp)
 1001a80:	e0bff817 	ldw	r2,-32(fp)
 1001a84:	1884703a 	and	r2,r3,r2
 1001a88:	e0fff817 	ldw	r3,-32(fp)
 1001a8c:	1880071e 	bne	r3,r2,1001aac <xEventGroupSync+0x14c>
 1001a90:	e0bffe17 	ldw	r2,-8(fp)
 1001a94:	10c00017 	ldw	r3,0(r2)
 1001a98:	e0bff817 	ldw	r2,-32(fp)
 1001a9c:	0084303a 	nor	r2,zero,r2
 1001aa0:	1886703a 	and	r3,r3,r2
 1001aa4:	e0bffe17 	ldw	r2,-8(fp)
 1001aa8:	10c00015 	stw	r3,0(r2)
 1001aac:	1006f2c0 	call	1006f2c <vTaskExitCritical>
 1001ab0:	00800044 	movi	r2,1
 1001ab4:	e0bffd15 	stw	r2,-12(fp)
 1001ab8:	e0ffff17 	ldw	r3,-4(fp)
 1001abc:	00804034 	movhi	r2,256
 1001ac0:	10bfffc4 	addi	r2,r2,-1
 1001ac4:	1884703a 	and	r2,r3,r2
 1001ac8:	e0bfff15 	stw	r2,-4(fp)
 1001acc:	e0bfff17 	ldw	r2,-4(fp)
 1001ad0:	e037883a 	mov	sp,fp
 1001ad4:	dfc00117 	ldw	ra,4(sp)
 1001ad8:	df000017 	ldw	fp,0(sp)
 1001adc:	dec00204 	addi	sp,sp,8
 1001ae0:	f800283a 	ret

01001ae4 <xEventGroupWaitBits>:
 1001ae4:	defff304 	addi	sp,sp,-52
 1001ae8:	dfc00c15 	stw	ra,48(sp)
 1001aec:	df000b15 	stw	fp,44(sp)
 1001af0:	df000b04 	addi	fp,sp,44
 1001af4:	e13ff815 	stw	r4,-32(fp)
 1001af8:	e17ff715 	stw	r5,-36(fp)
 1001afc:	e1bff615 	stw	r6,-40(fp)
 1001b00:	e1fff515 	stw	r7,-44(fp)
 1001b04:	e0bff817 	ldw	r2,-32(fp)
 1001b08:	e0bffd15 	stw	r2,-12(fp)
 1001b0c:	e03ffe15 	stw	zero,-8(fp)
 1001b10:	e03ffc15 	stw	zero,-16(fp)
 1001b14:	10059e80 	call	10059e8 <vTaskSuspendAll>
 1001b18:	e0bffd17 	ldw	r2,-12(fp)
 1001b1c:	10800017 	ldw	r2,0(r2)
 1001b20:	e0bffb15 	stw	r2,-20(fp)
 1001b24:	e1bff517 	ldw	r6,-44(fp)
 1001b28:	e17ff717 	ldw	r5,-36(fp)
 1001b2c:	e13ffb17 	ldw	r4,-20(fp)
 1001b30:	1001f9c0 	call	1001f9c <prvTestWaitCondition>
 1001b34:	e0bffa15 	stw	r2,-24(fp)
 1001b38:	e0bffa17 	ldw	r2,-24(fp)
 1001b3c:	10000d26 	beq	r2,zero,1001b74 <xEventGroupWaitBits+0x90>
 1001b40:	e0bffb17 	ldw	r2,-20(fp)
 1001b44:	e0bfff15 	stw	r2,-4(fp)
 1001b48:	e0000215 	stw	zero,8(fp)
 1001b4c:	e0bff617 	ldw	r2,-40(fp)
 1001b50:	10002226 	beq	r2,zero,1001bdc <xEventGroupWaitBits+0xf8>
 1001b54:	e0bffd17 	ldw	r2,-12(fp)
 1001b58:	10c00017 	ldw	r3,0(r2)
 1001b5c:	e0bff717 	ldw	r2,-36(fp)
 1001b60:	0084303a 	nor	r2,zero,r2
 1001b64:	1886703a 	and	r3,r3,r2
 1001b68:	e0bffd17 	ldw	r2,-12(fp)
 1001b6c:	10c00015 	stw	r3,0(r2)
 1001b70:	00001a06 	br	1001bdc <xEventGroupWaitBits+0xf8>
 1001b74:	e0800217 	ldw	r2,8(fp)
 1001b78:	1000051e 	bne	r2,zero,1001b90 <xEventGroupWaitBits+0xac>
 1001b7c:	e0bffb17 	ldw	r2,-20(fp)
 1001b80:	e0bfff15 	stw	r2,-4(fp)
 1001b84:	00800044 	movi	r2,1
 1001b88:	e0bffc15 	stw	r2,-16(fp)
 1001b8c:	00001306 	br	1001bdc <xEventGroupWaitBits+0xf8>
 1001b90:	e0bff617 	ldw	r2,-40(fp)
 1001b94:	10000326 	beq	r2,zero,1001ba4 <xEventGroupWaitBits+0xc0>
 1001b98:	e0bffe17 	ldw	r2,-8(fp)
 1001b9c:	10804034 	orhi	r2,r2,256
 1001ba0:	e0bffe15 	stw	r2,-8(fp)
 1001ba4:	e0bff517 	ldw	r2,-44(fp)
 1001ba8:	10000326 	beq	r2,zero,1001bb8 <xEventGroupWaitBits+0xd4>
 1001bac:	e0bffe17 	ldw	r2,-8(fp)
 1001bb0:	10810034 	orhi	r2,r2,1024
 1001bb4:	e0bffe15 	stw	r2,-8(fp)
 1001bb8:	e0bffd17 	ldw	r2,-12(fp)
 1001bbc:	11000104 	addi	r4,r2,4
 1001bc0:	e0fff717 	ldw	r3,-36(fp)
 1001bc4:	e0bffe17 	ldw	r2,-8(fp)
 1001bc8:	1884b03a 	or	r2,r3,r2
 1001bcc:	e1800217 	ldw	r6,8(fp)
 1001bd0:	100b883a 	mov	r5,r2
 1001bd4:	10061600 	call	1006160 <vTaskPlaceOnUnorderedEventList>
 1001bd8:	e03fff15 	stw	zero,-4(fp)
 1001bdc:	1005a140 	call	1005a14 <xTaskResumeAll>
 1001be0:	e0bff915 	stw	r2,-28(fp)
 1001be4:	e0800217 	ldw	r2,8(fp)
 1001be8:	10002226 	beq	r2,zero,1001c74 <xEventGroupWaitBits+0x190>
 1001bec:	e0bff917 	ldw	r2,-28(fp)
 1001bf0:	1000011e 	bne	r2,zero,1001bf8 <xEventGroupWaitBits+0x114>
 1001bf4:	003b683a 	trap	0
 1001bf8:	10072200 	call	1007220 <uxTaskResetEventItemValue>
 1001bfc:	e0bfff15 	stw	r2,-4(fp)
 1001c00:	e0bfff17 	ldw	r2,-4(fp)
 1001c04:	1080802c 	andhi	r2,r2,512
 1001c08:	1000151e 	bne	r2,zero,1001c60 <xEventGroupWaitBits+0x17c>
 1001c0c:	1006ed80 	call	1006ed8 <vTaskEnterCritical>
 1001c10:	e0bffd17 	ldw	r2,-12(fp)
 1001c14:	10800017 	ldw	r2,0(r2)
 1001c18:	e0bfff15 	stw	r2,-4(fp)
 1001c1c:	e1bff517 	ldw	r6,-44(fp)
 1001c20:	e17ff717 	ldw	r5,-36(fp)
 1001c24:	e13fff17 	ldw	r4,-4(fp)
 1001c28:	1001f9c0 	call	1001f9c <prvTestWaitCondition>
 1001c2c:	10000926 	beq	r2,zero,1001c54 <xEventGroupWaitBits+0x170>
 1001c30:	e0bff617 	ldw	r2,-40(fp)
 1001c34:	10000726 	beq	r2,zero,1001c54 <xEventGroupWaitBits+0x170>
 1001c38:	e0bffd17 	ldw	r2,-12(fp)
 1001c3c:	10c00017 	ldw	r3,0(r2)
 1001c40:	e0bff717 	ldw	r2,-36(fp)
 1001c44:	0084303a 	nor	r2,zero,r2
 1001c48:	1886703a 	and	r3,r3,r2
 1001c4c:	e0bffd17 	ldw	r2,-12(fp)
 1001c50:	10c00015 	stw	r3,0(r2)
 1001c54:	00800044 	movi	r2,1
 1001c58:	e0bffc15 	stw	r2,-16(fp)
 1001c5c:	1006f2c0 	call	1006f2c <vTaskExitCritical>
 1001c60:	e0ffff17 	ldw	r3,-4(fp)
 1001c64:	00804034 	movhi	r2,256
 1001c68:	10bfffc4 	addi	r2,r2,-1
 1001c6c:	1884703a 	and	r2,r3,r2
 1001c70:	e0bfff15 	stw	r2,-4(fp)
 1001c74:	e0bfff17 	ldw	r2,-4(fp)
 1001c78:	e037883a 	mov	sp,fp
 1001c7c:	dfc00117 	ldw	ra,4(sp)
 1001c80:	df000017 	ldw	fp,0(sp)
 1001c84:	dec00204 	addi	sp,sp,8
 1001c88:	f800283a 	ret

01001c8c <xEventGroupClearBits>:
 1001c8c:	defffa04 	addi	sp,sp,-24
 1001c90:	dfc00515 	stw	ra,20(sp)
 1001c94:	df000415 	stw	fp,16(sp)
 1001c98:	df000404 	addi	fp,sp,16
 1001c9c:	e13ffd15 	stw	r4,-12(fp)
 1001ca0:	e17ffc15 	stw	r5,-16(fp)
 1001ca4:	e0bffd17 	ldw	r2,-12(fp)
 1001ca8:	e0bfff15 	stw	r2,-4(fp)
 1001cac:	1006ed80 	call	1006ed8 <vTaskEnterCritical>
 1001cb0:	e0bfff17 	ldw	r2,-4(fp)
 1001cb4:	10800017 	ldw	r2,0(r2)
 1001cb8:	e0bffe15 	stw	r2,-8(fp)
 1001cbc:	e0bfff17 	ldw	r2,-4(fp)
 1001cc0:	10c00017 	ldw	r3,0(r2)
 1001cc4:	e0bffc17 	ldw	r2,-16(fp)
 1001cc8:	0084303a 	nor	r2,zero,r2
 1001ccc:	1886703a 	and	r3,r3,r2
 1001cd0:	e0bfff17 	ldw	r2,-4(fp)
 1001cd4:	10c00015 	stw	r3,0(r2)
 1001cd8:	1006f2c0 	call	1006f2c <vTaskExitCritical>
 1001cdc:	e0bffe17 	ldw	r2,-8(fp)
 1001ce0:	e037883a 	mov	sp,fp
 1001ce4:	dfc00117 	ldw	ra,4(sp)
 1001ce8:	df000017 	ldw	fp,0(sp)
 1001cec:	dec00204 	addi	sp,sp,8
 1001cf0:	f800283a 	ret

01001cf4 <xEventGroupGetBitsFromISR>:
 1001cf4:	defffb04 	addi	sp,sp,-20
 1001cf8:	df000415 	stw	fp,16(sp)
 1001cfc:	df000404 	addi	fp,sp,16
 1001d00:	e13ffc15 	stw	r4,-16(fp)
 1001d04:	e0bffc17 	ldw	r2,-16(fp)
 1001d08:	e0bfff15 	stw	r2,-4(fp)
 1001d0c:	e03ffe15 	stw	zero,-8(fp)
 1001d10:	e0bfff17 	ldw	r2,-4(fp)
 1001d14:	10800017 	ldw	r2,0(r2)
 1001d18:	e0bffd15 	stw	r2,-12(fp)
 1001d1c:	e0bffd17 	ldw	r2,-12(fp)
 1001d20:	e037883a 	mov	sp,fp
 1001d24:	df000017 	ldw	fp,0(sp)
 1001d28:	dec00104 	addi	sp,sp,4
 1001d2c:	f800283a 	ret

01001d30 <xEventGroupSetBits>:
 1001d30:	defff304 	addi	sp,sp,-52
 1001d34:	dfc00c15 	stw	ra,48(sp)
 1001d38:	df000b15 	stw	fp,44(sp)
 1001d3c:	df000b04 	addi	fp,sp,44
 1001d40:	e13ff615 	stw	r4,-40(fp)
 1001d44:	e17ff515 	stw	r5,-44(fp)
 1001d48:	e03ffe15 	stw	zero,-8(fp)
 1001d4c:	e0bff617 	ldw	r2,-40(fp)
 1001d50:	e0bffc15 	stw	r2,-16(fp)
 1001d54:	e03ffd15 	stw	zero,-12(fp)
 1001d58:	e0bffc17 	ldw	r2,-16(fp)
 1001d5c:	10800104 	addi	r2,r2,4
 1001d60:	e0bffb15 	stw	r2,-20(fp)
 1001d64:	e0bffb17 	ldw	r2,-20(fp)
 1001d68:	10800204 	addi	r2,r2,8
 1001d6c:	e0bffa15 	stw	r2,-24(fp)
 1001d70:	10059e80 	call	10059e8 <vTaskSuspendAll>
 1001d74:	e0bffb17 	ldw	r2,-20(fp)
 1001d78:	10800317 	ldw	r2,12(r2)
 1001d7c:	e0bfff15 	stw	r2,-4(fp)
 1001d80:	e0bffc17 	ldw	r2,-16(fp)
 1001d84:	10c00017 	ldw	r3,0(r2)
 1001d88:	e0bff517 	ldw	r2,-44(fp)
 1001d8c:	1886b03a 	or	r3,r3,r2
 1001d90:	e0bffc17 	ldw	r2,-16(fp)
 1001d94:	10c00015 	stw	r3,0(r2)
 1001d98:	00003306 	br	1001e68 <xEventGroupSetBits+0x138>
 1001d9c:	e0bfff17 	ldw	r2,-4(fp)
 1001da0:	10800117 	ldw	r2,4(r2)
 1001da4:	e0bff915 	stw	r2,-28(fp)
 1001da8:	e0bfff17 	ldw	r2,-4(fp)
 1001dac:	10800017 	ldw	r2,0(r2)
 1001db0:	e0bff815 	stw	r2,-32(fp)
 1001db4:	e03ffd15 	stw	zero,-12(fp)
 1001db8:	e0bff817 	ldw	r2,-32(fp)
 1001dbc:	10bfc02c 	andhi	r2,r2,65280
 1001dc0:	e0bff715 	stw	r2,-36(fp)
 1001dc4:	e0fff817 	ldw	r3,-32(fp)
 1001dc8:	00804034 	movhi	r2,256
 1001dcc:	10bfffc4 	addi	r2,r2,-1
 1001dd0:	1884703a 	and	r2,r3,r2
 1001dd4:	e0bff815 	stw	r2,-32(fp)
 1001dd8:	e0bff717 	ldw	r2,-36(fp)
 1001ddc:	1081002c 	andhi	r2,r2,1024
 1001de0:	1000081e 	bne	r2,zero,1001e04 <xEventGroupSetBits+0xd4>
 1001de4:	e0bffc17 	ldw	r2,-16(fp)
 1001de8:	10c00017 	ldw	r3,0(r2)
 1001dec:	e0bff817 	ldw	r2,-32(fp)
 1001df0:	1884703a 	and	r2,r3,r2
 1001df4:	10000b26 	beq	r2,zero,1001e24 <xEventGroupSetBits+0xf4>
 1001df8:	00800044 	movi	r2,1
 1001dfc:	e0bffd15 	stw	r2,-12(fp)
 1001e00:	00000806 	br	1001e24 <xEventGroupSetBits+0xf4>
 1001e04:	e0bffc17 	ldw	r2,-16(fp)
 1001e08:	10c00017 	ldw	r3,0(r2)
 1001e0c:	e0bff817 	ldw	r2,-32(fp)
 1001e10:	1884703a 	and	r2,r3,r2
 1001e14:	e0fff817 	ldw	r3,-32(fp)
 1001e18:	1880021e 	bne	r3,r2,1001e24 <xEventGroupSetBits+0xf4>
 1001e1c:	00800044 	movi	r2,1
 1001e20:	e0bffd15 	stw	r2,-12(fp)
 1001e24:	e0bffd17 	ldw	r2,-12(fp)
 1001e28:	10000d26 	beq	r2,zero,1001e60 <xEventGroupSetBits+0x130>
 1001e2c:	e0bff717 	ldw	r2,-36(fp)
 1001e30:	1080402c 	andhi	r2,r2,256
 1001e34:	10000426 	beq	r2,zero,1001e48 <xEventGroupSetBits+0x118>
 1001e38:	e0fffe17 	ldw	r3,-8(fp)
 1001e3c:	e0bff817 	ldw	r2,-32(fp)
 1001e40:	1884b03a 	or	r2,r3,r2
 1001e44:	e0bffe15 	stw	r2,-8(fp)
 1001e48:	e0bffc17 	ldw	r2,-16(fp)
 1001e4c:	10800017 	ldw	r2,0(r2)
 1001e50:	10808034 	orhi	r2,r2,512
 1001e54:	100b883a 	mov	r5,r2
 1001e58:	e13fff17 	ldw	r4,-4(fp)
 1001e5c:	10062c40 	call	10062c4 <vTaskRemoveFromUnorderedEventList>
 1001e60:	e0bff917 	ldw	r2,-28(fp)
 1001e64:	e0bfff15 	stw	r2,-4(fp)
 1001e68:	e0ffff17 	ldw	r3,-4(fp)
 1001e6c:	e0bffa17 	ldw	r2,-24(fp)
 1001e70:	18bfca1e 	bne	r3,r2,1001d9c <xEventGroupSetBits+0x6c>
 1001e74:	e0bffc17 	ldw	r2,-16(fp)
 1001e78:	10c00017 	ldw	r3,0(r2)
 1001e7c:	e0bffe17 	ldw	r2,-8(fp)
 1001e80:	0084303a 	nor	r2,zero,r2
 1001e84:	1886703a 	and	r3,r3,r2
 1001e88:	e0bffc17 	ldw	r2,-16(fp)
 1001e8c:	10c00015 	stw	r3,0(r2)
 1001e90:	1005a140 	call	1005a14 <xTaskResumeAll>
 1001e94:	e0bffc17 	ldw	r2,-16(fp)
 1001e98:	10800017 	ldw	r2,0(r2)
 1001e9c:	e037883a 	mov	sp,fp
 1001ea0:	dfc00117 	ldw	ra,4(sp)
 1001ea4:	df000017 	ldw	fp,0(sp)
 1001ea8:	dec00204 	addi	sp,sp,8
 1001eac:	f800283a 	ret

01001eb0 <vEventGroupDelete>:
 1001eb0:	defffb04 	addi	sp,sp,-20
 1001eb4:	dfc00415 	stw	ra,16(sp)
 1001eb8:	df000315 	stw	fp,12(sp)
 1001ebc:	df000304 	addi	fp,sp,12
 1001ec0:	e13ffd15 	stw	r4,-12(fp)
 1001ec4:	e0bffd17 	ldw	r2,-12(fp)
 1001ec8:	e0bfff15 	stw	r2,-4(fp)
 1001ecc:	e0bfff17 	ldw	r2,-4(fp)
 1001ed0:	10800104 	addi	r2,r2,4
 1001ed4:	e0bffe15 	stw	r2,-8(fp)
 1001ed8:	10059e80 	call	10059e8 <vTaskSuspendAll>
 1001edc:	00000506 	br	1001ef4 <vEventGroupDelete+0x44>
 1001ee0:	e0bffe17 	ldw	r2,-8(fp)
 1001ee4:	10800317 	ldw	r2,12(r2)
 1001ee8:	01408034 	movhi	r5,512
 1001eec:	1009883a 	mov	r4,r2
 1001ef0:	10062c40 	call	10062c4 <vTaskRemoveFromUnorderedEventList>
 1001ef4:	e0bffe17 	ldw	r2,-8(fp)
 1001ef8:	10800017 	ldw	r2,0(r2)
 1001efc:	103ff81e 	bne	r2,zero,1001ee0 <vEventGroupDelete+0x30>
 1001f00:	e13fff17 	ldw	r4,-4(fp)
 1001f04:	1017c500 	call	1017c50 <vPortFree>
 1001f08:	1005a140 	call	1005a14 <xTaskResumeAll>
 1001f0c:	0001883a 	nop
 1001f10:	e037883a 	mov	sp,fp
 1001f14:	dfc00117 	ldw	ra,4(sp)
 1001f18:	df000017 	ldw	fp,0(sp)
 1001f1c:	dec00204 	addi	sp,sp,8
 1001f20:	f800283a 	ret

01001f24 <vEventGroupSetBitsCallback>:
 1001f24:	defffc04 	addi	sp,sp,-16
 1001f28:	dfc00315 	stw	ra,12(sp)
 1001f2c:	df000215 	stw	fp,8(sp)
 1001f30:	df000204 	addi	fp,sp,8
 1001f34:	e13fff15 	stw	r4,-4(fp)
 1001f38:	e17ffe15 	stw	r5,-8(fp)
 1001f3c:	e17ffe17 	ldw	r5,-8(fp)
 1001f40:	e13fff17 	ldw	r4,-4(fp)
 1001f44:	1001d300 	call	1001d30 <xEventGroupSetBits>
 1001f48:	0001883a 	nop
 1001f4c:	e037883a 	mov	sp,fp
 1001f50:	dfc00117 	ldw	ra,4(sp)
 1001f54:	df000017 	ldw	fp,0(sp)
 1001f58:	dec00204 	addi	sp,sp,8
 1001f5c:	f800283a 	ret

01001f60 <vEventGroupClearBitsCallback>:
 1001f60:	defffc04 	addi	sp,sp,-16
 1001f64:	dfc00315 	stw	ra,12(sp)
 1001f68:	df000215 	stw	fp,8(sp)
 1001f6c:	df000204 	addi	fp,sp,8
 1001f70:	e13fff15 	stw	r4,-4(fp)
 1001f74:	e17ffe15 	stw	r5,-8(fp)
 1001f78:	e17ffe17 	ldw	r5,-8(fp)
 1001f7c:	e13fff17 	ldw	r4,-4(fp)
 1001f80:	1001c8c0 	call	1001c8c <xEventGroupClearBits>
 1001f84:	0001883a 	nop
 1001f88:	e037883a 	mov	sp,fp
 1001f8c:	dfc00117 	ldw	ra,4(sp)
 1001f90:	df000017 	ldw	fp,0(sp)
 1001f94:	dec00204 	addi	sp,sp,8
 1001f98:	f800283a 	ret

01001f9c <prvTestWaitCondition>:
 1001f9c:	defffb04 	addi	sp,sp,-20
 1001fa0:	df000415 	stw	fp,16(sp)
 1001fa4:	df000404 	addi	fp,sp,16
 1001fa8:	e13ffe15 	stw	r4,-8(fp)
 1001fac:	e17ffd15 	stw	r5,-12(fp)
 1001fb0:	e1bffc15 	stw	r6,-16(fp)
 1001fb4:	e03fff15 	stw	zero,-4(fp)
 1001fb8:	e0bffc17 	ldw	r2,-16(fp)
 1001fbc:	1000071e 	bne	r2,zero,1001fdc <prvTestWaitCondition+0x40>
 1001fc0:	e0fffe17 	ldw	r3,-8(fp)
 1001fc4:	e0bffd17 	ldw	r2,-12(fp)
 1001fc8:	1884703a 	and	r2,r3,r2
 1001fcc:	10000a26 	beq	r2,zero,1001ff8 <prvTestWaitCondition+0x5c>
 1001fd0:	00800044 	movi	r2,1
 1001fd4:	e0bfff15 	stw	r2,-4(fp)
 1001fd8:	00000706 	br	1001ff8 <prvTestWaitCondition+0x5c>
 1001fdc:	e0fffe17 	ldw	r3,-8(fp)
 1001fe0:	e0bffd17 	ldw	r2,-12(fp)
 1001fe4:	1884703a 	and	r2,r3,r2
 1001fe8:	e0fffd17 	ldw	r3,-12(fp)
 1001fec:	1880021e 	bne	r3,r2,1001ff8 <prvTestWaitCondition+0x5c>
 1001ff0:	00800044 	movi	r2,1
 1001ff4:	e0bfff15 	stw	r2,-4(fp)
 1001ff8:	e0bfff17 	ldw	r2,-4(fp)
 1001ffc:	e037883a 	mov	sp,fp
 1002000:	df000017 	ldw	fp,0(sp)
 1002004:	dec00104 	addi	sp,sp,4
 1002008:	f800283a 	ret

0100200c <uxEventGroupGetNumber>:
 100200c:	defffc04 	addi	sp,sp,-16
 1002010:	df000315 	stw	fp,12(sp)
 1002014:	df000304 	addi	fp,sp,12
 1002018:	e13ffd15 	stw	r4,-12(fp)
 100201c:	e0bffd17 	ldw	r2,-12(fp)
 1002020:	e0bffe15 	stw	r2,-8(fp)
 1002024:	e0bffd17 	ldw	r2,-12(fp)
 1002028:	1000021e 	bne	r2,zero,1002034 <uxEventGroupGetNumber+0x28>
 100202c:	e03fff15 	stw	zero,-4(fp)
 1002030:	00000306 	br	1002040 <uxEventGroupGetNumber+0x34>
 1002034:	e0bffe17 	ldw	r2,-8(fp)
 1002038:	10800617 	ldw	r2,24(r2)
 100203c:	e0bfff15 	stw	r2,-4(fp)
 1002040:	e0bfff17 	ldw	r2,-4(fp)
 1002044:	e037883a 	mov	sp,fp
 1002048:	df000017 	ldw	fp,0(sp)
 100204c:	dec00104 	addi	sp,sp,4
 1002050:	f800283a 	ret

01002054 <vEventGroupSetNumber>:
 1002054:	defffd04 	addi	sp,sp,-12
 1002058:	df000215 	stw	fp,8(sp)
 100205c:	df000204 	addi	fp,sp,8
 1002060:	e13fff15 	stw	r4,-4(fp)
 1002064:	e17ffe15 	stw	r5,-8(fp)
 1002068:	e0bfff17 	ldw	r2,-4(fp)
 100206c:	e0fffe17 	ldw	r3,-8(fp)
 1002070:	10c00615 	stw	r3,24(r2)
 1002074:	0001883a 	nop
 1002078:	e037883a 	mov	sp,fp
 100207c:	df000017 	ldw	fp,0(sp)
 1002080:	dec00104 	addi	sp,sp,4
 1002084:	f800283a 	ret

01002088 <vListInitialise>:
 1002088:	defffe04 	addi	sp,sp,-8
 100208c:	df000115 	stw	fp,4(sp)
 1002090:	df000104 	addi	fp,sp,4
 1002094:	e13fff15 	stw	r4,-4(fp)
 1002098:	e0bfff17 	ldw	r2,-4(fp)
 100209c:	10c00204 	addi	r3,r2,8
 10020a0:	e0bfff17 	ldw	r2,-4(fp)
 10020a4:	10c00115 	stw	r3,4(r2)
 10020a8:	e0bfff17 	ldw	r2,-4(fp)
 10020ac:	00ffffc4 	movi	r3,-1
 10020b0:	10c00215 	stw	r3,8(r2)
 10020b4:	e0bfff17 	ldw	r2,-4(fp)
 10020b8:	10c00204 	addi	r3,r2,8
 10020bc:	e0bfff17 	ldw	r2,-4(fp)
 10020c0:	10c00315 	stw	r3,12(r2)
 10020c4:	e0bfff17 	ldw	r2,-4(fp)
 10020c8:	10c00204 	addi	r3,r2,8
 10020cc:	e0bfff17 	ldw	r2,-4(fp)
 10020d0:	10c00415 	stw	r3,16(r2)
 10020d4:	e0bfff17 	ldw	r2,-4(fp)
 10020d8:	10000015 	stw	zero,0(r2)
 10020dc:	0001883a 	nop
 10020e0:	e037883a 	mov	sp,fp
 10020e4:	df000017 	ldw	fp,0(sp)
 10020e8:	dec00104 	addi	sp,sp,4
 10020ec:	f800283a 	ret

010020f0 <vListInitialiseItem>:
 10020f0:	defffe04 	addi	sp,sp,-8
 10020f4:	df000115 	stw	fp,4(sp)
 10020f8:	df000104 	addi	fp,sp,4
 10020fc:	e13fff15 	stw	r4,-4(fp)
 1002100:	e0bfff17 	ldw	r2,-4(fp)
 1002104:	10000415 	stw	zero,16(r2)
 1002108:	0001883a 	nop
 100210c:	e037883a 	mov	sp,fp
 1002110:	df000017 	ldw	fp,0(sp)
 1002114:	dec00104 	addi	sp,sp,4
 1002118:	f800283a 	ret

0100211c <vListInsertEnd>:
 100211c:	defffc04 	addi	sp,sp,-16
 1002120:	df000315 	stw	fp,12(sp)
 1002124:	df000304 	addi	fp,sp,12
 1002128:	e13ffe15 	stw	r4,-8(fp)
 100212c:	e17ffd15 	stw	r5,-12(fp)
 1002130:	e0bffe17 	ldw	r2,-8(fp)
 1002134:	10800117 	ldw	r2,4(r2)
 1002138:	e0bfff15 	stw	r2,-4(fp)
 100213c:	e0bffd17 	ldw	r2,-12(fp)
 1002140:	e0ffff17 	ldw	r3,-4(fp)
 1002144:	10c00115 	stw	r3,4(r2)
 1002148:	e0bfff17 	ldw	r2,-4(fp)
 100214c:	10c00217 	ldw	r3,8(r2)
 1002150:	e0bffd17 	ldw	r2,-12(fp)
 1002154:	10c00215 	stw	r3,8(r2)
 1002158:	e0bfff17 	ldw	r2,-4(fp)
 100215c:	10800217 	ldw	r2,8(r2)
 1002160:	e0fffd17 	ldw	r3,-12(fp)
 1002164:	10c00115 	stw	r3,4(r2)
 1002168:	e0bfff17 	ldw	r2,-4(fp)
 100216c:	e0fffd17 	ldw	r3,-12(fp)
 1002170:	10c00215 	stw	r3,8(r2)
 1002174:	e0bffd17 	ldw	r2,-12(fp)
 1002178:	e0fffe17 	ldw	r3,-8(fp)
 100217c:	10c00415 	stw	r3,16(r2)
 1002180:	e0bffe17 	ldw	r2,-8(fp)
 1002184:	10800017 	ldw	r2,0(r2)
 1002188:	10c00044 	addi	r3,r2,1
 100218c:	e0bffe17 	ldw	r2,-8(fp)
 1002190:	10c00015 	stw	r3,0(r2)
 1002194:	0001883a 	nop
 1002198:	e037883a 	mov	sp,fp
 100219c:	df000017 	ldw	fp,0(sp)
 10021a0:	dec00104 	addi	sp,sp,4
 10021a4:	f800283a 	ret

010021a8 <vListInsert>:
 10021a8:	defffb04 	addi	sp,sp,-20
 10021ac:	df000415 	stw	fp,16(sp)
 10021b0:	df000404 	addi	fp,sp,16
 10021b4:	e13ffd15 	stw	r4,-12(fp)
 10021b8:	e17ffc15 	stw	r5,-16(fp)
 10021bc:	e0bffc17 	ldw	r2,-16(fp)
 10021c0:	10800017 	ldw	r2,0(r2)
 10021c4:	e0bffe15 	stw	r2,-8(fp)
 10021c8:	e0bffe17 	ldw	r2,-8(fp)
 10021cc:	10bfffd8 	cmpnei	r2,r2,-1
 10021d0:	1000041e 	bne	r2,zero,10021e4 <vListInsert+0x3c>
 10021d4:	e0bffd17 	ldw	r2,-12(fp)
 10021d8:	10800417 	ldw	r2,16(r2)
 10021dc:	e0bfff15 	stw	r2,-4(fp)
 10021e0:	00000c06 	br	1002214 <vListInsert+0x6c>
 10021e4:	e0bffd17 	ldw	r2,-12(fp)
 10021e8:	10800204 	addi	r2,r2,8
 10021ec:	e0bfff15 	stw	r2,-4(fp)
 10021f0:	00000306 	br	1002200 <vListInsert+0x58>
 10021f4:	e0bfff17 	ldw	r2,-4(fp)
 10021f8:	10800117 	ldw	r2,4(r2)
 10021fc:	e0bfff15 	stw	r2,-4(fp)
 1002200:	e0bfff17 	ldw	r2,-4(fp)
 1002204:	10800117 	ldw	r2,4(r2)
 1002208:	10800017 	ldw	r2,0(r2)
 100220c:	e0fffe17 	ldw	r3,-8(fp)
 1002210:	18bff82e 	bgeu	r3,r2,10021f4 <vListInsert+0x4c>
 1002214:	e0bfff17 	ldw	r2,-4(fp)
 1002218:	10c00117 	ldw	r3,4(r2)
 100221c:	e0bffc17 	ldw	r2,-16(fp)
 1002220:	10c00115 	stw	r3,4(r2)
 1002224:	e0bffc17 	ldw	r2,-16(fp)
 1002228:	10800117 	ldw	r2,4(r2)
 100222c:	e0fffc17 	ldw	r3,-16(fp)
 1002230:	10c00215 	stw	r3,8(r2)
 1002234:	e0bffc17 	ldw	r2,-16(fp)
 1002238:	e0ffff17 	ldw	r3,-4(fp)
 100223c:	10c00215 	stw	r3,8(r2)
 1002240:	e0bfff17 	ldw	r2,-4(fp)
 1002244:	e0fffc17 	ldw	r3,-16(fp)
 1002248:	10c00115 	stw	r3,4(r2)
 100224c:	e0bffc17 	ldw	r2,-16(fp)
 1002250:	e0fffd17 	ldw	r3,-12(fp)
 1002254:	10c00415 	stw	r3,16(r2)
 1002258:	e0bffd17 	ldw	r2,-12(fp)
 100225c:	10800017 	ldw	r2,0(r2)
 1002260:	10c00044 	addi	r3,r2,1
 1002264:	e0bffd17 	ldw	r2,-12(fp)
 1002268:	10c00015 	stw	r3,0(r2)
 100226c:	0001883a 	nop
 1002270:	e037883a 	mov	sp,fp
 1002274:	df000017 	ldw	fp,0(sp)
 1002278:	dec00104 	addi	sp,sp,4
 100227c:	f800283a 	ret

01002280 <uxListRemove>:
 1002280:	defffd04 	addi	sp,sp,-12
 1002284:	df000215 	stw	fp,8(sp)
 1002288:	df000204 	addi	fp,sp,8
 100228c:	e13ffe15 	stw	r4,-8(fp)
 1002290:	e0bffe17 	ldw	r2,-8(fp)
 1002294:	10800417 	ldw	r2,16(r2)
 1002298:	e0bfff15 	stw	r2,-4(fp)
 100229c:	e0bffe17 	ldw	r2,-8(fp)
 10022a0:	10800117 	ldw	r2,4(r2)
 10022a4:	e0fffe17 	ldw	r3,-8(fp)
 10022a8:	18c00217 	ldw	r3,8(r3)
 10022ac:	10c00215 	stw	r3,8(r2)
 10022b0:	e0bffe17 	ldw	r2,-8(fp)
 10022b4:	10800217 	ldw	r2,8(r2)
 10022b8:	e0fffe17 	ldw	r3,-8(fp)
 10022bc:	18c00117 	ldw	r3,4(r3)
 10022c0:	10c00115 	stw	r3,4(r2)
 10022c4:	e0bfff17 	ldw	r2,-4(fp)
 10022c8:	10800117 	ldw	r2,4(r2)
 10022cc:	e0fffe17 	ldw	r3,-8(fp)
 10022d0:	1880041e 	bne	r3,r2,10022e4 <uxListRemove+0x64>
 10022d4:	e0bffe17 	ldw	r2,-8(fp)
 10022d8:	10c00217 	ldw	r3,8(r2)
 10022dc:	e0bfff17 	ldw	r2,-4(fp)
 10022e0:	10c00115 	stw	r3,4(r2)
 10022e4:	e0bffe17 	ldw	r2,-8(fp)
 10022e8:	10000415 	stw	zero,16(r2)
 10022ec:	e0bfff17 	ldw	r2,-4(fp)
 10022f0:	10800017 	ldw	r2,0(r2)
 10022f4:	10ffffc4 	addi	r3,r2,-1
 10022f8:	e0bfff17 	ldw	r2,-4(fp)
 10022fc:	10c00015 	stw	r3,0(r2)
 1002300:	e0bfff17 	ldw	r2,-4(fp)
 1002304:	10800017 	ldw	r2,0(r2)
 1002308:	e037883a 	mov	sp,fp
 100230c:	df000017 	ldw	fp,0(sp)
 1002310:	dec00104 	addi	sp,sp,4
 1002314:	f800283a 	ret

01002318 <prvReadGp>:
 1002318:	defffe04 	addi	sp,sp,-8
 100231c:	df000115 	stw	fp,4(sp)
 1002320:	df000104 	addi	fp,sp,4
 1002324:	e13fff15 	stw	r4,-4(fp)
 1002328:	e0bfff17 	ldw	r2,-4(fp)
 100232c:	16800015 	stw	gp,0(r2)
 1002330:	0001883a 	nop
 1002334:	e037883a 	mov	sp,fp
 1002338:	df000017 	ldw	fp,0(sp)
 100233c:	dec00104 	addi	sp,sp,4
 1002340:	f800283a 	ret

01002344 <pxPortInitialiseStack>:
 1002344:	defff904 	addi	sp,sp,-28
 1002348:	dfc00615 	stw	ra,24(sp)
 100234c:	df000515 	stw	fp,20(sp)
 1002350:	df000504 	addi	fp,sp,20
 1002354:	e13ffd15 	stw	r4,-12(fp)
 1002358:	e17ffc15 	stw	r5,-16(fp)
 100235c:	e1bffb15 	stw	r6,-20(fp)
 1002360:	e0bffd17 	ldw	r2,-12(fp)
 1002364:	10bfff04 	addi	r2,r2,-4
 1002368:	e0bfff15 	stw	r2,-4(fp)
 100236c:	e0bffe04 	addi	r2,fp,-8
 1002370:	1009883a 	mov	r4,r2
 1002374:	10023180 	call	1002318 <prvReadGp>
 1002378:	e0fffd17 	ldw	r3,-12(fp)
 100237c:	00b7abb4 	movhi	r2,57006
 1002380:	10afbbc4 	addi	r2,r2,-16657
 1002384:	18800015 	stw	r2,0(r3)
 1002388:	e0bffd17 	ldw	r2,-12(fp)
 100238c:	10bfff04 	addi	r2,r2,-4
 1002390:	e0bffd15 	stw	r2,-12(fp)
 1002394:	e0ffff17 	ldw	r3,-4(fp)
 1002398:	e0bffd17 	ldw	r2,-12(fp)
 100239c:	10c00015 	stw	r3,0(r2)
 10023a0:	e0bffd17 	ldw	r2,-12(fp)
 10023a4:	10bfff04 	addi	r2,r2,-4
 10023a8:	e0bffd15 	stw	r2,-12(fp)
 10023ac:	e0fffe17 	ldw	r3,-8(fp)
 10023b0:	e0bffd17 	ldw	r2,-12(fp)
 10023b4:	10c00015 	stw	r3,0(r2)
 10023b8:	e0bffd17 	ldw	r2,-12(fp)
 10023bc:	10bff704 	addi	r2,r2,-36
 10023c0:	e0bffd15 	stw	r2,-12(fp)
 10023c4:	e0fffc17 	ldw	r3,-16(fp)
 10023c8:	e0bffd17 	ldw	r2,-12(fp)
 10023cc:	10c00015 	stw	r3,0(r2)
 10023d0:	e0bffd17 	ldw	r2,-12(fp)
 10023d4:	10bfff04 	addi	r2,r2,-4
 10023d8:	e0bffd15 	stw	r2,-12(fp)
 10023dc:	e0bffd17 	ldw	r2,-12(fp)
 10023e0:	00c00044 	movi	r3,1
 10023e4:	10c00015 	stw	r3,0(r2)
 10023e8:	e0bffd17 	ldw	r2,-12(fp)
 10023ec:	10bff404 	addi	r2,r2,-48
 10023f0:	e0bffd15 	stw	r2,-12(fp)
 10023f4:	e0fffb17 	ldw	r3,-20(fp)
 10023f8:	e0bffd17 	ldw	r2,-12(fp)
 10023fc:	10c00015 	stw	r3,0(r2)
 1002400:	e0bffd17 	ldw	r2,-12(fp)
 1002404:	10bffb04 	addi	r2,r2,-20
 1002408:	e0bffd15 	stw	r2,-12(fp)
 100240c:	e0bffd17 	ldw	r2,-12(fp)
 1002410:	e037883a 	mov	sp,fp
 1002414:	dfc00117 	ldw	ra,4(sp)
 1002418:	df000017 	ldw	fp,0(sp)
 100241c:	dec00204 	addi	sp,sp,8
 1002420:	f800283a 	ret

01002424 <xPortStartScheduler>:
 1002424:	defffe04 	addi	sp,sp,-8
 1002428:	dfc00115 	stw	ra,4(sp)
 100242c:	df000015 	stw	fp,0(sp)
 1002430:	d839883a 	mov	fp,sp
 1002434:	100247c0 	call	100247c <prvSetupTimerInterrupt>
 1002438:	00804034 	movhi	r2,256
 100243c:	10803104 	addi	r2,r2,196
 1002440:	1000683a 	jmp	r2
 1002444:	0005883a 	mov	r2,zero
 1002448:	e037883a 	mov	sp,fp
 100244c:	dfc00117 	ldw	ra,4(sp)
 1002450:	df000017 	ldw	fp,0(sp)
 1002454:	dec00204 	addi	sp,sp,8
 1002458:	f800283a 	ret

0100245c <vPortEndScheduler>:
 100245c:	deffff04 	addi	sp,sp,-4
 1002460:	df000015 	stw	fp,0(sp)
 1002464:	d839883a 	mov	fp,sp
 1002468:	0001883a 	nop
 100246c:	e037883a 	mov	sp,fp
 1002470:	df000017 	ldw	fp,0(sp)
 1002474:	dec00104 	addi	sp,sp,4
 1002478:	f800283a 	ret

0100247c <prvSetupTimerInterrupt>:
 100247c:	defffe04 	addi	sp,sp,-8
 1002480:	dfc00115 	stw	ra,4(sp)
 1002484:	df000015 	stw	fp,0(sp)
 1002488:	d839883a 	mov	fp,sp
 100248c:	01804034 	movhi	r6,256
 1002490:	31893c04 	addi	r6,r6,9456
 1002494:	000b883a 	mov	r5,zero
 1002498:	01000084 	movi	r4,2
 100249c:	10025340 	call	1002534 <alt_irq_register>
 10024a0:	10bffa98 	cmpnei	r2,r2,-22
 10024a4:	1000021e 	bne	r2,zero,10024b0 <prvSetupTimerInterrupt+0x34>
 10024a8:	003da03a 	break	0
 10024ac:	00000806 	br	10024d0 <prvSetupTimerInterrupt+0x54>
 10024b0:	00800204 	movi	r2,8
 10024b4:	00805935 	stwio	r2,356(zero)
 10024b8:	00986a04 	movi	r2,25000
 10024bc:	00805a35 	stwio	r2,360(zero)
 10024c0:	0005883a 	mov	r2,zero
 10024c4:	00805b35 	stwio	r2,364(zero)
 10024c8:	008001c4 	movi	r2,7
 10024cc:	00805935 	stwio	r2,356(zero)
 10024d0:	00bfff84 	movi	r2,-2
 10024d4:	00805835 	stwio	r2,352(zero)
 10024d8:	0001883a 	nop
 10024dc:	e037883a 	mov	sp,fp
 10024e0:	dfc00117 	ldw	ra,4(sp)
 10024e4:	df000017 	ldw	fp,0(sp)
 10024e8:	dec00204 	addi	sp,sp,8
 10024ec:	f800283a 	ret

010024f0 <vPortSysTickHandler>:
 10024f0:	defffc04 	addi	sp,sp,-16
 10024f4:	dfc00315 	stw	ra,12(sp)
 10024f8:	df000215 	stw	fp,8(sp)
 10024fc:	df000204 	addi	fp,sp,8
 1002500:	e13fff15 	stw	r4,-4(fp)
 1002504:	e17ffe15 	stw	r5,-8(fp)
 1002508:	1005e300 	call	1005e30 <xTaskIncrementTick>
 100250c:	10000126 	beq	r2,zero,1002514 <vPortSysTickHandler+0x24>
 1002510:	1005ff40 	call	1005ff4 <vTaskSwitchContext>
 1002514:	00bfff84 	movi	r2,-2
 1002518:	00805835 	stwio	r2,352(zero)
 100251c:	0001883a 	nop
 1002520:	e037883a 	mov	sp,fp
 1002524:	dfc00117 	ldw	ra,4(sp)
 1002528:	df000017 	ldw	fp,0(sp)
 100252c:	dec00204 	addi	sp,sp,8
 1002530:	f800283a 	ret

01002534 <alt_irq_register>:
 1002534:	defff104 	addi	sp,sp,-60
 1002538:	df000e15 	stw	fp,56(sp)
 100253c:	df000e04 	addi	fp,sp,56
 1002540:	e13ff415 	stw	r4,-48(fp)
 1002544:	e17ff315 	stw	r5,-52(fp)
 1002548:	e1bff215 	stw	r6,-56(fp)
 100254c:	00bffa84 	movi	r2,-22
 1002550:	e0bfff15 	stw	r2,-4(fp)
 1002554:	e0bff417 	ldw	r2,-48(fp)
 1002558:	10800828 	cmpgeui	r2,r2,32
 100255c:	1000491e 	bne	r2,zero,1002684 <alt_irq_register+0x150>
 1002560:	0005303a 	rdctl	r2,status
 1002564:	e0bffd15 	stw	r2,-12(fp)
 1002568:	e0fffd17 	ldw	r3,-12(fp)
 100256c:	00bfff84 	movi	r2,-2
 1002570:	1884703a 	and	r2,r3,r2
 1002574:	1001703a 	wrctl	status,r2
 1002578:	e0bffd17 	ldw	r2,-12(fp)
 100257c:	e0bffe15 	stw	r2,-8(fp)
 1002580:	e0bff417 	ldw	r2,-48(fp)
 1002584:	100890fa 	slli	r4,r2,3
 1002588:	e0fff217 	ldw	r3,-56(fp)
 100258c:	008041b4 	movhi	r2,262
 1002590:	2085883a 	add	r2,r4,r2
 1002594:	10d3b315 	stw	r3,20172(r2)
 1002598:	e0bff417 	ldw	r2,-48(fp)
 100259c:	100890fa 	slli	r4,r2,3
 10025a0:	e0fff317 	ldw	r3,-52(fp)
 10025a4:	008041b4 	movhi	r2,262
 10025a8:	2085883a 	add	r2,r4,r2
 10025ac:	10d3b415 	stw	r3,20176(r2)
 10025b0:	e0bff217 	ldw	r2,-56(fp)
 10025b4:	10001926 	beq	r2,zero,100261c <alt_irq_register+0xe8>
 10025b8:	e0bff417 	ldw	r2,-48(fp)
 10025bc:	e0bffc15 	stw	r2,-16(fp)
 10025c0:	0005303a 	rdctl	r2,status
 10025c4:	e0bffb15 	stw	r2,-20(fp)
 10025c8:	e0fffb17 	ldw	r3,-20(fp)
 10025cc:	00bfff84 	movi	r2,-2
 10025d0:	1884703a 	and	r2,r3,r2
 10025d4:	1001703a 	wrctl	status,r2
 10025d8:	e0bffb17 	ldw	r2,-20(fp)
 10025dc:	e0bffa15 	stw	r2,-24(fp)
 10025e0:	00c00044 	movi	r3,1
 10025e4:	e0bffc17 	ldw	r2,-16(fp)
 10025e8:	1884983a 	sll	r2,r3,r2
 10025ec:	1007883a 	mov	r3,r2
 10025f0:	d0a38317 	ldw	r2,-29172(gp)
 10025f4:	1884b03a 	or	r2,r3,r2
 10025f8:	d0a38315 	stw	r2,-29172(gp)
 10025fc:	d0a38317 	ldw	r2,-29172(gp)
 1002600:	100170fa 	wrctl	ienable,r2
 1002604:	e0bffa17 	ldw	r2,-24(fp)
 1002608:	e0bff915 	stw	r2,-28(fp)
 100260c:	e0bff917 	ldw	r2,-28(fp)
 1002610:	1001703a 	wrctl	status,r2
 1002614:	0005883a 	mov	r2,zero
 1002618:	00001906 	br	1002680 <alt_irq_register+0x14c>
 100261c:	e0bff417 	ldw	r2,-48(fp)
 1002620:	e0bff815 	stw	r2,-32(fp)
 1002624:	0005303a 	rdctl	r2,status
 1002628:	e0bff715 	stw	r2,-36(fp)
 100262c:	e0fff717 	ldw	r3,-36(fp)
 1002630:	00bfff84 	movi	r2,-2
 1002634:	1884703a 	and	r2,r3,r2
 1002638:	1001703a 	wrctl	status,r2
 100263c:	e0bff717 	ldw	r2,-36(fp)
 1002640:	e0bff615 	stw	r2,-40(fp)
 1002644:	00c00044 	movi	r3,1
 1002648:	e0bff817 	ldw	r2,-32(fp)
 100264c:	1884983a 	sll	r2,r3,r2
 1002650:	0084303a 	nor	r2,zero,r2
 1002654:	1007883a 	mov	r3,r2
 1002658:	d0a38317 	ldw	r2,-29172(gp)
 100265c:	1884703a 	and	r2,r3,r2
 1002660:	d0a38315 	stw	r2,-29172(gp)
 1002664:	d0a38317 	ldw	r2,-29172(gp)
 1002668:	100170fa 	wrctl	ienable,r2
 100266c:	e0bff617 	ldw	r2,-40(fp)
 1002670:	e0bff515 	stw	r2,-44(fp)
 1002674:	e0bff517 	ldw	r2,-44(fp)
 1002678:	1001703a 	wrctl	status,r2
 100267c:	0005883a 	mov	r2,zero
 1002680:	e0bfff15 	stw	r2,-4(fp)
 1002684:	e0bfff17 	ldw	r2,-4(fp)
 1002688:	e037883a 	mov	sp,fp
 100268c:	df000017 	ldw	fp,0(sp)
 1002690:	dec00104 	addi	sp,sp,4
 1002694:	f800283a 	ret

01002698 <vConfigureTimerForRunTimeStats>:
 1002698:	deffff04 	addi	sp,sp,-4
 100269c:	df000015 	stw	fp,0(sp)
 10026a0:	d839883a 	mov	fp,sp
 10026a4:	0084e204 	movi	r2,5000
 10026a8:	00805235 	stwio	r2,328(zero)
 10026ac:	0005883a 	mov	r2,zero
 10026b0:	00805335 	stwio	r2,332(zero)
 10026b4:	00800044 	movi	r2,1
 10026b8:	00805135 	stwio	r2,324(zero)
 10026bc:	0001883a 	nop
 10026c0:	e037883a 	mov	sp,fp
 10026c4:	df000017 	ldw	fp,0(sp)
 10026c8:	dec00104 	addi	sp,sp,4
 10026cc:	f800283a 	ret

010026d0 <vTaskGetTimestamp>:
 10026d0:	defffe04 	addi	sp,sp,-8
 10026d4:	df000115 	stw	fp,4(sp)
 10026d8:	df000104 	addi	fp,sp,4
 10026dc:	00805537 	ldwio	r2,340(zero)
 10026e0:	e0bfff15 	stw	r2,-4(fp)
 10026e4:	e0bfff17 	ldw	r2,-4(fp)
 10026e8:	1004943a 	slli	r2,r2,16
 10026ec:	e0ffff17 	ldw	r3,-4(fp)
 10026f0:	1884b03a 	or	r2,r3,r2
 10026f4:	e0bfff15 	stw	r2,-4(fp)
 10026f8:	00805437 	ldwio	r2,336(zero)
 10026fc:	1007883a 	mov	r3,r2
 1002700:	e0bfff17 	ldw	r2,-4(fp)
 1002704:	10c4b03a 	or	r2,r2,r3
 1002708:	e0bfff15 	stw	r2,-4(fp)
 100270c:	e0bfff17 	ldw	r2,-4(fp)
 1002710:	e037883a 	mov	sp,fp
 1002714:	df000017 	ldw	fp,0(sp)
 1002718:	dec00104 	addi	sp,sp,4
 100271c:	f800283a 	ret

01002720 <xQueueGenericReset>:
 1002720:	defffa04 	addi	sp,sp,-24
 1002724:	dfc00515 	stw	ra,20(sp)
 1002728:	df000415 	stw	fp,16(sp)
 100272c:	dc000315 	stw	r16,12(sp)
 1002730:	df000404 	addi	fp,sp,16
 1002734:	e13ffd15 	stw	r4,-12(fp)
 1002738:	e17ffc15 	stw	r5,-16(fp)
 100273c:	e0bffd17 	ldw	r2,-12(fp)
 1002740:	e0bffe15 	stw	r2,-8(fp)
 1002744:	1006ed80 	call	1006ed8 <vTaskEnterCritical>
 1002748:	e0bffe17 	ldw	r2,-8(fp)
 100274c:	14000017 	ldw	r16,0(r2)
 1002750:	e0bffe17 	ldw	r2,-8(fp)
 1002754:	10c00f17 	ldw	r3,60(r2)
 1002758:	e0bffe17 	ldw	r2,-8(fp)
 100275c:	10801017 	ldw	r2,64(r2)
 1002760:	100b883a 	mov	r5,r2
 1002764:	1809883a 	mov	r4,r3
 1002768:	10187300 	call	1018730 <__mulsi3>
 100276c:	8087883a 	add	r3,r16,r2
 1002770:	e0bffe17 	ldw	r2,-8(fp)
 1002774:	10c00215 	stw	r3,8(r2)
 1002778:	e0bffe17 	ldw	r2,-8(fp)
 100277c:	10000e15 	stw	zero,56(r2)
 1002780:	e0bffe17 	ldw	r2,-8(fp)
 1002784:	10c00017 	ldw	r3,0(r2)
 1002788:	e0bffe17 	ldw	r2,-8(fp)
 100278c:	10c00115 	stw	r3,4(r2)
 1002790:	e0bffe17 	ldw	r2,-8(fp)
 1002794:	14000017 	ldw	r16,0(r2)
 1002798:	e0bffe17 	ldw	r2,-8(fp)
 100279c:	10800f17 	ldw	r2,60(r2)
 10027a0:	10ffffc4 	addi	r3,r2,-1
 10027a4:	e0bffe17 	ldw	r2,-8(fp)
 10027a8:	10801017 	ldw	r2,64(r2)
 10027ac:	100b883a 	mov	r5,r2
 10027b0:	1809883a 	mov	r4,r3
 10027b4:	10187300 	call	1018730 <__mulsi3>
 10027b8:	8087883a 	add	r3,r16,r2
 10027bc:	e0bffe17 	ldw	r2,-8(fp)
 10027c0:	10c00315 	stw	r3,12(r2)
 10027c4:	e0bffe17 	ldw	r2,-8(fp)
 10027c8:	00ffffc4 	movi	r3,-1
 10027cc:	10c01105 	stb	r3,68(r2)
 10027d0:	e0bffe17 	ldw	r2,-8(fp)
 10027d4:	00ffffc4 	movi	r3,-1
 10027d8:	10c01145 	stb	r3,69(r2)
 10027dc:	e0bffc17 	ldw	r2,-16(fp)
 10027e0:	10000a1e 	bne	r2,zero,100280c <xQueueGenericReset+0xec>
 10027e4:	e0bffe17 	ldw	r2,-8(fp)
 10027e8:	10800417 	ldw	r2,16(r2)
 10027ec:	10000f26 	beq	r2,zero,100282c <xQueueGenericReset+0x10c>
 10027f0:	e0bffe17 	ldw	r2,-8(fp)
 10027f4:	10800404 	addi	r2,r2,16
 10027f8:	1009883a 	mov	r4,r2
 10027fc:	10061c40 	call	10061c4 <xTaskRemoveFromEventList>
 1002800:	10000a26 	beq	r2,zero,100282c <xQueueGenericReset+0x10c>
 1002804:	003b683a 	trap	0
 1002808:	00000806 	br	100282c <xQueueGenericReset+0x10c>
 100280c:	e0bffe17 	ldw	r2,-8(fp)
 1002810:	10800404 	addi	r2,r2,16
 1002814:	1009883a 	mov	r4,r2
 1002818:	10020880 	call	1002088 <vListInitialise>
 100281c:	e0bffe17 	ldw	r2,-8(fp)
 1002820:	10800904 	addi	r2,r2,36
 1002824:	1009883a 	mov	r4,r2
 1002828:	10020880 	call	1002088 <vListInitialise>
 100282c:	1006f2c0 	call	1006f2c <vTaskExitCritical>
 1002830:	00800044 	movi	r2,1
 1002834:	e6ffff04 	addi	sp,fp,-4
 1002838:	dfc00217 	ldw	ra,8(sp)
 100283c:	df000117 	ldw	fp,4(sp)
 1002840:	dc000017 	ldw	r16,0(sp)
 1002844:	dec00304 	addi	sp,sp,12
 1002848:	f800283a 	ret

0100284c <xQueueGenericCreate>:
 100284c:	defff704 	addi	sp,sp,-36
 1002850:	dfc00815 	stw	ra,32(sp)
 1002854:	df000715 	stw	fp,28(sp)
 1002858:	df000704 	addi	fp,sp,28
 100285c:	e13ffc15 	stw	r4,-16(fp)
 1002860:	e17ffb15 	stw	r5,-20(fp)
 1002864:	3005883a 	mov	r2,r6
 1002868:	e0bffa05 	stb	r2,-24(fp)
 100286c:	e17ffb17 	ldw	r5,-20(fp)
 1002870:	e13ffc17 	ldw	r4,-16(fp)
 1002874:	10187300 	call	1018730 <__mulsi3>
 1002878:	e0bfff15 	stw	r2,-4(fp)
 100287c:	e0bfff17 	ldw	r2,-4(fp)
 1002880:	10801404 	addi	r2,r2,80
 1002884:	1009883a 	mov	r4,r2
 1002888:	1017a480 	call	1017a48 <pvPortMalloc>
 100288c:	e0bffe15 	stw	r2,-8(fp)
 1002890:	e0bffe17 	ldw	r2,-8(fp)
 1002894:	10000d26 	beq	r2,zero,10028cc <xQueueGenericCreate+0x80>
 1002898:	e0bffe17 	ldw	r2,-8(fp)
 100289c:	e0bffd15 	stw	r2,-12(fp)
 10028a0:	e0bffd17 	ldw	r2,-12(fp)
 10028a4:	10801404 	addi	r2,r2,80
 10028a8:	e0bffd15 	stw	r2,-12(fp)
 10028ac:	e0fffa03 	ldbu	r3,-24(fp)
 10028b0:	e0bffe17 	ldw	r2,-8(fp)
 10028b4:	d8800015 	stw	r2,0(sp)
 10028b8:	180f883a 	mov	r7,r3
 10028bc:	e1bffd17 	ldw	r6,-12(fp)
 10028c0:	e17ffb17 	ldw	r5,-20(fp)
 10028c4:	e13ffc17 	ldw	r4,-16(fp)
 10028c8:	10028e40 	call	10028e4 <prvInitialiseNewQueue>
 10028cc:	e0bffe17 	ldw	r2,-8(fp)
 10028d0:	e037883a 	mov	sp,fp
 10028d4:	dfc00117 	ldw	ra,4(sp)
 10028d8:	df000017 	ldw	fp,0(sp)
 10028dc:	dec00204 	addi	sp,sp,8
 10028e0:	f800283a 	ret

010028e4 <prvInitialiseNewQueue>:
 10028e4:	defffa04 	addi	sp,sp,-24
 10028e8:	dfc00515 	stw	ra,20(sp)
 10028ec:	df000415 	stw	fp,16(sp)
 10028f0:	df000404 	addi	fp,sp,16
 10028f4:	e13fff15 	stw	r4,-4(fp)
 10028f8:	e17ffe15 	stw	r5,-8(fp)
 10028fc:	e1bffd15 	stw	r6,-12(fp)
 1002900:	3805883a 	mov	r2,r7
 1002904:	e0bffc05 	stb	r2,-16(fp)
 1002908:	e0bffe17 	ldw	r2,-8(fp)
 100290c:	1000041e 	bne	r2,zero,1002920 <prvInitialiseNewQueue+0x3c>
 1002910:	e0800217 	ldw	r2,8(fp)
 1002914:	e0c00217 	ldw	r3,8(fp)
 1002918:	10c00015 	stw	r3,0(r2)
 100291c:	00000306 	br	100292c <prvInitialiseNewQueue+0x48>
 1002920:	e0800217 	ldw	r2,8(fp)
 1002924:	e0fffd17 	ldw	r3,-12(fp)
 1002928:	10c00015 	stw	r3,0(r2)
 100292c:	e0800217 	ldw	r2,8(fp)
 1002930:	e0ffff17 	ldw	r3,-4(fp)
 1002934:	10c00f15 	stw	r3,60(r2)
 1002938:	e0800217 	ldw	r2,8(fp)
 100293c:	e0fffe17 	ldw	r3,-8(fp)
 1002940:	10c01015 	stw	r3,64(r2)
 1002944:	01400044 	movi	r5,1
 1002948:	e1000217 	ldw	r4,8(fp)
 100294c:	10027200 	call	1002720 <xQueueGenericReset>
 1002950:	e0800217 	ldw	r2,8(fp)
 1002954:	e0fffc03 	ldbu	r3,-16(fp)
 1002958:	10c01305 	stb	r3,76(r2)
 100295c:	0001883a 	nop
 1002960:	e037883a 	mov	sp,fp
 1002964:	dfc00117 	ldw	ra,4(sp)
 1002968:	df000017 	ldw	fp,0(sp)
 100296c:	dec00204 	addi	sp,sp,8
 1002970:	f800283a 	ret

01002974 <prvInitialiseMutex>:
 1002974:	defffd04 	addi	sp,sp,-12
 1002978:	dfc00215 	stw	ra,8(sp)
 100297c:	df000115 	stw	fp,4(sp)
 1002980:	df000104 	addi	fp,sp,4
 1002984:	e13fff15 	stw	r4,-4(fp)
 1002988:	e0bfff17 	ldw	r2,-4(fp)
 100298c:	10000b26 	beq	r2,zero,10029bc <prvInitialiseMutex+0x48>
 1002990:	e0bfff17 	ldw	r2,-4(fp)
 1002994:	10000215 	stw	zero,8(r2)
 1002998:	e0bfff17 	ldw	r2,-4(fp)
 100299c:	10000015 	stw	zero,0(r2)
 10029a0:	e0bfff17 	ldw	r2,-4(fp)
 10029a4:	10000315 	stw	zero,12(r2)
 10029a8:	000f883a 	mov	r7,zero
 10029ac:	000d883a 	mov	r6,zero
 10029b0:	000b883a 	mov	r5,zero
 10029b4:	e13fff17 	ldw	r4,-4(fp)
 10029b8:	1002bb40 	call	1002bb4 <xQueueGenericSend>
 10029bc:	0001883a 	nop
 10029c0:	e037883a 	mov	sp,fp
 10029c4:	dfc00117 	ldw	ra,4(sp)
 10029c8:	df000017 	ldw	fp,0(sp)
 10029cc:	dec00204 	addi	sp,sp,8
 10029d0:	f800283a 	ret

010029d4 <xQueueCreateMutex>:
 10029d4:	defffa04 	addi	sp,sp,-24
 10029d8:	dfc00515 	stw	ra,20(sp)
 10029dc:	df000415 	stw	fp,16(sp)
 10029e0:	df000404 	addi	fp,sp,16
 10029e4:	2005883a 	mov	r2,r4
 10029e8:	e0bffc05 	stb	r2,-16(fp)
 10029ec:	00800044 	movi	r2,1
 10029f0:	e0bfff15 	stw	r2,-4(fp)
 10029f4:	e03ffe15 	stw	zero,-8(fp)
 10029f8:	e0bffc03 	ldbu	r2,-16(fp)
 10029fc:	100d883a 	mov	r6,r2
 1002a00:	e17ffe17 	ldw	r5,-8(fp)
 1002a04:	e13fff17 	ldw	r4,-4(fp)
 1002a08:	100284c0 	call	100284c <xQueueGenericCreate>
 1002a0c:	e0bffd15 	stw	r2,-12(fp)
 1002a10:	e13ffd17 	ldw	r4,-12(fp)
 1002a14:	10029740 	call	1002974 <prvInitialiseMutex>
 1002a18:	e0bffd17 	ldw	r2,-12(fp)
 1002a1c:	e037883a 	mov	sp,fp
 1002a20:	dfc00117 	ldw	ra,4(sp)
 1002a24:	df000017 	ldw	fp,0(sp)
 1002a28:	dec00204 	addi	sp,sp,8
 1002a2c:	f800283a 	ret

01002a30 <xQueueGiveMutexRecursive>:
 1002a30:	defffa04 	addi	sp,sp,-24
 1002a34:	dfc00515 	stw	ra,20(sp)
 1002a38:	df000415 	stw	fp,16(sp)
 1002a3c:	dc000315 	stw	r16,12(sp)
 1002a40:	df000404 	addi	fp,sp,16
 1002a44:	e13ffc15 	stw	r4,-16(fp)
 1002a48:	e0bffc17 	ldw	r2,-16(fp)
 1002a4c:	e0bffd15 	stw	r2,-12(fp)
 1002a50:	e0bffd17 	ldw	r2,-12(fp)
 1002a54:	14000217 	ldw	r16,8(r2)
 1002a58:	1006aec0 	call	1006aec <xTaskGetCurrentTaskHandle>
 1002a5c:	8080101e 	bne	r16,r2,1002aa0 <xQueueGiveMutexRecursive+0x70>
 1002a60:	e0bffd17 	ldw	r2,-12(fp)
 1002a64:	10800317 	ldw	r2,12(r2)
 1002a68:	10ffffc4 	addi	r3,r2,-1
 1002a6c:	e0bffd17 	ldw	r2,-12(fp)
 1002a70:	10c00315 	stw	r3,12(r2)
 1002a74:	e0bffd17 	ldw	r2,-12(fp)
 1002a78:	10800317 	ldw	r2,12(r2)
 1002a7c:	1000051e 	bne	r2,zero,1002a94 <xQueueGiveMutexRecursive+0x64>
 1002a80:	000f883a 	mov	r7,zero
 1002a84:	000d883a 	mov	r6,zero
 1002a88:	000b883a 	mov	r5,zero
 1002a8c:	e13ffd17 	ldw	r4,-12(fp)
 1002a90:	1002bb40 	call	1002bb4 <xQueueGenericSend>
 1002a94:	00800044 	movi	r2,1
 1002a98:	e0bffe15 	stw	r2,-8(fp)
 1002a9c:	00000106 	br	1002aa4 <xQueueGiveMutexRecursive+0x74>
 1002aa0:	e03ffe15 	stw	zero,-8(fp)
 1002aa4:	e0bffe17 	ldw	r2,-8(fp)
 1002aa8:	e6ffff04 	addi	sp,fp,-4
 1002aac:	dfc00217 	ldw	ra,8(sp)
 1002ab0:	df000117 	ldw	fp,4(sp)
 1002ab4:	dc000017 	ldw	r16,0(sp)
 1002ab8:	dec00304 	addi	sp,sp,12
 1002abc:	f800283a 	ret

01002ac0 <xQueueTakeMutexRecursive>:
 1002ac0:	defff904 	addi	sp,sp,-28
 1002ac4:	dfc00615 	stw	ra,24(sp)
 1002ac8:	df000515 	stw	fp,20(sp)
 1002acc:	dc000415 	stw	r16,16(sp)
 1002ad0:	df000504 	addi	fp,sp,20
 1002ad4:	e13ffc15 	stw	r4,-16(fp)
 1002ad8:	e17ffb15 	stw	r5,-20(fp)
 1002adc:	e0bffc17 	ldw	r2,-16(fp)
 1002ae0:	e0bffd15 	stw	r2,-12(fp)
 1002ae4:	e0bffd17 	ldw	r2,-12(fp)
 1002ae8:	14000217 	ldw	r16,8(r2)
 1002aec:	1006aec0 	call	1006aec <xTaskGetCurrentTaskHandle>
 1002af0:	8080081e 	bne	r16,r2,1002b14 <xQueueTakeMutexRecursive+0x54>
 1002af4:	e0bffd17 	ldw	r2,-12(fp)
 1002af8:	10800317 	ldw	r2,12(r2)
 1002afc:	10c00044 	addi	r3,r2,1
 1002b00:	e0bffd17 	ldw	r2,-12(fp)
 1002b04:	10c00315 	stw	r3,12(r2)
 1002b08:	00800044 	movi	r2,1
 1002b0c:	e0bffe15 	stw	r2,-8(fp)
 1002b10:	00000b06 	br	1002b40 <xQueueTakeMutexRecursive+0x80>
 1002b14:	e17ffb17 	ldw	r5,-20(fp)
 1002b18:	e13ffd17 	ldw	r4,-12(fp)
 1002b1c:	10030e00 	call	10030e0 <xQueueSemaphoreTake>
 1002b20:	e0bffe15 	stw	r2,-8(fp)
 1002b24:	e0bffe17 	ldw	r2,-8(fp)
 1002b28:	10000526 	beq	r2,zero,1002b40 <xQueueTakeMutexRecursive+0x80>
 1002b2c:	e0bffd17 	ldw	r2,-12(fp)
 1002b30:	10800317 	ldw	r2,12(r2)
 1002b34:	10c00044 	addi	r3,r2,1
 1002b38:	e0bffd17 	ldw	r2,-12(fp)
 1002b3c:	10c00315 	stw	r3,12(r2)
 1002b40:	e0bffe17 	ldw	r2,-8(fp)
 1002b44:	e6ffff04 	addi	sp,fp,-4
 1002b48:	dfc00217 	ldw	ra,8(sp)
 1002b4c:	df000117 	ldw	fp,4(sp)
 1002b50:	dc000017 	ldw	r16,0(sp)
 1002b54:	dec00304 	addi	sp,sp,12
 1002b58:	f800283a 	ret

01002b5c <xQueueCreateCountingSemaphore>:
 1002b5c:	defffb04 	addi	sp,sp,-20
 1002b60:	dfc00415 	stw	ra,16(sp)
 1002b64:	df000315 	stw	fp,12(sp)
 1002b68:	df000304 	addi	fp,sp,12
 1002b6c:	e13ffe15 	stw	r4,-8(fp)
 1002b70:	e17ffd15 	stw	r5,-12(fp)
 1002b74:	01800084 	movi	r6,2
 1002b78:	000b883a 	mov	r5,zero
 1002b7c:	e13ffe17 	ldw	r4,-8(fp)
 1002b80:	100284c0 	call	100284c <xQueueGenericCreate>
 1002b84:	e0bfff15 	stw	r2,-4(fp)
 1002b88:	e0bfff17 	ldw	r2,-4(fp)
 1002b8c:	10000326 	beq	r2,zero,1002b9c <xQueueCreateCountingSemaphore+0x40>
 1002b90:	e0bfff17 	ldw	r2,-4(fp)
 1002b94:	e0fffd17 	ldw	r3,-12(fp)
 1002b98:	10c00e15 	stw	r3,56(r2)
 1002b9c:	e0bfff17 	ldw	r2,-4(fp)
 1002ba0:	e037883a 	mov	sp,fp
 1002ba4:	dfc00117 	ldw	ra,4(sp)
 1002ba8:	df000017 	ldw	fp,0(sp)
 1002bac:	dec00204 	addi	sp,sp,8
 1002bb0:	f800283a 	ret

01002bb4 <xQueueGenericSend>:
 1002bb4:	defff504 	addi	sp,sp,-44
 1002bb8:	dfc00a15 	stw	ra,40(sp)
 1002bbc:	df000915 	stw	fp,36(sp)
 1002bc0:	df000904 	addi	fp,sp,36
 1002bc4:	e13ffa15 	stw	r4,-24(fp)
 1002bc8:	e17ff915 	stw	r5,-28(fp)
 1002bcc:	e1bff815 	stw	r6,-32(fp)
 1002bd0:	e1fff715 	stw	r7,-36(fp)
 1002bd4:	e03fff15 	stw	zero,-4(fp)
 1002bd8:	e0bffa17 	ldw	r2,-24(fp)
 1002bdc:	e0bffe15 	stw	r2,-8(fp)
 1002be0:	1006ed80 	call	1006ed8 <vTaskEnterCritical>
 1002be4:	e0bffe17 	ldw	r2,-8(fp)
 1002be8:	10c00e17 	ldw	r3,56(r2)
 1002bec:	e0bffe17 	ldw	r2,-8(fp)
 1002bf0:	10800f17 	ldw	r2,60(r2)
 1002bf4:	18800336 	bltu	r3,r2,1002c04 <xQueueGenericSend+0x50>
 1002bf8:	e0bff717 	ldw	r2,-36(fp)
 1002bfc:	10800098 	cmpnei	r2,r2,2
 1002c00:	1000151e 	bne	r2,zero,1002c58 <xQueueGenericSend+0xa4>
 1002c04:	e1bff717 	ldw	r6,-36(fp)
 1002c08:	e17ff917 	ldw	r5,-28(fp)
 1002c0c:	e13ffe17 	ldw	r4,-8(fp)
 1002c10:	10037dc0 	call	10037dc <prvCopyDataToQueue>
 1002c14:	e0bffd15 	stw	r2,-12(fp)
 1002c18:	e0bffe17 	ldw	r2,-8(fp)
 1002c1c:	10800917 	ldw	r2,36(r2)
 1002c20:	10000726 	beq	r2,zero,1002c40 <xQueueGenericSend+0x8c>
 1002c24:	e0bffe17 	ldw	r2,-8(fp)
 1002c28:	10800904 	addi	r2,r2,36
 1002c2c:	1009883a 	mov	r4,r2
 1002c30:	10061c40 	call	10061c4 <xTaskRemoveFromEventList>
 1002c34:	10000526 	beq	r2,zero,1002c4c <xQueueGenericSend+0x98>
 1002c38:	003b683a 	trap	0
 1002c3c:	00000306 	br	1002c4c <xQueueGenericSend+0x98>
 1002c40:	e0bffd17 	ldw	r2,-12(fp)
 1002c44:	10000126 	beq	r2,zero,1002c4c <xQueueGenericSend+0x98>
 1002c48:	003b683a 	trap	0
 1002c4c:	1006f2c0 	call	1006f2c <vTaskExitCritical>
 1002c50:	00800044 	movi	r2,1
 1002c54:	00003f06 	br	1002d54 <xQueueGenericSend+0x1a0>
 1002c58:	e0bff817 	ldw	r2,-32(fp)
 1002c5c:	1000031e 	bne	r2,zero,1002c6c <xQueueGenericSend+0xb8>
 1002c60:	1006f2c0 	call	1006f2c <vTaskExitCritical>
 1002c64:	0005883a 	mov	r2,zero
 1002c68:	00003a06 	br	1002d54 <xQueueGenericSend+0x1a0>
 1002c6c:	e0bfff17 	ldw	r2,-4(fp)
 1002c70:	1000051e 	bne	r2,zero,1002c88 <xQueueGenericSend+0xd4>
 1002c74:	e0bffb04 	addi	r2,fp,-20
 1002c78:	1009883a 	mov	r4,r2
 1002c7c:	10063e40 	call	10063e4 <vTaskInternalSetTimeOutState>
 1002c80:	00800044 	movi	r2,1
 1002c84:	e0bfff15 	stw	r2,-4(fp)
 1002c88:	1006f2c0 	call	1006f2c <vTaskExitCritical>
 1002c8c:	10059e80 	call	10059e8 <vTaskSuspendAll>
 1002c90:	1006ed80 	call	1006ed8 <vTaskEnterCritical>
 1002c94:	e0bffe17 	ldw	r2,-8(fp)
 1002c98:	10801103 	ldbu	r2,68(r2)
 1002c9c:	10803fcc 	andi	r2,r2,255
 1002ca0:	1080201c 	xori	r2,r2,128
 1002ca4:	10bfe004 	addi	r2,r2,-128
 1002ca8:	10bfffd8 	cmpnei	r2,r2,-1
 1002cac:	1000021e 	bne	r2,zero,1002cb8 <xQueueGenericSend+0x104>
 1002cb0:	e0bffe17 	ldw	r2,-8(fp)
 1002cb4:	10001105 	stb	zero,68(r2)
 1002cb8:	e0bffe17 	ldw	r2,-8(fp)
 1002cbc:	10801143 	ldbu	r2,69(r2)
 1002cc0:	10803fcc 	andi	r2,r2,255
 1002cc4:	1080201c 	xori	r2,r2,128
 1002cc8:	10bfe004 	addi	r2,r2,-128
 1002ccc:	10bfffd8 	cmpnei	r2,r2,-1
 1002cd0:	1000021e 	bne	r2,zero,1002cdc <xQueueGenericSend+0x128>
 1002cd4:	e0bffe17 	ldw	r2,-8(fp)
 1002cd8:	10001145 	stb	zero,69(r2)
 1002cdc:	1006f2c0 	call	1006f2c <vTaskExitCritical>
 1002ce0:	e0fff804 	addi	r3,fp,-32
 1002ce4:	e0bffb04 	addi	r2,fp,-20
 1002ce8:	180b883a 	mov	r5,r3
 1002cec:	1009883a 	mov	r4,r2
 1002cf0:	10064200 	call	1006420 <xTaskCheckForTimeOut>
 1002cf4:	1000131e 	bne	r2,zero,1002d44 <xQueueGenericSend+0x190>
 1002cf8:	e13ffe17 	ldw	r4,-8(fp)
 1002cfc:	1003b900 	call	1003b90 <prvIsQueueFull>
 1002d00:	10000c26 	beq	r2,zero,1002d34 <xQueueGenericSend+0x180>
 1002d04:	e0bffe17 	ldw	r2,-8(fp)
 1002d08:	10800404 	addi	r2,r2,16
 1002d0c:	e0fff817 	ldw	r3,-32(fp)
 1002d10:	180b883a 	mov	r5,r3
 1002d14:	1009883a 	mov	r4,r2
 1002d18:	10061100 	call	1006110 <vTaskPlaceOnEventList>
 1002d1c:	e13ffe17 	ldw	r4,-8(fp)
 1002d20:	1003a040 	call	1003a04 <prvUnlockQueue>
 1002d24:	1005a140 	call	1005a14 <xTaskResumeAll>
 1002d28:	103fad1e 	bne	r2,zero,1002be0 <xQueueGenericSend+0x2c>
 1002d2c:	003b683a 	trap	0
 1002d30:	003fab06 	br	1002be0 <xQueueGenericSend+0x2c>
 1002d34:	e13ffe17 	ldw	r4,-8(fp)
 1002d38:	1003a040 	call	1003a04 <prvUnlockQueue>
 1002d3c:	1005a140 	call	1005a14 <xTaskResumeAll>
 1002d40:	003fa706 	br	1002be0 <xQueueGenericSend+0x2c>
 1002d44:	e13ffe17 	ldw	r4,-8(fp)
 1002d48:	1003a040 	call	1003a04 <prvUnlockQueue>
 1002d4c:	1005a140 	call	1005a14 <xTaskResumeAll>
 1002d50:	0005883a 	mov	r2,zero
 1002d54:	e037883a 	mov	sp,fp
 1002d58:	dfc00117 	ldw	ra,4(sp)
 1002d5c:	df000017 	ldw	fp,0(sp)
 1002d60:	dec00204 	addi	sp,sp,8
 1002d64:	f800283a 	ret

01002d68 <xQueueGenericSendFromISR>:
 1002d68:	defff504 	addi	sp,sp,-44
 1002d6c:	dfc00a15 	stw	ra,40(sp)
 1002d70:	df000915 	stw	fp,36(sp)
 1002d74:	df000904 	addi	fp,sp,36
 1002d78:	e13ffa15 	stw	r4,-24(fp)
 1002d7c:	e17ff915 	stw	r5,-28(fp)
 1002d80:	e1bff815 	stw	r6,-32(fp)
 1002d84:	e1fff715 	stw	r7,-36(fp)
 1002d88:	e0bffa17 	ldw	r2,-24(fp)
 1002d8c:	e0bffe15 	stw	r2,-8(fp)
 1002d90:	e03ffd15 	stw	zero,-12(fp)
 1002d94:	e0bffe17 	ldw	r2,-8(fp)
 1002d98:	10c00e17 	ldw	r3,56(r2)
 1002d9c:	e0bffe17 	ldw	r2,-8(fp)
 1002da0:	10800f17 	ldw	r2,60(r2)
 1002da4:	18800336 	bltu	r3,r2,1002db4 <xQueueGenericSendFromISR+0x4c>
 1002da8:	e0bff717 	ldw	r2,-36(fp)
 1002dac:	10800098 	cmpnei	r2,r2,2
 1002db0:	1000231e 	bne	r2,zero,1002e40 <xQueueGenericSendFromISR+0xd8>
 1002db4:	e0bffe17 	ldw	r2,-8(fp)
 1002db8:	10801143 	ldbu	r2,69(r2)
 1002dbc:	e0bffcc5 	stb	r2,-13(fp)
 1002dc0:	e0bffe17 	ldw	r2,-8(fp)
 1002dc4:	10800e17 	ldw	r2,56(r2)
 1002dc8:	e0bffb15 	stw	r2,-20(fp)
 1002dcc:	e1bff717 	ldw	r6,-36(fp)
 1002dd0:	e17ff917 	ldw	r5,-28(fp)
 1002dd4:	e13ffe17 	ldw	r4,-8(fp)
 1002dd8:	10037dc0 	call	10037dc <prvCopyDataToQueue>
 1002ddc:	e0bffcc7 	ldb	r2,-13(fp)
 1002de0:	10bfffd8 	cmpnei	r2,r2,-1
 1002de4:	10000e1e 	bne	r2,zero,1002e20 <xQueueGenericSendFromISR+0xb8>
 1002de8:	e0bffe17 	ldw	r2,-8(fp)
 1002dec:	10800917 	ldw	r2,36(r2)
 1002df0:	10001026 	beq	r2,zero,1002e34 <xQueueGenericSendFromISR+0xcc>
 1002df4:	e0bffe17 	ldw	r2,-8(fp)
 1002df8:	10800904 	addi	r2,r2,36
 1002dfc:	1009883a 	mov	r4,r2
 1002e00:	10061c40 	call	10061c4 <xTaskRemoveFromEventList>
 1002e04:	10000b26 	beq	r2,zero,1002e34 <xQueueGenericSendFromISR+0xcc>
 1002e08:	e0bff817 	ldw	r2,-32(fp)
 1002e0c:	10000926 	beq	r2,zero,1002e34 <xQueueGenericSendFromISR+0xcc>
 1002e10:	e0bff817 	ldw	r2,-32(fp)
 1002e14:	00c00044 	movi	r3,1
 1002e18:	10c00015 	stw	r3,0(r2)
 1002e1c:	00000506 	br	1002e34 <xQueueGenericSendFromISR+0xcc>
 1002e20:	e0bffcc3 	ldbu	r2,-13(fp)
 1002e24:	10800044 	addi	r2,r2,1
 1002e28:	1007883a 	mov	r3,r2
 1002e2c:	e0bffe17 	ldw	r2,-8(fp)
 1002e30:	10c01145 	stb	r3,69(r2)
 1002e34:	00800044 	movi	r2,1
 1002e38:	e0bfff15 	stw	r2,-4(fp)
 1002e3c:	00000106 	br	1002e44 <xQueueGenericSendFromISR+0xdc>
 1002e40:	e03fff15 	stw	zero,-4(fp)
 1002e44:	e0bfff17 	ldw	r2,-4(fp)
 1002e48:	e037883a 	mov	sp,fp
 1002e4c:	dfc00117 	ldw	ra,4(sp)
 1002e50:	df000017 	ldw	fp,0(sp)
 1002e54:	dec00204 	addi	sp,sp,8
 1002e58:	f800283a 	ret

01002e5c <xQueueGiveFromISR>:
 1002e5c:	defff704 	addi	sp,sp,-36
 1002e60:	dfc00815 	stw	ra,32(sp)
 1002e64:	df000715 	stw	fp,28(sp)
 1002e68:	df000704 	addi	fp,sp,28
 1002e6c:	e13ffa15 	stw	r4,-24(fp)
 1002e70:	e17ff915 	stw	r5,-28(fp)
 1002e74:	e0bffa17 	ldw	r2,-24(fp)
 1002e78:	e0bffe15 	stw	r2,-8(fp)
 1002e7c:	e03ffd15 	stw	zero,-12(fp)
 1002e80:	e0bffe17 	ldw	r2,-8(fp)
 1002e84:	10800e17 	ldw	r2,56(r2)
 1002e88:	e0bffc15 	stw	r2,-16(fp)
 1002e8c:	e0bffe17 	ldw	r2,-8(fp)
 1002e90:	10800f17 	ldw	r2,60(r2)
 1002e94:	e0fffc17 	ldw	r3,-16(fp)
 1002e98:	1880202e 	bgeu	r3,r2,1002f1c <xQueueGiveFromISR+0xc0>
 1002e9c:	e0bffe17 	ldw	r2,-8(fp)
 1002ea0:	10801143 	ldbu	r2,69(r2)
 1002ea4:	e0bffbc5 	stb	r2,-17(fp)
 1002ea8:	e0bffc17 	ldw	r2,-16(fp)
 1002eac:	10c00044 	addi	r3,r2,1
 1002eb0:	e0bffe17 	ldw	r2,-8(fp)
 1002eb4:	10c00e15 	stw	r3,56(r2)
 1002eb8:	e0bffbc7 	ldb	r2,-17(fp)
 1002ebc:	10bfffd8 	cmpnei	r2,r2,-1
 1002ec0:	10000e1e 	bne	r2,zero,1002efc <xQueueGiveFromISR+0xa0>
 1002ec4:	e0bffe17 	ldw	r2,-8(fp)
 1002ec8:	10800917 	ldw	r2,36(r2)
 1002ecc:	10001026 	beq	r2,zero,1002f10 <xQueueGiveFromISR+0xb4>
 1002ed0:	e0bffe17 	ldw	r2,-8(fp)
 1002ed4:	10800904 	addi	r2,r2,36
 1002ed8:	1009883a 	mov	r4,r2
 1002edc:	10061c40 	call	10061c4 <xTaskRemoveFromEventList>
 1002ee0:	10000b26 	beq	r2,zero,1002f10 <xQueueGiveFromISR+0xb4>
 1002ee4:	e0bff917 	ldw	r2,-28(fp)
 1002ee8:	10000926 	beq	r2,zero,1002f10 <xQueueGiveFromISR+0xb4>
 1002eec:	e0bff917 	ldw	r2,-28(fp)
 1002ef0:	00c00044 	movi	r3,1
 1002ef4:	10c00015 	stw	r3,0(r2)
 1002ef8:	00000506 	br	1002f10 <xQueueGiveFromISR+0xb4>
 1002efc:	e0bffbc3 	ldbu	r2,-17(fp)
 1002f00:	10800044 	addi	r2,r2,1
 1002f04:	1007883a 	mov	r3,r2
 1002f08:	e0bffe17 	ldw	r2,-8(fp)
 1002f0c:	10c01145 	stb	r3,69(r2)
 1002f10:	00800044 	movi	r2,1
 1002f14:	e0bfff15 	stw	r2,-4(fp)
 1002f18:	00000106 	br	1002f20 <xQueueGiveFromISR+0xc4>
 1002f1c:	e03fff15 	stw	zero,-4(fp)
 1002f20:	e0bfff17 	ldw	r2,-4(fp)
 1002f24:	e037883a 	mov	sp,fp
 1002f28:	dfc00117 	ldw	ra,4(sp)
 1002f2c:	df000017 	ldw	fp,0(sp)
 1002f30:	dec00204 	addi	sp,sp,8
 1002f34:	f800283a 	ret

01002f38 <xQueueReceive>:
 1002f38:	defff604 	addi	sp,sp,-40
 1002f3c:	dfc00915 	stw	ra,36(sp)
 1002f40:	df000815 	stw	fp,32(sp)
 1002f44:	df000804 	addi	fp,sp,32
 1002f48:	e13ffa15 	stw	r4,-24(fp)
 1002f4c:	e17ff915 	stw	r5,-28(fp)
 1002f50:	e1bff815 	stw	r6,-32(fp)
 1002f54:	e03fff15 	stw	zero,-4(fp)
 1002f58:	e0bffa17 	ldw	r2,-24(fp)
 1002f5c:	e0bffe15 	stw	r2,-8(fp)
 1002f60:	1006ed80 	call	1006ed8 <vTaskEnterCritical>
 1002f64:	e0bffe17 	ldw	r2,-8(fp)
 1002f68:	10800e17 	ldw	r2,56(r2)
 1002f6c:	e0bffd15 	stw	r2,-12(fp)
 1002f70:	e0bffd17 	ldw	r2,-12(fp)
 1002f74:	10001326 	beq	r2,zero,1002fc4 <xQueueReceive+0x8c>
 1002f78:	e17ff917 	ldw	r5,-28(fp)
 1002f7c:	e13ffe17 	ldw	r4,-8(fp)
 1002f80:	10039680 	call	1003968 <prvCopyDataFromQueue>
 1002f84:	e0bffd17 	ldw	r2,-12(fp)
 1002f88:	10ffffc4 	addi	r3,r2,-1
 1002f8c:	e0bffe17 	ldw	r2,-8(fp)
 1002f90:	10c00e15 	stw	r3,56(r2)
 1002f94:	e0bffe17 	ldw	r2,-8(fp)
 1002f98:	10800417 	ldw	r2,16(r2)
 1002f9c:	10000626 	beq	r2,zero,1002fb8 <xQueueReceive+0x80>
 1002fa0:	e0bffe17 	ldw	r2,-8(fp)
 1002fa4:	10800404 	addi	r2,r2,16
 1002fa8:	1009883a 	mov	r4,r2
 1002fac:	10061c40 	call	10061c4 <xTaskRemoveFromEventList>
 1002fb0:	10000126 	beq	r2,zero,1002fb8 <xQueueReceive+0x80>
 1002fb4:	003b683a 	trap	0
 1002fb8:	1006f2c0 	call	1006f2c <vTaskExitCritical>
 1002fbc:	00800044 	movi	r2,1
 1002fc0:	00004206 	br	10030cc <xQueueReceive+0x194>
 1002fc4:	e0bff817 	ldw	r2,-32(fp)
 1002fc8:	1000031e 	bne	r2,zero,1002fd8 <xQueueReceive+0xa0>
 1002fcc:	1006f2c0 	call	1006f2c <vTaskExitCritical>
 1002fd0:	0005883a 	mov	r2,zero
 1002fd4:	00003d06 	br	10030cc <xQueueReceive+0x194>
 1002fd8:	e0bfff17 	ldw	r2,-4(fp)
 1002fdc:	1000051e 	bne	r2,zero,1002ff4 <xQueueReceive+0xbc>
 1002fe0:	e0bffb04 	addi	r2,fp,-20
 1002fe4:	1009883a 	mov	r4,r2
 1002fe8:	10063e40 	call	10063e4 <vTaskInternalSetTimeOutState>
 1002fec:	00800044 	movi	r2,1
 1002ff0:	e0bfff15 	stw	r2,-4(fp)
 1002ff4:	1006f2c0 	call	1006f2c <vTaskExitCritical>
 1002ff8:	10059e80 	call	10059e8 <vTaskSuspendAll>
 1002ffc:	1006ed80 	call	1006ed8 <vTaskEnterCritical>
 1003000:	e0bffe17 	ldw	r2,-8(fp)
 1003004:	10801103 	ldbu	r2,68(r2)
 1003008:	10803fcc 	andi	r2,r2,255
 100300c:	1080201c 	xori	r2,r2,128
 1003010:	10bfe004 	addi	r2,r2,-128
 1003014:	10bfffd8 	cmpnei	r2,r2,-1
 1003018:	1000021e 	bne	r2,zero,1003024 <xQueueReceive+0xec>
 100301c:	e0bffe17 	ldw	r2,-8(fp)
 1003020:	10001105 	stb	zero,68(r2)
 1003024:	e0bffe17 	ldw	r2,-8(fp)
 1003028:	10801143 	ldbu	r2,69(r2)
 100302c:	10803fcc 	andi	r2,r2,255
 1003030:	1080201c 	xori	r2,r2,128
 1003034:	10bfe004 	addi	r2,r2,-128
 1003038:	10bfffd8 	cmpnei	r2,r2,-1
 100303c:	1000021e 	bne	r2,zero,1003048 <xQueueReceive+0x110>
 1003040:	e0bffe17 	ldw	r2,-8(fp)
 1003044:	10001145 	stb	zero,69(r2)
 1003048:	1006f2c0 	call	1006f2c <vTaskExitCritical>
 100304c:	e0fff804 	addi	r3,fp,-32
 1003050:	e0bffb04 	addi	r2,fp,-20
 1003054:	180b883a 	mov	r5,r3
 1003058:	1009883a 	mov	r4,r2
 100305c:	10064200 	call	1006420 <xTaskCheckForTimeOut>
 1003060:	1000131e 	bne	r2,zero,10030b0 <xQueueReceive+0x178>
 1003064:	e13ffe17 	ldw	r4,-8(fp)
 1003068:	1003af80 	call	1003af8 <prvIsQueueEmpty>
 100306c:	10000c26 	beq	r2,zero,10030a0 <xQueueReceive+0x168>
 1003070:	e0bffe17 	ldw	r2,-8(fp)
 1003074:	10800904 	addi	r2,r2,36
 1003078:	e0fff817 	ldw	r3,-32(fp)
 100307c:	180b883a 	mov	r5,r3
 1003080:	1009883a 	mov	r4,r2
 1003084:	10061100 	call	1006110 <vTaskPlaceOnEventList>
 1003088:	e13ffe17 	ldw	r4,-8(fp)
 100308c:	1003a040 	call	1003a04 <prvUnlockQueue>
 1003090:	1005a140 	call	1005a14 <xTaskResumeAll>
 1003094:	103fb21e 	bne	r2,zero,1002f60 <xQueueReceive+0x28>
 1003098:	003b683a 	trap	0
 100309c:	003fb006 	br	1002f60 <xQueueReceive+0x28>
 10030a0:	e13ffe17 	ldw	r4,-8(fp)
 10030a4:	1003a040 	call	1003a04 <prvUnlockQueue>
 10030a8:	1005a140 	call	1005a14 <xTaskResumeAll>
 10030ac:	003fac06 	br	1002f60 <xQueueReceive+0x28>
 10030b0:	e13ffe17 	ldw	r4,-8(fp)
 10030b4:	1003a040 	call	1003a04 <prvUnlockQueue>
 10030b8:	1005a140 	call	1005a14 <xTaskResumeAll>
 10030bc:	e13ffe17 	ldw	r4,-8(fp)
 10030c0:	1003af80 	call	1003af8 <prvIsQueueEmpty>
 10030c4:	103fa626 	beq	r2,zero,1002f60 <xQueueReceive+0x28>
 10030c8:	0005883a 	mov	r2,zero
 10030cc:	e037883a 	mov	sp,fp
 10030d0:	dfc00117 	ldw	ra,4(sp)
 10030d4:	df000017 	ldw	fp,0(sp)
 10030d8:	dec00204 	addi	sp,sp,8
 10030dc:	f800283a 	ret

010030e0 <xQueueSemaphoreTake>:
 10030e0:	defff504 	addi	sp,sp,-44
 10030e4:	dfc00a15 	stw	ra,40(sp)
 10030e8:	df000915 	stw	fp,36(sp)
 10030ec:	df000904 	addi	fp,sp,36
 10030f0:	e13ff815 	stw	r4,-32(fp)
 10030f4:	e17ff715 	stw	r5,-36(fp)
 10030f8:	e03fff15 	stw	zero,-4(fp)
 10030fc:	e0bff817 	ldw	r2,-32(fp)
 1003100:	e0bffd15 	stw	r2,-12(fp)
 1003104:	e03ffe15 	stw	zero,-8(fp)
 1003108:	1006ed80 	call	1006ed8 <vTaskEnterCritical>
 100310c:	e0bffd17 	ldw	r2,-12(fp)
 1003110:	10800e17 	ldw	r2,56(r2)
 1003114:	e0bffc15 	stw	r2,-16(fp)
 1003118:	e0bffc17 	ldw	r2,-16(fp)
 100311c:	10001726 	beq	r2,zero,100317c <xQueueSemaphoreTake+0x9c>
 1003120:	e0bffc17 	ldw	r2,-16(fp)
 1003124:	10ffffc4 	addi	r3,r2,-1
 1003128:	e0bffd17 	ldw	r2,-12(fp)
 100312c:	10c00e15 	stw	r3,56(r2)
 1003130:	e0bffd17 	ldw	r2,-12(fp)
 1003134:	10800017 	ldw	r2,0(r2)
 1003138:	1000041e 	bne	r2,zero,100314c <xQueueSemaphoreTake+0x6c>
 100313c:	10072640 	call	1007264 <pvTaskIncrementMutexHeldCount>
 1003140:	1007883a 	mov	r3,r2
 1003144:	e0bffd17 	ldw	r2,-12(fp)
 1003148:	10c00215 	stw	r3,8(r2)
 100314c:	e0bffd17 	ldw	r2,-12(fp)
 1003150:	10800417 	ldw	r2,16(r2)
 1003154:	10000626 	beq	r2,zero,1003170 <xQueueSemaphoreTake+0x90>
 1003158:	e0bffd17 	ldw	r2,-12(fp)
 100315c:	10800404 	addi	r2,r2,16
 1003160:	1009883a 	mov	r4,r2
 1003164:	10061c40 	call	10061c4 <xTaskRemoveFromEventList>
 1003168:	10000126 	beq	r2,zero,1003170 <xQueueSemaphoreTake+0x90>
 100316c:	003b683a 	trap	0
 1003170:	1006f2c0 	call	1006f2c <vTaskExitCritical>
 1003174:	00800044 	movi	r2,1
 1003178:	00005806 	br	10032dc <xQueueSemaphoreTake+0x1fc>
 100317c:	e0bff717 	ldw	r2,-36(fp)
 1003180:	1000031e 	bne	r2,zero,1003190 <xQueueSemaphoreTake+0xb0>
 1003184:	1006f2c0 	call	1006f2c <vTaskExitCritical>
 1003188:	0005883a 	mov	r2,zero
 100318c:	00005306 	br	10032dc <xQueueSemaphoreTake+0x1fc>
 1003190:	e0bfff17 	ldw	r2,-4(fp)
 1003194:	1000051e 	bne	r2,zero,10031ac <xQueueSemaphoreTake+0xcc>
 1003198:	e0bff904 	addi	r2,fp,-28
 100319c:	1009883a 	mov	r4,r2
 10031a0:	10063e40 	call	10063e4 <vTaskInternalSetTimeOutState>
 10031a4:	00800044 	movi	r2,1
 10031a8:	e0bfff15 	stw	r2,-4(fp)
 10031ac:	1006f2c0 	call	1006f2c <vTaskExitCritical>
 10031b0:	10059e80 	call	10059e8 <vTaskSuspendAll>
 10031b4:	1006ed80 	call	1006ed8 <vTaskEnterCritical>
 10031b8:	e0bffd17 	ldw	r2,-12(fp)
 10031bc:	10801103 	ldbu	r2,68(r2)
 10031c0:	10803fcc 	andi	r2,r2,255
 10031c4:	1080201c 	xori	r2,r2,128
 10031c8:	10bfe004 	addi	r2,r2,-128
 10031cc:	10bfffd8 	cmpnei	r2,r2,-1
 10031d0:	1000021e 	bne	r2,zero,10031dc <xQueueSemaphoreTake+0xfc>
 10031d4:	e0bffd17 	ldw	r2,-12(fp)
 10031d8:	10001105 	stb	zero,68(r2)
 10031dc:	e0bffd17 	ldw	r2,-12(fp)
 10031e0:	10801143 	ldbu	r2,69(r2)
 10031e4:	10803fcc 	andi	r2,r2,255
 10031e8:	1080201c 	xori	r2,r2,128
 10031ec:	10bfe004 	addi	r2,r2,-128
 10031f0:	10bfffd8 	cmpnei	r2,r2,-1
 10031f4:	1000021e 	bne	r2,zero,1003200 <xQueueSemaphoreTake+0x120>
 10031f8:	e0bffd17 	ldw	r2,-12(fp)
 10031fc:	10001145 	stb	zero,69(r2)
 1003200:	1006f2c0 	call	1006f2c <vTaskExitCritical>
 1003204:	e0fff704 	addi	r3,fp,-36
 1003208:	e0bff904 	addi	r2,fp,-28
 100320c:	180b883a 	mov	r5,r3
 1003210:	1009883a 	mov	r4,r2
 1003214:	10064200 	call	1006420 <xTaskCheckForTimeOut>
 1003218:	10001d1e 	bne	r2,zero,1003290 <xQueueSemaphoreTake+0x1b0>
 100321c:	e13ffd17 	ldw	r4,-12(fp)
 1003220:	1003af80 	call	1003af8 <prvIsQueueEmpty>
 1003224:	10001626 	beq	r2,zero,1003280 <xQueueSemaphoreTake+0x1a0>
 1003228:	e0bffd17 	ldw	r2,-12(fp)
 100322c:	10800017 	ldw	r2,0(r2)
 1003230:	1000071e 	bne	r2,zero,1003250 <xQueueSemaphoreTake+0x170>
 1003234:	1006ed80 	call	1006ed8 <vTaskEnterCritical>
 1003238:	e0bffd17 	ldw	r2,-12(fp)
 100323c:	10800217 	ldw	r2,8(r2)
 1003240:	1009883a 	mov	r4,r2
 1003244:	1006b140 	call	1006b14 <xTaskPriorityInherit>
 1003248:	e0bffe15 	stw	r2,-8(fp)
 100324c:	1006f2c0 	call	1006f2c <vTaskExitCritical>
 1003250:	e0bffd17 	ldw	r2,-12(fp)
 1003254:	10800904 	addi	r2,r2,36
 1003258:	e0fff717 	ldw	r3,-36(fp)
 100325c:	180b883a 	mov	r5,r3
 1003260:	1009883a 	mov	r4,r2
 1003264:	10061100 	call	1006110 <vTaskPlaceOnEventList>
 1003268:	e13ffd17 	ldw	r4,-12(fp)
 100326c:	1003a040 	call	1003a04 <prvUnlockQueue>
 1003270:	1005a140 	call	1005a14 <xTaskResumeAll>
 1003274:	103fa41e 	bne	r2,zero,1003108 <xQueueSemaphoreTake+0x28>
 1003278:	003b683a 	trap	0
 100327c:	003fa206 	br	1003108 <xQueueSemaphoreTake+0x28>
 1003280:	e13ffd17 	ldw	r4,-12(fp)
 1003284:	1003a040 	call	1003a04 <prvUnlockQueue>
 1003288:	1005a140 	call	1005a14 <xTaskResumeAll>
 100328c:	003f9e06 	br	1003108 <xQueueSemaphoreTake+0x28>
 1003290:	e13ffd17 	ldw	r4,-12(fp)
 1003294:	1003a040 	call	1003a04 <prvUnlockQueue>
 1003298:	1005a140 	call	1005a14 <xTaskResumeAll>
 100329c:	e13ffd17 	ldw	r4,-12(fp)
 10032a0:	1003af80 	call	1003af8 <prvIsQueueEmpty>
 10032a4:	103f9826 	beq	r2,zero,1003108 <xQueueSemaphoreTake+0x28>
 10032a8:	e0bffe17 	ldw	r2,-8(fp)
 10032ac:	10000a26 	beq	r2,zero,10032d8 <xQueueSemaphoreTake+0x1f8>
 10032b0:	1006ed80 	call	1006ed8 <vTaskEnterCritical>
 10032b4:	e13ffd17 	ldw	r4,-12(fp)
 10032b8:	100378c0 	call	100378c <prvGetDisinheritPriorityAfterTimeout>
 10032bc:	e0bffb15 	stw	r2,-20(fp)
 10032c0:	e0bffd17 	ldw	r2,-12(fp)
 10032c4:	10800217 	ldw	r2,8(r2)
 10032c8:	e17ffb17 	ldw	r5,-20(fp)
 10032cc:	1009883a 	mov	r4,r2
 10032d0:	1006d7c0 	call	1006d7c <vTaskPriorityDisinheritAfterTimeout>
 10032d4:	1006f2c0 	call	1006f2c <vTaskExitCritical>
 10032d8:	0005883a 	mov	r2,zero
 10032dc:	e037883a 	mov	sp,fp
 10032e0:	dfc00117 	ldw	ra,4(sp)
 10032e4:	df000017 	ldw	fp,0(sp)
 10032e8:	dec00204 	addi	sp,sp,8
 10032ec:	f800283a 	ret

010032f0 <xQueuePeek>:
 10032f0:	defff504 	addi	sp,sp,-44
 10032f4:	dfc00a15 	stw	ra,40(sp)
 10032f8:	df000915 	stw	fp,36(sp)
 10032fc:	df000904 	addi	fp,sp,36
 1003300:	e13ff915 	stw	r4,-28(fp)
 1003304:	e17ff815 	stw	r5,-32(fp)
 1003308:	e1bff715 	stw	r6,-36(fp)
 100330c:	e03fff15 	stw	zero,-4(fp)
 1003310:	e0bff917 	ldw	r2,-28(fp)
 1003314:	e0bffe15 	stw	r2,-8(fp)
 1003318:	1006ed80 	call	1006ed8 <vTaskEnterCritical>
 100331c:	e0bffe17 	ldw	r2,-8(fp)
 1003320:	10800e17 	ldw	r2,56(r2)
 1003324:	e0bffd15 	stw	r2,-12(fp)
 1003328:	e0bffd17 	ldw	r2,-12(fp)
 100332c:	10001526 	beq	r2,zero,1003384 <xQueuePeek+0x94>
 1003330:	e0bffe17 	ldw	r2,-8(fp)
 1003334:	10800317 	ldw	r2,12(r2)
 1003338:	e0bffc15 	stw	r2,-16(fp)
 100333c:	e17ff817 	ldw	r5,-32(fp)
 1003340:	e13ffe17 	ldw	r4,-8(fp)
 1003344:	10039680 	call	1003968 <prvCopyDataFromQueue>
 1003348:	e0bffe17 	ldw	r2,-8(fp)
 100334c:	e0fffc17 	ldw	r3,-16(fp)
 1003350:	10c00315 	stw	r3,12(r2)
 1003354:	e0bffe17 	ldw	r2,-8(fp)
 1003358:	10800917 	ldw	r2,36(r2)
 100335c:	10000626 	beq	r2,zero,1003378 <xQueuePeek+0x88>
 1003360:	e0bffe17 	ldw	r2,-8(fp)
 1003364:	10800904 	addi	r2,r2,36
 1003368:	1009883a 	mov	r4,r2
 100336c:	10061c40 	call	10061c4 <xTaskRemoveFromEventList>
 1003370:	10000126 	beq	r2,zero,1003378 <xQueuePeek+0x88>
 1003374:	003b683a 	trap	0
 1003378:	1006f2c0 	call	1006f2c <vTaskExitCritical>
 100337c:	00800044 	movi	r2,1
 1003380:	00004206 	br	100348c <xQueuePeek+0x19c>
 1003384:	e0bff717 	ldw	r2,-36(fp)
 1003388:	1000031e 	bne	r2,zero,1003398 <xQueuePeek+0xa8>
 100338c:	1006f2c0 	call	1006f2c <vTaskExitCritical>
 1003390:	0005883a 	mov	r2,zero
 1003394:	00003d06 	br	100348c <xQueuePeek+0x19c>
 1003398:	e0bfff17 	ldw	r2,-4(fp)
 100339c:	1000051e 	bne	r2,zero,10033b4 <xQueuePeek+0xc4>
 10033a0:	e0bffa04 	addi	r2,fp,-24
 10033a4:	1009883a 	mov	r4,r2
 10033a8:	10063e40 	call	10063e4 <vTaskInternalSetTimeOutState>
 10033ac:	00800044 	movi	r2,1
 10033b0:	e0bfff15 	stw	r2,-4(fp)
 10033b4:	1006f2c0 	call	1006f2c <vTaskExitCritical>
 10033b8:	10059e80 	call	10059e8 <vTaskSuspendAll>
 10033bc:	1006ed80 	call	1006ed8 <vTaskEnterCritical>
 10033c0:	e0bffe17 	ldw	r2,-8(fp)
 10033c4:	10801103 	ldbu	r2,68(r2)
 10033c8:	10803fcc 	andi	r2,r2,255
 10033cc:	1080201c 	xori	r2,r2,128
 10033d0:	10bfe004 	addi	r2,r2,-128
 10033d4:	10bfffd8 	cmpnei	r2,r2,-1
 10033d8:	1000021e 	bne	r2,zero,10033e4 <xQueuePeek+0xf4>
 10033dc:	e0bffe17 	ldw	r2,-8(fp)
 10033e0:	10001105 	stb	zero,68(r2)
 10033e4:	e0bffe17 	ldw	r2,-8(fp)
 10033e8:	10801143 	ldbu	r2,69(r2)
 10033ec:	10803fcc 	andi	r2,r2,255
 10033f0:	1080201c 	xori	r2,r2,128
 10033f4:	10bfe004 	addi	r2,r2,-128
 10033f8:	10bfffd8 	cmpnei	r2,r2,-1
 10033fc:	1000021e 	bne	r2,zero,1003408 <xQueuePeek+0x118>
 1003400:	e0bffe17 	ldw	r2,-8(fp)
 1003404:	10001145 	stb	zero,69(r2)
 1003408:	1006f2c0 	call	1006f2c <vTaskExitCritical>
 100340c:	e0fff704 	addi	r3,fp,-36
 1003410:	e0bffa04 	addi	r2,fp,-24
 1003414:	180b883a 	mov	r5,r3
 1003418:	1009883a 	mov	r4,r2
 100341c:	10064200 	call	1006420 <xTaskCheckForTimeOut>
 1003420:	1000131e 	bne	r2,zero,1003470 <xQueuePeek+0x180>
 1003424:	e13ffe17 	ldw	r4,-8(fp)
 1003428:	1003af80 	call	1003af8 <prvIsQueueEmpty>
 100342c:	10000c26 	beq	r2,zero,1003460 <xQueuePeek+0x170>
 1003430:	e0bffe17 	ldw	r2,-8(fp)
 1003434:	10800904 	addi	r2,r2,36
 1003438:	e0fff717 	ldw	r3,-36(fp)
 100343c:	180b883a 	mov	r5,r3
 1003440:	1009883a 	mov	r4,r2
 1003444:	10061100 	call	1006110 <vTaskPlaceOnEventList>
 1003448:	e13ffe17 	ldw	r4,-8(fp)
 100344c:	1003a040 	call	1003a04 <prvUnlockQueue>
 1003450:	1005a140 	call	1005a14 <xTaskResumeAll>
 1003454:	103fb01e 	bne	r2,zero,1003318 <xQueuePeek+0x28>
 1003458:	003b683a 	trap	0
 100345c:	003fae06 	br	1003318 <xQueuePeek+0x28>
 1003460:	e13ffe17 	ldw	r4,-8(fp)
 1003464:	1003a040 	call	1003a04 <prvUnlockQueue>
 1003468:	1005a140 	call	1005a14 <xTaskResumeAll>
 100346c:	003faa06 	br	1003318 <xQueuePeek+0x28>
 1003470:	e13ffe17 	ldw	r4,-8(fp)
 1003474:	1003a040 	call	1003a04 <prvUnlockQueue>
 1003478:	1005a140 	call	1005a14 <xTaskResumeAll>
 100347c:	e13ffe17 	ldw	r4,-8(fp)
 1003480:	1003af80 	call	1003af8 <prvIsQueueEmpty>
 1003484:	103fa426 	beq	r2,zero,1003318 <xQueuePeek+0x28>
 1003488:	0005883a 	mov	r2,zero
 100348c:	e037883a 	mov	sp,fp
 1003490:	dfc00117 	ldw	ra,4(sp)
 1003494:	df000017 	ldw	fp,0(sp)
 1003498:	dec00204 	addi	sp,sp,8
 100349c:	f800283a 	ret

010034a0 <xQueueReceiveFromISR>:
 10034a0:	defff604 	addi	sp,sp,-40
 10034a4:	dfc00915 	stw	ra,36(sp)
 10034a8:	df000815 	stw	fp,32(sp)
 10034ac:	df000804 	addi	fp,sp,32
 10034b0:	e13ffa15 	stw	r4,-24(fp)
 10034b4:	e17ff915 	stw	r5,-28(fp)
 10034b8:	e1bff815 	stw	r6,-32(fp)
 10034bc:	e0bffa17 	ldw	r2,-24(fp)
 10034c0:	e0bffe15 	stw	r2,-8(fp)
 10034c4:	e03ffd15 	stw	zero,-12(fp)
 10034c8:	e0bffe17 	ldw	r2,-8(fp)
 10034cc:	10800e17 	ldw	r2,56(r2)
 10034d0:	e0bffc15 	stw	r2,-16(fp)
 10034d4:	e0bffc17 	ldw	r2,-16(fp)
 10034d8:	10002326 	beq	r2,zero,1003568 <xQueueReceiveFromISR+0xc8>
 10034dc:	e0bffe17 	ldw	r2,-8(fp)
 10034e0:	10801103 	ldbu	r2,68(r2)
 10034e4:	e0bffbc5 	stb	r2,-17(fp)
 10034e8:	e17ff917 	ldw	r5,-28(fp)
 10034ec:	e13ffe17 	ldw	r4,-8(fp)
 10034f0:	10039680 	call	1003968 <prvCopyDataFromQueue>
 10034f4:	e0bffc17 	ldw	r2,-16(fp)
 10034f8:	10ffffc4 	addi	r3,r2,-1
 10034fc:	e0bffe17 	ldw	r2,-8(fp)
 1003500:	10c00e15 	stw	r3,56(r2)
 1003504:	e0bffbc7 	ldb	r2,-17(fp)
 1003508:	10bfffd8 	cmpnei	r2,r2,-1
 100350c:	10000e1e 	bne	r2,zero,1003548 <xQueueReceiveFromISR+0xa8>
 1003510:	e0bffe17 	ldw	r2,-8(fp)
 1003514:	10800417 	ldw	r2,16(r2)
 1003518:	10001026 	beq	r2,zero,100355c <xQueueReceiveFromISR+0xbc>
 100351c:	e0bffe17 	ldw	r2,-8(fp)
 1003520:	10800404 	addi	r2,r2,16
 1003524:	1009883a 	mov	r4,r2
 1003528:	10061c40 	call	10061c4 <xTaskRemoveFromEventList>
 100352c:	10000b26 	beq	r2,zero,100355c <xQueueReceiveFromISR+0xbc>
 1003530:	e0bff817 	ldw	r2,-32(fp)
 1003534:	10000926 	beq	r2,zero,100355c <xQueueReceiveFromISR+0xbc>
 1003538:	e0bff817 	ldw	r2,-32(fp)
 100353c:	00c00044 	movi	r3,1
 1003540:	10c00015 	stw	r3,0(r2)
 1003544:	00000506 	br	100355c <xQueueReceiveFromISR+0xbc>
 1003548:	e0bffbc3 	ldbu	r2,-17(fp)
 100354c:	10800044 	addi	r2,r2,1
 1003550:	1007883a 	mov	r3,r2
 1003554:	e0bffe17 	ldw	r2,-8(fp)
 1003558:	10c01105 	stb	r3,68(r2)
 100355c:	00800044 	movi	r2,1
 1003560:	e0bfff15 	stw	r2,-4(fp)
 1003564:	00000106 	br	100356c <xQueueReceiveFromISR+0xcc>
 1003568:	e03fff15 	stw	zero,-4(fp)
 100356c:	e0bfff17 	ldw	r2,-4(fp)
 1003570:	e037883a 	mov	sp,fp
 1003574:	dfc00117 	ldw	ra,4(sp)
 1003578:	df000017 	ldw	fp,0(sp)
 100357c:	dec00204 	addi	sp,sp,8
 1003580:	f800283a 	ret

01003584 <xQueuePeekFromISR>:
 1003584:	defff804 	addi	sp,sp,-32
 1003588:	dfc00715 	stw	ra,28(sp)
 100358c:	df000615 	stw	fp,24(sp)
 1003590:	df000604 	addi	fp,sp,24
 1003594:	e13ffb15 	stw	r4,-20(fp)
 1003598:	e17ffa15 	stw	r5,-24(fp)
 100359c:	e0bffb17 	ldw	r2,-20(fp)
 10035a0:	e0bffe15 	stw	r2,-8(fp)
 10035a4:	e03ffd15 	stw	zero,-12(fp)
 10035a8:	e0bffe17 	ldw	r2,-8(fp)
 10035ac:	10800e17 	ldw	r2,56(r2)
 10035b0:	10000c26 	beq	r2,zero,10035e4 <xQueuePeekFromISR+0x60>
 10035b4:	e0bffe17 	ldw	r2,-8(fp)
 10035b8:	10800317 	ldw	r2,12(r2)
 10035bc:	e0bffc15 	stw	r2,-16(fp)
 10035c0:	e17ffa17 	ldw	r5,-24(fp)
 10035c4:	e13ffe17 	ldw	r4,-8(fp)
 10035c8:	10039680 	call	1003968 <prvCopyDataFromQueue>
 10035cc:	e0bffe17 	ldw	r2,-8(fp)
 10035d0:	e0fffc17 	ldw	r3,-16(fp)
 10035d4:	10c00315 	stw	r3,12(r2)
 10035d8:	00800044 	movi	r2,1
 10035dc:	e0bfff15 	stw	r2,-4(fp)
 10035e0:	00000106 	br	10035e8 <xQueuePeekFromISR+0x64>
 10035e4:	e03fff15 	stw	zero,-4(fp)
 10035e8:	e0bfff17 	ldw	r2,-4(fp)
 10035ec:	e037883a 	mov	sp,fp
 10035f0:	dfc00117 	ldw	ra,4(sp)
 10035f4:	df000017 	ldw	fp,0(sp)
 10035f8:	dec00204 	addi	sp,sp,8
 10035fc:	f800283a 	ret

01003600 <uxQueueMessagesWaiting>:
 1003600:	defffc04 	addi	sp,sp,-16
 1003604:	dfc00315 	stw	ra,12(sp)
 1003608:	df000215 	stw	fp,8(sp)
 100360c:	df000204 	addi	fp,sp,8
 1003610:	e13ffe15 	stw	r4,-8(fp)
 1003614:	1006ed80 	call	1006ed8 <vTaskEnterCritical>
 1003618:	e0bffe17 	ldw	r2,-8(fp)
 100361c:	10800e17 	ldw	r2,56(r2)
 1003620:	e0bfff15 	stw	r2,-4(fp)
 1003624:	1006f2c0 	call	1006f2c <vTaskExitCritical>
 1003628:	e0bfff17 	ldw	r2,-4(fp)
 100362c:	e037883a 	mov	sp,fp
 1003630:	dfc00117 	ldw	ra,4(sp)
 1003634:	df000017 	ldw	fp,0(sp)
 1003638:	dec00204 	addi	sp,sp,8
 100363c:	f800283a 	ret

01003640 <uxQueueSpacesAvailable>:
 1003640:	defffb04 	addi	sp,sp,-20
 1003644:	dfc00415 	stw	ra,16(sp)
 1003648:	df000315 	stw	fp,12(sp)
 100364c:	df000304 	addi	fp,sp,12
 1003650:	e13ffd15 	stw	r4,-12(fp)
 1003654:	e0bffd17 	ldw	r2,-12(fp)
 1003658:	e0bfff15 	stw	r2,-4(fp)
 100365c:	1006ed80 	call	1006ed8 <vTaskEnterCritical>
 1003660:	e0bfff17 	ldw	r2,-4(fp)
 1003664:	10c00f17 	ldw	r3,60(r2)
 1003668:	e0bfff17 	ldw	r2,-4(fp)
 100366c:	10800e17 	ldw	r2,56(r2)
 1003670:	1885c83a 	sub	r2,r3,r2
 1003674:	e0bffe15 	stw	r2,-8(fp)
 1003678:	1006f2c0 	call	1006f2c <vTaskExitCritical>
 100367c:	e0bffe17 	ldw	r2,-8(fp)
 1003680:	e037883a 	mov	sp,fp
 1003684:	dfc00117 	ldw	ra,4(sp)
 1003688:	df000017 	ldw	fp,0(sp)
 100368c:	dec00204 	addi	sp,sp,8
 1003690:	f800283a 	ret

01003694 <uxQueueMessagesWaitingFromISR>:
 1003694:	defffc04 	addi	sp,sp,-16
 1003698:	df000315 	stw	fp,12(sp)
 100369c:	df000304 	addi	fp,sp,12
 10036a0:	e13ffd15 	stw	r4,-12(fp)
 10036a4:	e0bffd17 	ldw	r2,-12(fp)
 10036a8:	e0bfff15 	stw	r2,-4(fp)
 10036ac:	e0bfff17 	ldw	r2,-4(fp)
 10036b0:	10800e17 	ldw	r2,56(r2)
 10036b4:	e0bffe15 	stw	r2,-8(fp)
 10036b8:	e0bffe17 	ldw	r2,-8(fp)
 10036bc:	e037883a 	mov	sp,fp
 10036c0:	df000017 	ldw	fp,0(sp)
 10036c4:	dec00104 	addi	sp,sp,4
 10036c8:	f800283a 	ret

010036cc <vQueueDelete>:
 10036cc:	defffc04 	addi	sp,sp,-16
 10036d0:	dfc00315 	stw	ra,12(sp)
 10036d4:	df000215 	stw	fp,8(sp)
 10036d8:	df000204 	addi	fp,sp,8
 10036dc:	e13ffe15 	stw	r4,-8(fp)
 10036e0:	e0bffe17 	ldw	r2,-8(fp)
 10036e4:	e0bfff15 	stw	r2,-4(fp)
 10036e8:	e13fff17 	ldw	r4,-4(fp)
 10036ec:	1017c500 	call	1017c50 <vPortFree>
 10036f0:	0001883a 	nop
 10036f4:	e037883a 	mov	sp,fp
 10036f8:	dfc00117 	ldw	ra,4(sp)
 10036fc:	df000017 	ldw	fp,0(sp)
 1003700:	dec00204 	addi	sp,sp,8
 1003704:	f800283a 	ret

01003708 <uxQueueGetQueueNumber>:
 1003708:	defffe04 	addi	sp,sp,-8
 100370c:	df000115 	stw	fp,4(sp)
 1003710:	df000104 	addi	fp,sp,4
 1003714:	e13fff15 	stw	r4,-4(fp)
 1003718:	e0bfff17 	ldw	r2,-4(fp)
 100371c:	10801217 	ldw	r2,72(r2)
 1003720:	e037883a 	mov	sp,fp
 1003724:	df000017 	ldw	fp,0(sp)
 1003728:	dec00104 	addi	sp,sp,4
 100372c:	f800283a 	ret

01003730 <vQueueSetQueueNumber>:
 1003730:	defffd04 	addi	sp,sp,-12
 1003734:	df000215 	stw	fp,8(sp)
 1003738:	df000204 	addi	fp,sp,8
 100373c:	e13fff15 	stw	r4,-4(fp)
 1003740:	e17ffe15 	stw	r5,-8(fp)
 1003744:	e0bfff17 	ldw	r2,-4(fp)
 1003748:	e0fffe17 	ldw	r3,-8(fp)
 100374c:	10c01215 	stw	r3,72(r2)
 1003750:	0001883a 	nop
 1003754:	e037883a 	mov	sp,fp
 1003758:	df000017 	ldw	fp,0(sp)
 100375c:	dec00104 	addi	sp,sp,4
 1003760:	f800283a 	ret

01003764 <ucQueueGetQueueType>:
 1003764:	defffe04 	addi	sp,sp,-8
 1003768:	df000115 	stw	fp,4(sp)
 100376c:	df000104 	addi	fp,sp,4
 1003770:	e13fff15 	stw	r4,-4(fp)
 1003774:	e0bfff17 	ldw	r2,-4(fp)
 1003778:	10801303 	ldbu	r2,76(r2)
 100377c:	e037883a 	mov	sp,fp
 1003780:	df000017 	ldw	fp,0(sp)
 1003784:	dec00104 	addi	sp,sp,4
 1003788:	f800283a 	ret

0100378c <prvGetDisinheritPriorityAfterTimeout>:
 100378c:	defffd04 	addi	sp,sp,-12
 1003790:	df000215 	stw	fp,8(sp)
 1003794:	df000204 	addi	fp,sp,8
 1003798:	e13ffe15 	stw	r4,-8(fp)
 100379c:	e0bffe17 	ldw	r2,-8(fp)
 10037a0:	10800917 	ldw	r2,36(r2)
 10037a4:	10000726 	beq	r2,zero,10037c4 <prvGetDisinheritPriorityAfterTimeout+0x38>
 10037a8:	e0bffe17 	ldw	r2,-8(fp)
 10037ac:	10800c17 	ldw	r2,48(r2)
 10037b0:	10800017 	ldw	r2,0(r2)
 10037b4:	00c00244 	movi	r3,9
 10037b8:	1885c83a 	sub	r2,r3,r2
 10037bc:	e0bfff15 	stw	r2,-4(fp)
 10037c0:	00000106 	br	10037c8 <prvGetDisinheritPriorityAfterTimeout+0x3c>
 10037c4:	e03fff15 	stw	zero,-4(fp)
 10037c8:	e0bfff17 	ldw	r2,-4(fp)
 10037cc:	e037883a 	mov	sp,fp
 10037d0:	df000017 	ldw	fp,0(sp)
 10037d4:	dec00104 	addi	sp,sp,4
 10037d8:	f800283a 	ret

010037dc <prvCopyDataToQueue>:
 10037dc:	defff904 	addi	sp,sp,-28
 10037e0:	dfc00615 	stw	ra,24(sp)
 10037e4:	df000515 	stw	fp,20(sp)
 10037e8:	df000504 	addi	fp,sp,20
 10037ec:	e13ffd15 	stw	r4,-12(fp)
 10037f0:	e17ffc15 	stw	r5,-16(fp)
 10037f4:	e1bffb15 	stw	r6,-20(fp)
 10037f8:	e03fff15 	stw	zero,-4(fp)
 10037fc:	e0bffd17 	ldw	r2,-12(fp)
 1003800:	10800e17 	ldw	r2,56(r2)
 1003804:	e0bffe15 	stw	r2,-8(fp)
 1003808:	e0bffd17 	ldw	r2,-12(fp)
 100380c:	10801017 	ldw	r2,64(r2)
 1003810:	10000b1e 	bne	r2,zero,1003840 <prvCopyDataToQueue+0x64>
 1003814:	e0bffd17 	ldw	r2,-12(fp)
 1003818:	10800017 	ldw	r2,0(r2)
 100381c:	1000481e 	bne	r2,zero,1003940 <prvCopyDataToQueue+0x164>
 1003820:	e0bffd17 	ldw	r2,-12(fp)
 1003824:	10800217 	ldw	r2,8(r2)
 1003828:	1009883a 	mov	r4,r2
 100382c:	1006c740 	call	1006c74 <xTaskPriorityDisinherit>
 1003830:	e0bfff15 	stw	r2,-4(fp)
 1003834:	e0bffd17 	ldw	r2,-12(fp)
 1003838:	10000215 	stw	zero,8(r2)
 100383c:	00004006 	br	1003940 <prvCopyDataToQueue+0x164>
 1003840:	e0bffb17 	ldw	r2,-20(fp)
 1003844:	1000191e 	bne	r2,zero,10038ac <prvCopyDataToQueue+0xd0>
 1003848:	e0bffd17 	ldw	r2,-12(fp)
 100384c:	10c00117 	ldw	r3,4(r2)
 1003850:	e0bffd17 	ldw	r2,-12(fp)
 1003854:	10801017 	ldw	r2,64(r2)
 1003858:	100d883a 	mov	r6,r2
 100385c:	e17ffc17 	ldw	r5,-16(fp)
 1003860:	1809883a 	mov	r4,r3
 1003864:	10187e40 	call	10187e4 <memcpy>
 1003868:	e0bffd17 	ldw	r2,-12(fp)
 100386c:	10c00117 	ldw	r3,4(r2)
 1003870:	e0bffd17 	ldw	r2,-12(fp)
 1003874:	10801017 	ldw	r2,64(r2)
 1003878:	1887883a 	add	r3,r3,r2
 100387c:	e0bffd17 	ldw	r2,-12(fp)
 1003880:	10c00115 	stw	r3,4(r2)
 1003884:	e0bffd17 	ldw	r2,-12(fp)
 1003888:	10c00117 	ldw	r3,4(r2)
 100388c:	e0bffd17 	ldw	r2,-12(fp)
 1003890:	10800217 	ldw	r2,8(r2)
 1003894:	18802a36 	bltu	r3,r2,1003940 <prvCopyDataToQueue+0x164>
 1003898:	e0bffd17 	ldw	r2,-12(fp)
 100389c:	10c00017 	ldw	r3,0(r2)
 10038a0:	e0bffd17 	ldw	r2,-12(fp)
 10038a4:	10c00115 	stw	r3,4(r2)
 10038a8:	00002506 	br	1003940 <prvCopyDataToQueue+0x164>
 10038ac:	e0bffd17 	ldw	r2,-12(fp)
 10038b0:	10c00317 	ldw	r3,12(r2)
 10038b4:	e0bffd17 	ldw	r2,-12(fp)
 10038b8:	10801017 	ldw	r2,64(r2)
 10038bc:	100d883a 	mov	r6,r2
 10038c0:	e17ffc17 	ldw	r5,-16(fp)
 10038c4:	1809883a 	mov	r4,r3
 10038c8:	10187e40 	call	10187e4 <memcpy>
 10038cc:	e0bffd17 	ldw	r2,-12(fp)
 10038d0:	10c00317 	ldw	r3,12(r2)
 10038d4:	e0bffd17 	ldw	r2,-12(fp)
 10038d8:	10801017 	ldw	r2,64(r2)
 10038dc:	0085c83a 	sub	r2,zero,r2
 10038e0:	1887883a 	add	r3,r3,r2
 10038e4:	e0bffd17 	ldw	r2,-12(fp)
 10038e8:	10c00315 	stw	r3,12(r2)
 10038ec:	e0bffd17 	ldw	r2,-12(fp)
 10038f0:	10c00317 	ldw	r3,12(r2)
 10038f4:	e0bffd17 	ldw	r2,-12(fp)
 10038f8:	10800017 	ldw	r2,0(r2)
 10038fc:	1880082e 	bgeu	r3,r2,1003920 <prvCopyDataToQueue+0x144>
 1003900:	e0bffd17 	ldw	r2,-12(fp)
 1003904:	10c00217 	ldw	r3,8(r2)
 1003908:	e0bffd17 	ldw	r2,-12(fp)
 100390c:	10801017 	ldw	r2,64(r2)
 1003910:	0085c83a 	sub	r2,zero,r2
 1003914:	1887883a 	add	r3,r3,r2
 1003918:	e0bffd17 	ldw	r2,-12(fp)
 100391c:	10c00315 	stw	r3,12(r2)
 1003920:	e0bffb17 	ldw	r2,-20(fp)
 1003924:	10800098 	cmpnei	r2,r2,2
 1003928:	1000051e 	bne	r2,zero,1003940 <prvCopyDataToQueue+0x164>
 100392c:	e0bffe17 	ldw	r2,-8(fp)
 1003930:	10000326 	beq	r2,zero,1003940 <prvCopyDataToQueue+0x164>
 1003934:	e0bffe17 	ldw	r2,-8(fp)
 1003938:	10bfffc4 	addi	r2,r2,-1
 100393c:	e0bffe15 	stw	r2,-8(fp)
 1003940:	e0bffe17 	ldw	r2,-8(fp)
 1003944:	10c00044 	addi	r3,r2,1
 1003948:	e0bffd17 	ldw	r2,-12(fp)
 100394c:	10c00e15 	stw	r3,56(r2)
 1003950:	e0bfff17 	ldw	r2,-4(fp)
 1003954:	e037883a 	mov	sp,fp
 1003958:	dfc00117 	ldw	ra,4(sp)
 100395c:	df000017 	ldw	fp,0(sp)
 1003960:	dec00204 	addi	sp,sp,8
 1003964:	f800283a 	ret

01003968 <prvCopyDataFromQueue>:
 1003968:	defffc04 	addi	sp,sp,-16
 100396c:	dfc00315 	stw	ra,12(sp)
 1003970:	df000215 	stw	fp,8(sp)
 1003974:	df000204 	addi	fp,sp,8
 1003978:	e13fff15 	stw	r4,-4(fp)
 100397c:	e17ffe15 	stw	r5,-8(fp)
 1003980:	e0bfff17 	ldw	r2,-4(fp)
 1003984:	10801017 	ldw	r2,64(r2)
 1003988:	10001826 	beq	r2,zero,10039ec <prvCopyDataFromQueue+0x84>
 100398c:	e0bfff17 	ldw	r2,-4(fp)
 1003990:	10c00317 	ldw	r3,12(r2)
 1003994:	e0bfff17 	ldw	r2,-4(fp)
 1003998:	10801017 	ldw	r2,64(r2)
 100399c:	1887883a 	add	r3,r3,r2
 10039a0:	e0bfff17 	ldw	r2,-4(fp)
 10039a4:	10c00315 	stw	r3,12(r2)
 10039a8:	e0bfff17 	ldw	r2,-4(fp)
 10039ac:	10c00317 	ldw	r3,12(r2)
 10039b0:	e0bfff17 	ldw	r2,-4(fp)
 10039b4:	10800217 	ldw	r2,8(r2)
 10039b8:	18800436 	bltu	r3,r2,10039cc <prvCopyDataFromQueue+0x64>
 10039bc:	e0bfff17 	ldw	r2,-4(fp)
 10039c0:	10c00017 	ldw	r3,0(r2)
 10039c4:	e0bfff17 	ldw	r2,-4(fp)
 10039c8:	10c00315 	stw	r3,12(r2)
 10039cc:	e0bfff17 	ldw	r2,-4(fp)
 10039d0:	10c00317 	ldw	r3,12(r2)
 10039d4:	e0bfff17 	ldw	r2,-4(fp)
 10039d8:	10801017 	ldw	r2,64(r2)
 10039dc:	100d883a 	mov	r6,r2
 10039e0:	180b883a 	mov	r5,r3
 10039e4:	e13ffe17 	ldw	r4,-8(fp)
 10039e8:	10187e40 	call	10187e4 <memcpy>
 10039ec:	0001883a 	nop
 10039f0:	e037883a 	mov	sp,fp
 10039f4:	dfc00117 	ldw	ra,4(sp)
 10039f8:	df000017 	ldw	fp,0(sp)
 10039fc:	dec00204 	addi	sp,sp,8
 1003a00:	f800283a 	ret

01003a04 <prvUnlockQueue>:
 1003a04:	defffc04 	addi	sp,sp,-16
 1003a08:	dfc00315 	stw	ra,12(sp)
 1003a0c:	df000215 	stw	fp,8(sp)
 1003a10:	df000204 	addi	fp,sp,8
 1003a14:	e13ffe15 	stw	r4,-8(fp)
 1003a18:	1006ed80 	call	1006ed8 <vTaskEnterCritical>
 1003a1c:	e0bffe17 	ldw	r2,-8(fp)
 1003a20:	10801143 	ldbu	r2,69(r2)
 1003a24:	e0bfffc5 	stb	r2,-1(fp)
 1003a28:	00000c06 	br	1003a5c <prvUnlockQueue+0x58>
 1003a2c:	e0bffe17 	ldw	r2,-8(fp)
 1003a30:	10800917 	ldw	r2,36(r2)
 1003a34:	10000c26 	beq	r2,zero,1003a68 <prvUnlockQueue+0x64>
 1003a38:	e0bffe17 	ldw	r2,-8(fp)
 1003a3c:	10800904 	addi	r2,r2,36
 1003a40:	1009883a 	mov	r4,r2
 1003a44:	10061c40 	call	10061c4 <xTaskRemoveFromEventList>
 1003a48:	10000126 	beq	r2,zero,1003a50 <prvUnlockQueue+0x4c>
 1003a4c:	10065080 	call	1006508 <vTaskMissedYield>
 1003a50:	e0bfffc3 	ldbu	r2,-1(fp)
 1003a54:	10bfffc4 	addi	r2,r2,-1
 1003a58:	e0bfffc5 	stb	r2,-1(fp)
 1003a5c:	e0bfffc7 	ldb	r2,-1(fp)
 1003a60:	00bff216 	blt	zero,r2,1003a2c <prvUnlockQueue+0x28>
 1003a64:	00000106 	br	1003a6c <prvUnlockQueue+0x68>
 1003a68:	0001883a 	nop
 1003a6c:	e0bffe17 	ldw	r2,-8(fp)
 1003a70:	00ffffc4 	movi	r3,-1
 1003a74:	10c01145 	stb	r3,69(r2)
 1003a78:	1006f2c0 	call	1006f2c <vTaskExitCritical>
 1003a7c:	1006ed80 	call	1006ed8 <vTaskEnterCritical>
 1003a80:	e0bffe17 	ldw	r2,-8(fp)
 1003a84:	10801103 	ldbu	r2,68(r2)
 1003a88:	e0bfff85 	stb	r2,-2(fp)
 1003a8c:	00000c06 	br	1003ac0 <prvUnlockQueue+0xbc>
 1003a90:	e0bffe17 	ldw	r2,-8(fp)
 1003a94:	10800417 	ldw	r2,16(r2)
 1003a98:	10000c26 	beq	r2,zero,1003acc <prvUnlockQueue+0xc8>
 1003a9c:	e0bffe17 	ldw	r2,-8(fp)
 1003aa0:	10800404 	addi	r2,r2,16
 1003aa4:	1009883a 	mov	r4,r2
 1003aa8:	10061c40 	call	10061c4 <xTaskRemoveFromEventList>
 1003aac:	10000126 	beq	r2,zero,1003ab4 <prvUnlockQueue+0xb0>
 1003ab0:	10065080 	call	1006508 <vTaskMissedYield>
 1003ab4:	e0bfff83 	ldbu	r2,-2(fp)
 1003ab8:	10bfffc4 	addi	r2,r2,-1
 1003abc:	e0bfff85 	stb	r2,-2(fp)
 1003ac0:	e0bfff87 	ldb	r2,-2(fp)
 1003ac4:	00bff216 	blt	zero,r2,1003a90 <prvUnlockQueue+0x8c>
 1003ac8:	00000106 	br	1003ad0 <prvUnlockQueue+0xcc>
 1003acc:	0001883a 	nop
 1003ad0:	e0bffe17 	ldw	r2,-8(fp)
 1003ad4:	00ffffc4 	movi	r3,-1
 1003ad8:	10c01105 	stb	r3,68(r2)
 1003adc:	1006f2c0 	call	1006f2c <vTaskExitCritical>
 1003ae0:	0001883a 	nop
 1003ae4:	e037883a 	mov	sp,fp
 1003ae8:	dfc00117 	ldw	ra,4(sp)
 1003aec:	df000017 	ldw	fp,0(sp)
 1003af0:	dec00204 	addi	sp,sp,8
 1003af4:	f800283a 	ret

01003af8 <prvIsQueueEmpty>:
 1003af8:	defffc04 	addi	sp,sp,-16
 1003afc:	dfc00315 	stw	ra,12(sp)
 1003b00:	df000215 	stw	fp,8(sp)
 1003b04:	df000204 	addi	fp,sp,8
 1003b08:	e13ffe15 	stw	r4,-8(fp)
 1003b0c:	1006ed80 	call	1006ed8 <vTaskEnterCritical>
 1003b10:	e0bffe17 	ldw	r2,-8(fp)
 1003b14:	10800e17 	ldw	r2,56(r2)
 1003b18:	1000031e 	bne	r2,zero,1003b28 <prvIsQueueEmpty+0x30>
 1003b1c:	00800044 	movi	r2,1
 1003b20:	e0bfff15 	stw	r2,-4(fp)
 1003b24:	00000106 	br	1003b2c <prvIsQueueEmpty+0x34>
 1003b28:	e03fff15 	stw	zero,-4(fp)
 1003b2c:	1006f2c0 	call	1006f2c <vTaskExitCritical>
 1003b30:	e0bfff17 	ldw	r2,-4(fp)
 1003b34:	e037883a 	mov	sp,fp
 1003b38:	dfc00117 	ldw	ra,4(sp)
 1003b3c:	df000017 	ldw	fp,0(sp)
 1003b40:	dec00204 	addi	sp,sp,8
 1003b44:	f800283a 	ret

01003b48 <xQueueIsQueueEmptyFromISR>:
 1003b48:	defffc04 	addi	sp,sp,-16
 1003b4c:	df000315 	stw	fp,12(sp)
 1003b50:	df000304 	addi	fp,sp,12
 1003b54:	e13ffd15 	stw	r4,-12(fp)
 1003b58:	e0bffd17 	ldw	r2,-12(fp)
 1003b5c:	e0bffe15 	stw	r2,-8(fp)
 1003b60:	e0bffe17 	ldw	r2,-8(fp)
 1003b64:	10800e17 	ldw	r2,56(r2)
 1003b68:	1000031e 	bne	r2,zero,1003b78 <xQueueIsQueueEmptyFromISR+0x30>
 1003b6c:	00800044 	movi	r2,1
 1003b70:	e0bfff15 	stw	r2,-4(fp)
 1003b74:	00000106 	br	1003b7c <xQueueIsQueueEmptyFromISR+0x34>
 1003b78:	e03fff15 	stw	zero,-4(fp)
 1003b7c:	e0bfff17 	ldw	r2,-4(fp)
 1003b80:	e037883a 	mov	sp,fp
 1003b84:	df000017 	ldw	fp,0(sp)
 1003b88:	dec00104 	addi	sp,sp,4
 1003b8c:	f800283a 	ret

01003b90 <prvIsQueueFull>:
 1003b90:	defffc04 	addi	sp,sp,-16
 1003b94:	dfc00315 	stw	ra,12(sp)
 1003b98:	df000215 	stw	fp,8(sp)
 1003b9c:	df000204 	addi	fp,sp,8
 1003ba0:	e13ffe15 	stw	r4,-8(fp)
 1003ba4:	1006ed80 	call	1006ed8 <vTaskEnterCritical>
 1003ba8:	e0bffe17 	ldw	r2,-8(fp)
 1003bac:	10c00e17 	ldw	r3,56(r2)
 1003bb0:	e0bffe17 	ldw	r2,-8(fp)
 1003bb4:	10800f17 	ldw	r2,60(r2)
 1003bb8:	1880031e 	bne	r3,r2,1003bc8 <prvIsQueueFull+0x38>
 1003bbc:	00800044 	movi	r2,1
 1003bc0:	e0bfff15 	stw	r2,-4(fp)
 1003bc4:	00000106 	br	1003bcc <prvIsQueueFull+0x3c>
 1003bc8:	e03fff15 	stw	zero,-4(fp)
 1003bcc:	1006f2c0 	call	1006f2c <vTaskExitCritical>
 1003bd0:	e0bfff17 	ldw	r2,-4(fp)
 1003bd4:	e037883a 	mov	sp,fp
 1003bd8:	dfc00117 	ldw	ra,4(sp)
 1003bdc:	df000017 	ldw	fp,0(sp)
 1003be0:	dec00204 	addi	sp,sp,8
 1003be4:	f800283a 	ret

01003be8 <xQueueIsQueueFullFromISR>:
 1003be8:	defffc04 	addi	sp,sp,-16
 1003bec:	df000315 	stw	fp,12(sp)
 1003bf0:	df000304 	addi	fp,sp,12
 1003bf4:	e13ffd15 	stw	r4,-12(fp)
 1003bf8:	e0bffd17 	ldw	r2,-12(fp)
 1003bfc:	e0bffe15 	stw	r2,-8(fp)
 1003c00:	e0bffe17 	ldw	r2,-8(fp)
 1003c04:	10c00e17 	ldw	r3,56(r2)
 1003c08:	e0bffe17 	ldw	r2,-8(fp)
 1003c0c:	10800f17 	ldw	r2,60(r2)
 1003c10:	1880031e 	bne	r3,r2,1003c20 <xQueueIsQueueFullFromISR+0x38>
 1003c14:	00800044 	movi	r2,1
 1003c18:	e0bfff15 	stw	r2,-4(fp)
 1003c1c:	00000106 	br	1003c24 <xQueueIsQueueFullFromISR+0x3c>
 1003c20:	e03fff15 	stw	zero,-4(fp)
 1003c24:	e0bfff17 	ldw	r2,-4(fp)
 1003c28:	e037883a 	mov	sp,fp
 1003c2c:	df000017 	ldw	fp,0(sp)
 1003c30:	dec00104 	addi	sp,sp,4
 1003c34:	f800283a 	ret

01003c38 <xStreamBufferGenericCreate>:
 1003c38:	defff804 	addi	sp,sp,-32
 1003c3c:	dfc00715 	stw	ra,28(sp)
 1003c40:	df000615 	stw	fp,24(sp)
 1003c44:	df000604 	addi	fp,sp,24
 1003c48:	e13ffd15 	stw	r4,-12(fp)
 1003c4c:	e17ffc15 	stw	r5,-16(fp)
 1003c50:	e1bffb15 	stw	r6,-20(fp)
 1003c54:	e0bffb17 	ldw	r2,-20(fp)
 1003c58:	10800058 	cmpnei	r2,r2,1
 1003c5c:	1000031e 	bne	r2,zero,1003c6c <xStreamBufferGenericCreate+0x34>
 1003c60:	00800044 	movi	r2,1
 1003c64:	e0bffec5 	stb	r2,-5(fp)
 1003c68:	00000106 	br	1003c70 <xStreamBufferGenericCreate+0x38>
 1003c6c:	e03ffec5 	stb	zero,-5(fp)
 1003c70:	e0bffc17 	ldw	r2,-16(fp)
 1003c74:	1000021e 	bne	r2,zero,1003c80 <xStreamBufferGenericCreate+0x48>
 1003c78:	00800044 	movi	r2,1
 1003c7c:	e0bffc15 	stw	r2,-16(fp)
 1003c80:	e0bffd17 	ldw	r2,-12(fp)
 1003c84:	00fff684 	movi	r3,-38
 1003c88:	18800936 	bltu	r3,r2,1003cb0 <xStreamBufferGenericCreate+0x78>
 1003c8c:	e0bffd17 	ldw	r2,-12(fp)
 1003c90:	10800044 	addi	r2,r2,1
 1003c94:	e0bffd15 	stw	r2,-12(fp)
 1003c98:	e0bffd17 	ldw	r2,-12(fp)
 1003c9c:	10800904 	addi	r2,r2,36
 1003ca0:	1009883a 	mov	r4,r2
 1003ca4:	1017a480 	call	1017a48 <pvPortMalloc>
 1003ca8:	e0bfff15 	stw	r2,-4(fp)
 1003cac:	00000106 	br	1003cb4 <xStreamBufferGenericCreate+0x7c>
 1003cb0:	e03fff15 	stw	zero,-4(fp)
 1003cb4:	e0bfff17 	ldw	r2,-4(fp)
 1003cb8:	10000926 	beq	r2,zero,1003ce0 <xStreamBufferGenericCreate+0xa8>
 1003cbc:	e0bfff17 	ldw	r2,-4(fp)
 1003cc0:	10c00904 	addi	r3,r2,36
 1003cc4:	e0bffec3 	ldbu	r2,-5(fp)
 1003cc8:	d8800015 	stw	r2,0(sp)
 1003ccc:	e1fffc17 	ldw	r7,-16(fp)
 1003cd0:	e1bffd17 	ldw	r6,-12(fp)
 1003cd4:	180b883a 	mov	r5,r3
 1003cd8:	e13fff17 	ldw	r4,-4(fp)
 1003cdc:	1004aec0 	call	1004aec <prvInitialiseNewStreamBuffer>
 1003ce0:	e0bfff17 	ldw	r2,-4(fp)
 1003ce4:	e037883a 	mov	sp,fp
 1003ce8:	dfc00117 	ldw	ra,4(sp)
 1003cec:	df000017 	ldw	fp,0(sp)
 1003cf0:	dec00204 	addi	sp,sp,8
 1003cf4:	f800283a 	ret

01003cf8 <vStreamBufferDelete>:
 1003cf8:	defffc04 	addi	sp,sp,-16
 1003cfc:	dfc00315 	stw	ra,12(sp)
 1003d00:	df000215 	stw	fp,8(sp)
 1003d04:	df000204 	addi	fp,sp,8
 1003d08:	e13ffe15 	stw	r4,-8(fp)
 1003d0c:	e0bffe17 	ldw	r2,-8(fp)
 1003d10:	e0bfff15 	stw	r2,-4(fp)
 1003d14:	e0bfff17 	ldw	r2,-4(fp)
 1003d18:	10800703 	ldbu	r2,28(r2)
 1003d1c:	10803fcc 	andi	r2,r2,255
 1003d20:	1080008c 	andi	r2,r2,2
 1003d24:	1000031e 	bne	r2,zero,1003d34 <vStreamBufferDelete+0x3c>
 1003d28:	e13fff17 	ldw	r4,-4(fp)
 1003d2c:	1017c500 	call	1017c50 <vPortFree>
 1003d30:	00000406 	br	1003d44 <vStreamBufferDelete+0x4c>
 1003d34:	01800904 	movi	r6,36
 1003d38:	000b883a 	mov	r5,zero
 1003d3c:	e13fff17 	ldw	r4,-4(fp)
 1003d40:	1018a100 	call	1018a10 <memset>
 1003d44:	0001883a 	nop
 1003d48:	e037883a 	mov	sp,fp
 1003d4c:	dfc00117 	ldw	ra,4(sp)
 1003d50:	df000017 	ldw	fp,0(sp)
 1003d54:	dec00204 	addi	sp,sp,8
 1003d58:	f800283a 	ret

01003d5c <xStreamBufferReset>:
 1003d5c:	defff904 	addi	sp,sp,-28
 1003d60:	dfc00615 	stw	ra,24(sp)
 1003d64:	df000515 	stw	fp,20(sp)
 1003d68:	df000504 	addi	fp,sp,20
 1003d6c:	e13ffc15 	stw	r4,-16(fp)
 1003d70:	e0bffc17 	ldw	r2,-16(fp)
 1003d74:	e0bffe15 	stw	r2,-8(fp)
 1003d78:	e03fff15 	stw	zero,-4(fp)
 1003d7c:	e0bffe17 	ldw	r2,-8(fp)
 1003d80:	10800817 	ldw	r2,32(r2)
 1003d84:	e0bffd15 	stw	r2,-12(fp)
 1003d88:	1006ed80 	call	1006ed8 <vTaskEnterCritical>
 1003d8c:	e0bffe17 	ldw	r2,-8(fp)
 1003d90:	10800417 	ldw	r2,16(r2)
 1003d94:	1000171e 	bne	r2,zero,1003df4 <xStreamBufferReset+0x98>
 1003d98:	e0bffe17 	ldw	r2,-8(fp)
 1003d9c:	10800517 	ldw	r2,20(r2)
 1003da0:	1000141e 	bne	r2,zero,1003df4 <xStreamBufferReset+0x98>
 1003da4:	e0bffe17 	ldw	r2,-8(fp)
 1003da8:	10c00617 	ldw	r3,24(r2)
 1003dac:	e0bffe17 	ldw	r2,-8(fp)
 1003db0:	11000217 	ldw	r4,8(r2)
 1003db4:	e0bffe17 	ldw	r2,-8(fp)
 1003db8:	11400317 	ldw	r5,12(r2)
 1003dbc:	e0bffe17 	ldw	r2,-8(fp)
 1003dc0:	10800703 	ldbu	r2,28(r2)
 1003dc4:	10803fcc 	andi	r2,r2,255
 1003dc8:	d8800015 	stw	r2,0(sp)
 1003dcc:	280f883a 	mov	r7,r5
 1003dd0:	200d883a 	mov	r6,r4
 1003dd4:	180b883a 	mov	r5,r3
 1003dd8:	e13ffe17 	ldw	r4,-8(fp)
 1003ddc:	1004aec0 	call	1004aec <prvInitialiseNewStreamBuffer>
 1003de0:	00800044 	movi	r2,1
 1003de4:	e0bfff15 	stw	r2,-4(fp)
 1003de8:	e0bffe17 	ldw	r2,-8(fp)
 1003dec:	e0fffd17 	ldw	r3,-12(fp)
 1003df0:	10c00815 	stw	r3,32(r2)
 1003df4:	1006f2c0 	call	1006f2c <vTaskExitCritical>
 1003df8:	e0bfff17 	ldw	r2,-4(fp)
 1003dfc:	e037883a 	mov	sp,fp
 1003e00:	dfc00117 	ldw	ra,4(sp)
 1003e04:	df000017 	ldw	fp,0(sp)
 1003e08:	dec00204 	addi	sp,sp,8
 1003e0c:	f800283a 	ret

01003e10 <xStreamBufferSetTriggerLevel>:
 1003e10:	defffb04 	addi	sp,sp,-20
 1003e14:	df000415 	stw	fp,16(sp)
 1003e18:	df000404 	addi	fp,sp,16
 1003e1c:	e13ffd15 	stw	r4,-12(fp)
 1003e20:	e17ffc15 	stw	r5,-16(fp)
 1003e24:	e0bffd17 	ldw	r2,-12(fp)
 1003e28:	e0bffe15 	stw	r2,-8(fp)
 1003e2c:	e0bffc17 	ldw	r2,-16(fp)
 1003e30:	1000021e 	bne	r2,zero,1003e3c <xStreamBufferSetTriggerLevel+0x2c>
 1003e34:	00800044 	movi	r2,1
 1003e38:	e0bffc15 	stw	r2,-16(fp)
 1003e3c:	e0bffe17 	ldw	r2,-8(fp)
 1003e40:	10c00217 	ldw	r3,8(r2)
 1003e44:	e0bffc17 	ldw	r2,-16(fp)
 1003e48:	18800636 	bltu	r3,r2,1003e64 <xStreamBufferSetTriggerLevel+0x54>
 1003e4c:	e0bffe17 	ldw	r2,-8(fp)
 1003e50:	e0fffc17 	ldw	r3,-16(fp)
 1003e54:	10c00315 	stw	r3,12(r2)
 1003e58:	00800044 	movi	r2,1
 1003e5c:	e0bfff15 	stw	r2,-4(fp)
 1003e60:	00000106 	br	1003e68 <xStreamBufferSetTriggerLevel+0x58>
 1003e64:	e03fff15 	stw	zero,-4(fp)
 1003e68:	e0bfff17 	ldw	r2,-4(fp)
 1003e6c:	e037883a 	mov	sp,fp
 1003e70:	df000017 	ldw	fp,0(sp)
 1003e74:	dec00104 	addi	sp,sp,4
 1003e78:	f800283a 	ret

01003e7c <xStreamBufferSpacesAvailable>:
 1003e7c:	defffc04 	addi	sp,sp,-16
 1003e80:	df000315 	stw	fp,12(sp)
 1003e84:	df000304 	addi	fp,sp,12
 1003e88:	e13ffd15 	stw	r4,-12(fp)
 1003e8c:	e0bffd17 	ldw	r2,-12(fp)
 1003e90:	e0bffe15 	stw	r2,-8(fp)
 1003e94:	e0bffe17 	ldw	r2,-8(fp)
 1003e98:	10c00217 	ldw	r3,8(r2)
 1003e9c:	e0bffe17 	ldw	r2,-8(fp)
 1003ea0:	10800017 	ldw	r2,0(r2)
 1003ea4:	1885883a 	add	r2,r3,r2
 1003ea8:	e0bfff15 	stw	r2,-4(fp)
 1003eac:	e0bffe17 	ldw	r2,-8(fp)
 1003eb0:	10800117 	ldw	r2,4(r2)
 1003eb4:	e0ffff17 	ldw	r3,-4(fp)
 1003eb8:	1885c83a 	sub	r2,r3,r2
 1003ebc:	e0bfff15 	stw	r2,-4(fp)
 1003ec0:	e0bfff17 	ldw	r2,-4(fp)
 1003ec4:	10bfffc4 	addi	r2,r2,-1
 1003ec8:	e0bfff15 	stw	r2,-4(fp)
 1003ecc:	e0bffe17 	ldw	r2,-8(fp)
 1003ed0:	10800217 	ldw	r2,8(r2)
 1003ed4:	e0ffff17 	ldw	r3,-4(fp)
 1003ed8:	18800536 	bltu	r3,r2,1003ef0 <xStreamBufferSpacesAvailable+0x74>
 1003edc:	e0bffe17 	ldw	r2,-8(fp)
 1003ee0:	10800217 	ldw	r2,8(r2)
 1003ee4:	e0ffff17 	ldw	r3,-4(fp)
 1003ee8:	1885c83a 	sub	r2,r3,r2
 1003eec:	e0bfff15 	stw	r2,-4(fp)
 1003ef0:	e0bfff17 	ldw	r2,-4(fp)
 1003ef4:	e037883a 	mov	sp,fp
 1003ef8:	df000017 	ldw	fp,0(sp)
 1003efc:	dec00104 	addi	sp,sp,4
 1003f00:	f800283a 	ret

01003f04 <xStreamBufferBytesAvailable>:
 1003f04:	defffb04 	addi	sp,sp,-20
 1003f08:	dfc00415 	stw	ra,16(sp)
 1003f0c:	df000315 	stw	fp,12(sp)
 1003f10:	df000304 	addi	fp,sp,12
 1003f14:	e13ffd15 	stw	r4,-12(fp)
 1003f18:	e0bffd17 	ldw	r2,-12(fp)
 1003f1c:	e0bfff15 	stw	r2,-4(fp)
 1003f20:	e13fff17 	ldw	r4,-4(fp)
 1003f24:	1004a780 	call	1004a78 <prvBytesInBuffer>
 1003f28:	e0bffe15 	stw	r2,-8(fp)
 1003f2c:	e0bffe17 	ldw	r2,-8(fp)
 1003f30:	e037883a 	mov	sp,fp
 1003f34:	dfc00117 	ldw	ra,4(sp)
 1003f38:	df000017 	ldw	fp,0(sp)
 1003f3c:	dec00204 	addi	sp,sp,8
 1003f40:	f800283a 	ret

01003f44 <xStreamBufferSend>:
 1003f44:	defff204 	addi	sp,sp,-56
 1003f48:	dfc00d15 	stw	ra,52(sp)
 1003f4c:	df000c15 	stw	fp,48(sp)
 1003f50:	df000c04 	addi	fp,sp,48
 1003f54:	e13ff815 	stw	r4,-32(fp)
 1003f58:	e17ff715 	stw	r5,-36(fp)
 1003f5c:	e1bff615 	stw	r6,-40(fp)
 1003f60:	e1fff515 	stw	r7,-44(fp)
 1003f64:	e0bff817 	ldw	r2,-32(fp)
 1003f68:	e0bffd15 	stw	r2,-12(fp)
 1003f6c:	e03fff15 	stw	zero,-4(fp)
 1003f70:	e0bff617 	ldw	r2,-40(fp)
 1003f74:	e0bffe15 	stw	r2,-8(fp)
 1003f78:	e0bffd17 	ldw	r2,-12(fp)
 1003f7c:	10800217 	ldw	r2,8(r2)
 1003f80:	10bfffc4 	addi	r2,r2,-1
 1003f84:	e0bffc15 	stw	r2,-16(fp)
 1003f88:	e0bffd17 	ldw	r2,-12(fp)
 1003f8c:	10800703 	ldbu	r2,28(r2)
 1003f90:	10803fcc 	andi	r2,r2,255
 1003f94:	1080004c 	andi	r2,r2,1
 1003f98:	10000826 	beq	r2,zero,1003fbc <xStreamBufferSend+0x78>
 1003f9c:	e0bffe17 	ldw	r2,-8(fp)
 1003fa0:	10800104 	addi	r2,r2,4
 1003fa4:	e0bffe15 	stw	r2,-8(fp)
 1003fa8:	e0bffe17 	ldw	r2,-8(fp)
 1003fac:	e0fffc17 	ldw	r3,-16(fp)
 1003fb0:	1880072e 	bgeu	r3,r2,1003fd0 <xStreamBufferSend+0x8c>
 1003fb4:	e03ff515 	stw	zero,-44(fp)
 1003fb8:	00000506 	br	1003fd0 <xStreamBufferSend+0x8c>
 1003fbc:	e0bffe17 	ldw	r2,-8(fp)
 1003fc0:	e0fffc17 	ldw	r3,-16(fp)
 1003fc4:	1880022e 	bgeu	r3,r2,1003fd0 <xStreamBufferSend+0x8c>
 1003fc8:	e0bffc17 	ldw	r2,-16(fp)
 1003fcc:	e0bffe15 	stw	r2,-8(fp)
 1003fd0:	e0bff517 	ldw	r2,-44(fp)
 1003fd4:	10002426 	beq	r2,zero,1004068 <xStreamBufferSend+0x124>
 1003fd8:	e0bff904 	addi	r2,fp,-28
 1003fdc:	1009883a 	mov	r4,r2
 1003fe0:	10063980 	call	1006398 <vTaskSetTimeOutState>
 1003fe4:	1006ed80 	call	1006ed8 <vTaskEnterCritical>
 1003fe8:	e13ffd17 	ldw	r4,-12(fp)
 1003fec:	1003e7c0 	call	1003e7c <xStreamBufferSpacesAvailable>
 1003ff0:	e0bfff15 	stw	r2,-4(fp)
 1003ff4:	e0ffff17 	ldw	r3,-4(fp)
 1003ff8:	e0bffe17 	ldw	r2,-8(fp)
 1003ffc:	1880082e 	bgeu	r3,r2,1004020 <xStreamBufferSend+0xdc>
 1004000:	000b883a 	mov	r5,zero
 1004004:	0009883a 	mov	r4,zero
 1004008:	1007b040 	call	1007b04 <xTaskGenericNotifyStateClear>
 100400c:	1006aec0 	call	1006aec <xTaskGetCurrentTaskHandle>
 1004010:	1007883a 	mov	r3,r2
 1004014:	e0bffd17 	ldw	r2,-12(fp)
 1004018:	10c00515 	stw	r3,20(r2)
 100401c:	00000206 	br	1004028 <xStreamBufferSend+0xe4>
 1004020:	1006f2c0 	call	1006f2c <vTaskExitCritical>
 1004024:	00001006 	br	1004068 <xStreamBufferSend+0x124>
 1004028:	1006f2c0 	call	1006f2c <vTaskExitCritical>
 100402c:	e0bff517 	ldw	r2,-44(fp)
 1004030:	d8800015 	stw	r2,0(sp)
 1004034:	000f883a 	mov	r7,zero
 1004038:	000d883a 	mov	r6,zero
 100403c:	000b883a 	mov	r5,zero
 1004040:	0009883a 	mov	r4,zero
 1004044:	10073a00 	call	10073a0 <xTaskGenericNotifyWait>
 1004048:	e0bffd17 	ldw	r2,-12(fp)
 100404c:	10000515 	stw	zero,20(r2)
 1004050:	e0fff504 	addi	r3,fp,-44
 1004054:	e0bff904 	addi	r2,fp,-28
 1004058:	180b883a 	mov	r5,r3
 100405c:	1009883a 	mov	r4,r2
 1004060:	10064200 	call	1006420 <xTaskCheckForTimeOut>
 1004064:	103fdf26 	beq	r2,zero,1003fe4 <xStreamBufferSend+0xa0>
 1004068:	e0bfff17 	ldw	r2,-4(fp)
 100406c:	1000031e 	bne	r2,zero,100407c <xStreamBufferSend+0x138>
 1004070:	e13ffd17 	ldw	r4,-12(fp)
 1004074:	1003e7c0 	call	1003e7c <xStreamBufferSpacesAvailable>
 1004078:	e0bfff15 	stw	r2,-4(fp)
 100407c:	e0bffe17 	ldw	r2,-8(fp)
 1004080:	d8800015 	stw	r2,0(sp)
 1004084:	e1ffff17 	ldw	r7,-4(fp)
 1004088:	e1bff617 	ldw	r6,-40(fp)
 100408c:	e17ff717 	ldw	r5,-36(fp)
 1004090:	e13ffd17 	ldw	r4,-12(fp)
 1004094:	10042040 	call	1004204 <prvWriteMessageToBuffer>
 1004098:	e0bffb15 	stw	r2,-20(fp)
 100409c:	e0bffb17 	ldw	r2,-20(fp)
 10040a0:	10001526 	beq	r2,zero,10040f8 <xStreamBufferSend+0x1b4>
 10040a4:	e13ffd17 	ldw	r4,-12(fp)
 10040a8:	1004a780 	call	1004a78 <prvBytesInBuffer>
 10040ac:	1007883a 	mov	r3,r2
 10040b0:	e0bffd17 	ldw	r2,-12(fp)
 10040b4:	10800317 	ldw	r2,12(r2)
 10040b8:	18800f36 	bltu	r3,r2,10040f8 <xStreamBufferSend+0x1b4>
 10040bc:	10059e80 	call	10059e8 <vTaskSuspendAll>
 10040c0:	e0bffd17 	ldw	r2,-12(fp)
 10040c4:	10800417 	ldw	r2,16(r2)
 10040c8:	10000a26 	beq	r2,zero,10040f4 <xStreamBufferSend+0x1b0>
 10040cc:	e0bffd17 	ldw	r2,-12(fp)
 10040d0:	10800417 	ldw	r2,16(r2)
 10040d4:	d8000015 	stw	zero,0(sp)
 10040d8:	000f883a 	mov	r7,zero
 10040dc:	000d883a 	mov	r6,zero
 10040e0:	000b883a 	mov	r5,zero
 10040e4:	1009883a 	mov	r4,r2
 10040e8:	10075040 	call	1007504 <xTaskGenericNotify>
 10040ec:	e0bffd17 	ldw	r2,-12(fp)
 10040f0:	10000415 	stw	zero,16(r2)
 10040f4:	1005a140 	call	1005a14 <xTaskResumeAll>
 10040f8:	e0bffb17 	ldw	r2,-20(fp)
 10040fc:	e037883a 	mov	sp,fp
 1004100:	dfc00117 	ldw	ra,4(sp)
 1004104:	df000017 	ldw	fp,0(sp)
 1004108:	dec00204 	addi	sp,sp,8
 100410c:	f800283a 	ret

01004110 <xStreamBufferSendFromISR>:
 1004110:	defff304 	addi	sp,sp,-52
 1004114:	dfc00c15 	stw	ra,48(sp)
 1004118:	df000b15 	stw	fp,44(sp)
 100411c:	df000b04 	addi	fp,sp,44
 1004120:	e13ffa15 	stw	r4,-24(fp)
 1004124:	e17ff915 	stw	r5,-28(fp)
 1004128:	e1bff815 	stw	r6,-32(fp)
 100412c:	e1fff715 	stw	r7,-36(fp)
 1004130:	e0bffa17 	ldw	r2,-24(fp)
 1004134:	e0bffe15 	stw	r2,-8(fp)
 1004138:	e0bff817 	ldw	r2,-32(fp)
 100413c:	e0bfff15 	stw	r2,-4(fp)
 1004140:	e0bffe17 	ldw	r2,-8(fp)
 1004144:	10800703 	ldbu	r2,28(r2)
 1004148:	10803fcc 	andi	r2,r2,255
 100414c:	1080004c 	andi	r2,r2,1
 1004150:	10000326 	beq	r2,zero,1004160 <xStreamBufferSendFromISR+0x50>
 1004154:	e0bfff17 	ldw	r2,-4(fp)
 1004158:	10800104 	addi	r2,r2,4
 100415c:	e0bfff15 	stw	r2,-4(fp)
 1004160:	e13ffe17 	ldw	r4,-8(fp)
 1004164:	1003e7c0 	call	1003e7c <xStreamBufferSpacesAvailable>
 1004168:	e0bffd15 	stw	r2,-12(fp)
 100416c:	e0bfff17 	ldw	r2,-4(fp)
 1004170:	d8800015 	stw	r2,0(sp)
 1004174:	e1fffd17 	ldw	r7,-12(fp)
 1004178:	e1bff817 	ldw	r6,-32(fp)
 100417c:	e17ff917 	ldw	r5,-28(fp)
 1004180:	e13ffe17 	ldw	r4,-8(fp)
 1004184:	10042040 	call	1004204 <prvWriteMessageToBuffer>
 1004188:	e0bffc15 	stw	r2,-16(fp)
 100418c:	e0bffc17 	ldw	r2,-16(fp)
 1004190:	10001626 	beq	r2,zero,10041ec <xStreamBufferSendFromISR+0xdc>
 1004194:	e13ffe17 	ldw	r4,-8(fp)
 1004198:	1004a780 	call	1004a78 <prvBytesInBuffer>
 100419c:	1007883a 	mov	r3,r2
 10041a0:	e0bffe17 	ldw	r2,-8(fp)
 10041a4:	10800317 	ldw	r2,12(r2)
 10041a8:	18801036 	bltu	r3,r2,10041ec <xStreamBufferSendFromISR+0xdc>
 10041ac:	e03ffb15 	stw	zero,-20(fp)
 10041b0:	e0bffe17 	ldw	r2,-8(fp)
 10041b4:	10800417 	ldw	r2,16(r2)
 10041b8:	10000c26 	beq	r2,zero,10041ec <xStreamBufferSendFromISR+0xdc>
 10041bc:	e0bffe17 	ldw	r2,-8(fp)
 10041c0:	10c00417 	ldw	r3,16(r2)
 10041c4:	e0bff717 	ldw	r2,-36(fp)
 10041c8:	d8800115 	stw	r2,4(sp)
 10041cc:	d8000015 	stw	zero,0(sp)
 10041d0:	000f883a 	mov	r7,zero
 10041d4:	000d883a 	mov	r6,zero
 10041d8:	000b883a 	mov	r5,zero
 10041dc:	1809883a 	mov	r4,r3
 10041e0:	10077380 	call	1007738 <xTaskGenericNotifyFromISR>
 10041e4:	e0bffe17 	ldw	r2,-8(fp)
 10041e8:	10000415 	stw	zero,16(r2)
 10041ec:	e0bffc17 	ldw	r2,-16(fp)
 10041f0:	e037883a 	mov	sp,fp
 10041f4:	dfc00117 	ldw	ra,4(sp)
 10041f8:	df000017 	ldw	fp,0(sp)
 10041fc:	dec00204 	addi	sp,sp,8
 1004200:	f800283a 	ret

01004204 <prvWriteMessageToBuffer>:
 1004204:	defff804 	addi	sp,sp,-32
 1004208:	dfc00715 	stw	ra,28(sp)
 100420c:	df000615 	stw	fp,24(sp)
 1004210:	df000604 	addi	fp,sp,24
 1004214:	e13ffd15 	stw	r4,-12(fp)
 1004218:	e17ffc15 	stw	r5,-16(fp)
 100421c:	e1bffb15 	stw	r6,-20(fp)
 1004220:	e1fffa15 	stw	r7,-24(fp)
 1004224:	e0bffa17 	ldw	r2,-24(fp)
 1004228:	1000021e 	bne	r2,zero,1004234 <prvWriteMessageToBuffer+0x30>
 100422c:	e03fff15 	stw	zero,-4(fp)
 1004230:	00001906 	br	1004298 <prvWriteMessageToBuffer+0x94>
 1004234:	e0bffd17 	ldw	r2,-12(fp)
 1004238:	10800703 	ldbu	r2,28(r2)
 100423c:	10803fcc 	andi	r2,r2,255
 1004240:	1080004c 	andi	r2,r2,1
 1004244:	1000081e 	bne	r2,zero,1004268 <prvWriteMessageToBuffer+0x64>
 1004248:	00800044 	movi	r2,1
 100424c:	e0bfff15 	stw	r2,-4(fp)
 1004250:	e0fffb17 	ldw	r3,-20(fp)
 1004254:	e0bffa17 	ldw	r2,-24(fp)
 1004258:	1880012e 	bgeu	r3,r2,1004260 <prvWriteMessageToBuffer+0x5c>
 100425c:	1805883a 	mov	r2,r3
 1004260:	e0bffb15 	stw	r2,-20(fp)
 1004264:	00000c06 	br	1004298 <prvWriteMessageToBuffer+0x94>
 1004268:	e0fffa17 	ldw	r3,-24(fp)
 100426c:	e0800217 	ldw	r2,8(fp)
 1004270:	18800836 	bltu	r3,r2,1004294 <prvWriteMessageToBuffer+0x90>
 1004274:	00800044 	movi	r2,1
 1004278:	e0bfff15 	stw	r2,-4(fp)
 100427c:	e0bffb04 	addi	r2,fp,-20
 1004280:	01800104 	movi	r6,4
 1004284:	100b883a 	mov	r5,r2
 1004288:	e13ffd17 	ldw	r4,-12(fp)
 100428c:	10048700 	call	1004870 <prvWriteBytesToBuffer>
 1004290:	00000106 	br	1004298 <prvWriteMessageToBuffer+0x94>
 1004294:	e03fff15 	stw	zero,-4(fp)
 1004298:	e0bfff17 	ldw	r2,-4(fp)
 100429c:	10000726 	beq	r2,zero,10042bc <prvWriteMessageToBuffer+0xb8>
 10042a0:	e0bffb17 	ldw	r2,-20(fp)
 10042a4:	100d883a 	mov	r6,r2
 10042a8:	e17ffc17 	ldw	r5,-16(fp)
 10042ac:	e13ffd17 	ldw	r4,-12(fp)
 10042b0:	10048700 	call	1004870 <prvWriteBytesToBuffer>
 10042b4:	e0bffe15 	stw	r2,-8(fp)
 10042b8:	00000106 	br	10042c0 <prvWriteMessageToBuffer+0xbc>
 10042bc:	e03ffe15 	stw	zero,-8(fp)
 10042c0:	e0bffe17 	ldw	r2,-8(fp)
 10042c4:	e037883a 	mov	sp,fp
 10042c8:	dfc00117 	ldw	ra,4(sp)
 10042cc:	df000017 	ldw	fp,0(sp)
 10042d0:	dec00204 	addi	sp,sp,8
 10042d4:	f800283a 	ret

010042d8 <xStreamBufferReceive>:
 10042d8:	defff504 	addi	sp,sp,-44
 10042dc:	dfc00a15 	stw	ra,40(sp)
 10042e0:	df000915 	stw	fp,36(sp)
 10042e4:	df000904 	addi	fp,sp,36
 10042e8:	e13ffb15 	stw	r4,-20(fp)
 10042ec:	e17ffa15 	stw	r5,-24(fp)
 10042f0:	e1bff915 	stw	r6,-28(fp)
 10042f4:	e1fff815 	stw	r7,-32(fp)
 10042f8:	e0bffb17 	ldw	r2,-20(fp)
 10042fc:	e0bffc15 	stw	r2,-16(fp)
 1004300:	e03fff15 	stw	zero,-4(fp)
 1004304:	e0bffc17 	ldw	r2,-16(fp)
 1004308:	10800703 	ldbu	r2,28(r2)
 100430c:	10803fcc 	andi	r2,r2,255
 1004310:	1080004c 	andi	r2,r2,1
 1004314:	10000326 	beq	r2,zero,1004324 <xStreamBufferReceive+0x4c>
 1004318:	00800104 	movi	r2,4
 100431c:	e0bffd15 	stw	r2,-12(fp)
 1004320:	00000106 	br	1004328 <xStreamBufferReceive+0x50>
 1004324:	e03ffd15 	stw	zero,-12(fp)
 1004328:	e0bff817 	ldw	r2,-32(fp)
 100432c:	10001f26 	beq	r2,zero,10043ac <xStreamBufferReceive+0xd4>
 1004330:	1006ed80 	call	1006ed8 <vTaskEnterCritical>
 1004334:	e13ffc17 	ldw	r4,-16(fp)
 1004338:	1004a780 	call	1004a78 <prvBytesInBuffer>
 100433c:	e0bffe15 	stw	r2,-8(fp)
 1004340:	e0bffe17 	ldw	r2,-8(fp)
 1004344:	e0fffd17 	ldw	r3,-12(fp)
 1004348:	18800736 	bltu	r3,r2,1004368 <xStreamBufferReceive+0x90>
 100434c:	000b883a 	mov	r5,zero
 1004350:	0009883a 	mov	r4,zero
 1004354:	1007b040 	call	1007b04 <xTaskGenericNotifyStateClear>
 1004358:	1006aec0 	call	1006aec <xTaskGetCurrentTaskHandle>
 100435c:	1007883a 	mov	r3,r2
 1004360:	e0bffc17 	ldw	r2,-16(fp)
 1004364:	10c00415 	stw	r3,16(r2)
 1004368:	1006f2c0 	call	1006f2c <vTaskExitCritical>
 100436c:	e0bffe17 	ldw	r2,-8(fp)
 1004370:	e0fffd17 	ldw	r3,-12(fp)
 1004374:	18801036 	bltu	r3,r2,10043b8 <xStreamBufferReceive+0xe0>
 1004378:	e0bff817 	ldw	r2,-32(fp)
 100437c:	d8800015 	stw	r2,0(sp)
 1004380:	000f883a 	mov	r7,zero
 1004384:	000d883a 	mov	r6,zero
 1004388:	000b883a 	mov	r5,zero
 100438c:	0009883a 	mov	r4,zero
 1004390:	10073a00 	call	10073a0 <xTaskGenericNotifyWait>
 1004394:	e0bffc17 	ldw	r2,-16(fp)
 1004398:	10000415 	stw	zero,16(r2)
 100439c:	e13ffc17 	ldw	r4,-16(fp)
 10043a0:	1004a780 	call	1004a78 <prvBytesInBuffer>
 10043a4:	e0bffe15 	stw	r2,-8(fp)
 10043a8:	00000306 	br	10043b8 <xStreamBufferReceive+0xe0>
 10043ac:	e13ffc17 	ldw	r4,-16(fp)
 10043b0:	1004a780 	call	1004a78 <prvBytesInBuffer>
 10043b4:	e0bffe15 	stw	r2,-8(fp)
 10043b8:	e0bffe17 	ldw	r2,-8(fp)
 10043bc:	e0fffd17 	ldw	r3,-12(fp)
 10043c0:	1880192e 	bgeu	r3,r2,1004428 <xStreamBufferReceive+0x150>
 10043c4:	e0bffd17 	ldw	r2,-12(fp)
 10043c8:	d8800015 	stw	r2,0(sp)
 10043cc:	e1fffe17 	ldw	r7,-8(fp)
 10043d0:	e1bff917 	ldw	r6,-28(fp)
 10043d4:	e17ffa17 	ldw	r5,-24(fp)
 10043d8:	e13ffc17 	ldw	r4,-16(fp)
 10043dc:	10045d00 	call	10045d0 <prvReadMessageFromBuffer>
 10043e0:	e0bfff15 	stw	r2,-4(fp)
 10043e4:	e0bfff17 	ldw	r2,-4(fp)
 10043e8:	10000f26 	beq	r2,zero,1004428 <xStreamBufferReceive+0x150>
 10043ec:	10059e80 	call	10059e8 <vTaskSuspendAll>
 10043f0:	e0bffc17 	ldw	r2,-16(fp)
 10043f4:	10800517 	ldw	r2,20(r2)
 10043f8:	10000a26 	beq	r2,zero,1004424 <xStreamBufferReceive+0x14c>
 10043fc:	e0bffc17 	ldw	r2,-16(fp)
 1004400:	10800517 	ldw	r2,20(r2)
 1004404:	d8000015 	stw	zero,0(sp)
 1004408:	000f883a 	mov	r7,zero
 100440c:	000d883a 	mov	r6,zero
 1004410:	000b883a 	mov	r5,zero
 1004414:	1009883a 	mov	r4,r2
 1004418:	10075040 	call	1007504 <xTaskGenericNotify>
 100441c:	e0bffc17 	ldw	r2,-16(fp)
 1004420:	10000515 	stw	zero,20(r2)
 1004424:	1005a140 	call	1005a14 <xTaskResumeAll>
 1004428:	e0bfff17 	ldw	r2,-4(fp)
 100442c:	e037883a 	mov	sp,fp
 1004430:	dfc00117 	ldw	ra,4(sp)
 1004434:	df000017 	ldw	fp,0(sp)
 1004438:	dec00204 	addi	sp,sp,8
 100443c:	f800283a 	ret

01004440 <xStreamBufferNextMessageLengthBytes>:
 1004440:	defff804 	addi	sp,sp,-32
 1004444:	dfc00715 	stw	ra,28(sp)
 1004448:	df000615 	stw	fp,24(sp)
 100444c:	df000604 	addi	fp,sp,24
 1004450:	e13ffa15 	stw	r4,-24(fp)
 1004454:	e0bffa17 	ldw	r2,-24(fp)
 1004458:	e0bffe15 	stw	r2,-8(fp)
 100445c:	e0bffe17 	ldw	r2,-8(fp)
 1004460:	10800703 	ldbu	r2,28(r2)
 1004464:	10803fcc 	andi	r2,r2,255
 1004468:	1080004c 	andi	r2,r2,1
 100446c:	10001726 	beq	r2,zero,10044cc <xStreamBufferNextMessageLengthBytes+0x8c>
 1004470:	e13ffe17 	ldw	r4,-8(fp)
 1004474:	1004a780 	call	1004a78 <prvBytesInBuffer>
 1004478:	e0bffd15 	stw	r2,-12(fp)
 100447c:	e0bffd17 	ldw	r2,-12(fp)
 1004480:	10800170 	cmpltui	r2,r2,5
 1004484:	10000f1e 	bne	r2,zero,10044c4 <xStreamBufferNextMessageLengthBytes+0x84>
 1004488:	e0bffe17 	ldw	r2,-8(fp)
 100448c:	10800017 	ldw	r2,0(r2)
 1004490:	e0bffc15 	stw	r2,-16(fp)
 1004494:	e0bffb04 	addi	r2,fp,-20
 1004498:	e1fffd17 	ldw	r7,-12(fp)
 100449c:	01800104 	movi	r6,4
 10044a0:	100b883a 	mov	r5,r2
 10044a4:	e13ffe17 	ldw	r4,-8(fp)
 10044a8:	10049640 	call	1004964 <prvReadBytesFromBuffer>
 10044ac:	e0bffb17 	ldw	r2,-20(fp)
 10044b0:	e0bfff15 	stw	r2,-4(fp)
 10044b4:	e0bffe17 	ldw	r2,-8(fp)
 10044b8:	e0fffc17 	ldw	r3,-16(fp)
 10044bc:	10c00015 	stw	r3,0(r2)
 10044c0:	00000306 	br	10044d0 <xStreamBufferNextMessageLengthBytes+0x90>
 10044c4:	e03fff15 	stw	zero,-4(fp)
 10044c8:	00000106 	br	10044d0 <xStreamBufferNextMessageLengthBytes+0x90>
 10044cc:	e03fff15 	stw	zero,-4(fp)
 10044d0:	e0bfff17 	ldw	r2,-4(fp)
 10044d4:	e037883a 	mov	sp,fp
 10044d8:	dfc00117 	ldw	ra,4(sp)
 10044dc:	df000017 	ldw	fp,0(sp)
 10044e0:	dec00204 	addi	sp,sp,8
 10044e4:	f800283a 	ret

010044e8 <xStreamBufferReceiveFromISR>:
 10044e8:	defff304 	addi	sp,sp,-52
 10044ec:	dfc00c15 	stw	ra,48(sp)
 10044f0:	df000b15 	stw	fp,44(sp)
 10044f4:	df000b04 	addi	fp,sp,44
 10044f8:	e13ffa15 	stw	r4,-24(fp)
 10044fc:	e17ff915 	stw	r5,-28(fp)
 1004500:	e1bff815 	stw	r6,-32(fp)
 1004504:	e1fff715 	stw	r7,-36(fp)
 1004508:	e0bffa17 	ldw	r2,-24(fp)
 100450c:	e0bffd15 	stw	r2,-12(fp)
 1004510:	e03fff15 	stw	zero,-4(fp)
 1004514:	e0bffd17 	ldw	r2,-12(fp)
 1004518:	10800703 	ldbu	r2,28(r2)
 100451c:	10803fcc 	andi	r2,r2,255
 1004520:	1080004c 	andi	r2,r2,1
 1004524:	10000326 	beq	r2,zero,1004534 <xStreamBufferReceiveFromISR+0x4c>
 1004528:	00800104 	movi	r2,4
 100452c:	e0bffe15 	stw	r2,-8(fp)
 1004530:	00000106 	br	1004538 <xStreamBufferReceiveFromISR+0x50>
 1004534:	e03ffe15 	stw	zero,-8(fp)
 1004538:	e13ffd17 	ldw	r4,-12(fp)
 100453c:	1004a780 	call	1004a78 <prvBytesInBuffer>
 1004540:	e0bffc15 	stw	r2,-16(fp)
 1004544:	e0bffc17 	ldw	r2,-16(fp)
 1004548:	e0fffe17 	ldw	r3,-8(fp)
 100454c:	18801a2e 	bgeu	r3,r2,10045b8 <xStreamBufferReceiveFromISR+0xd0>
 1004550:	e0bffe17 	ldw	r2,-8(fp)
 1004554:	d8800015 	stw	r2,0(sp)
 1004558:	e1fffc17 	ldw	r7,-16(fp)
 100455c:	e1bff817 	ldw	r6,-32(fp)
 1004560:	e17ff917 	ldw	r5,-28(fp)
 1004564:	e13ffd17 	ldw	r4,-12(fp)
 1004568:	10045d00 	call	10045d0 <prvReadMessageFromBuffer>
 100456c:	e0bfff15 	stw	r2,-4(fp)
 1004570:	e0bfff17 	ldw	r2,-4(fp)
 1004574:	10001026 	beq	r2,zero,10045b8 <xStreamBufferReceiveFromISR+0xd0>
 1004578:	e03ffb15 	stw	zero,-20(fp)
 100457c:	e0bffd17 	ldw	r2,-12(fp)
 1004580:	10800517 	ldw	r2,20(r2)
 1004584:	10000c26 	beq	r2,zero,10045b8 <xStreamBufferReceiveFromISR+0xd0>
 1004588:	e0bffd17 	ldw	r2,-12(fp)
 100458c:	10c00517 	ldw	r3,20(r2)
 1004590:	e0bff717 	ldw	r2,-36(fp)
 1004594:	d8800115 	stw	r2,4(sp)
 1004598:	d8000015 	stw	zero,0(sp)
 100459c:	000f883a 	mov	r7,zero
 10045a0:	000d883a 	mov	r6,zero
 10045a4:	000b883a 	mov	r5,zero
 10045a8:	1809883a 	mov	r4,r3
 10045ac:	10077380 	call	1007738 <xTaskGenericNotifyFromISR>
 10045b0:	e0bffd17 	ldw	r2,-12(fp)
 10045b4:	10000515 	stw	zero,20(r2)
 10045b8:	e0bfff17 	ldw	r2,-4(fp)
 10045bc:	e037883a 	mov	sp,fp
 10045c0:	dfc00117 	ldw	ra,4(sp)
 10045c4:	df000017 	ldw	fp,0(sp)
 10045c8:	dec00204 	addi	sp,sp,8
 10045cc:	f800283a 	ret

010045d0 <prvReadMessageFromBuffer>:
 10045d0:	defff604 	addi	sp,sp,-40
 10045d4:	dfc00915 	stw	ra,36(sp)
 10045d8:	df000815 	stw	fp,32(sp)
 10045dc:	df000804 	addi	fp,sp,32
 10045e0:	e13ffb15 	stw	r4,-20(fp)
 10045e4:	e17ffa15 	stw	r5,-24(fp)
 10045e8:	e1bff915 	stw	r6,-28(fp)
 10045ec:	e1fff815 	stw	r7,-32(fp)
 10045f0:	e0800217 	ldw	r2,8(fp)
 10045f4:	10001726 	beq	r2,zero,1004654 <prvReadMessageFromBuffer+0x84>
 10045f8:	e0bffb17 	ldw	r2,-20(fp)
 10045fc:	10800017 	ldw	r2,0(r2)
 1004600:	e0bffe15 	stw	r2,-8(fp)
 1004604:	e0bffc04 	addi	r2,fp,-16
 1004608:	e1fff817 	ldw	r7,-32(fp)
 100460c:	e1800217 	ldw	r6,8(fp)
 1004610:	100b883a 	mov	r5,r2
 1004614:	e13ffb17 	ldw	r4,-20(fp)
 1004618:	10049640 	call	1004964 <prvReadBytesFromBuffer>
 100461c:	e0bffc17 	ldw	r2,-16(fp)
 1004620:	e0bfff15 	stw	r2,-4(fp)
 1004624:	e0fff817 	ldw	r3,-32(fp)
 1004628:	e0800217 	ldw	r2,8(fp)
 100462c:	1885c83a 	sub	r2,r3,r2
 1004630:	e0bff815 	stw	r2,-32(fp)
 1004634:	e0bfff17 	ldw	r2,-4(fp)
 1004638:	e0fff917 	ldw	r3,-28(fp)
 100463c:	1880072e 	bgeu	r3,r2,100465c <prvReadMessageFromBuffer+0x8c>
 1004640:	e0bffb17 	ldw	r2,-20(fp)
 1004644:	e0fffe17 	ldw	r3,-8(fp)
 1004648:	10c00015 	stw	r3,0(r2)
 100464c:	e03fff15 	stw	zero,-4(fp)
 1004650:	00000206 	br	100465c <prvReadMessageFromBuffer+0x8c>
 1004654:	e0bff917 	ldw	r2,-28(fp)
 1004658:	e0bfff15 	stw	r2,-4(fp)
 100465c:	e1fff817 	ldw	r7,-32(fp)
 1004660:	e1bfff17 	ldw	r6,-4(fp)
 1004664:	e17ffa17 	ldw	r5,-24(fp)
 1004668:	e13ffb17 	ldw	r4,-20(fp)
 100466c:	10049640 	call	1004964 <prvReadBytesFromBuffer>
 1004670:	e0bffd15 	stw	r2,-12(fp)
 1004674:	e0bffd17 	ldw	r2,-12(fp)
 1004678:	e037883a 	mov	sp,fp
 100467c:	dfc00117 	ldw	ra,4(sp)
 1004680:	df000017 	ldw	fp,0(sp)
 1004684:	dec00204 	addi	sp,sp,8
 1004688:	f800283a 	ret

0100468c <xStreamBufferIsEmpty>:
 100468c:	defffb04 	addi	sp,sp,-20
 1004690:	df000415 	stw	fp,16(sp)
 1004694:	df000404 	addi	fp,sp,16
 1004698:	e13ffc15 	stw	r4,-16(fp)
 100469c:	e0bffc17 	ldw	r2,-16(fp)
 10046a0:	e0bffe15 	stw	r2,-8(fp)
 10046a4:	e0bffe17 	ldw	r2,-8(fp)
 10046a8:	10800017 	ldw	r2,0(r2)
 10046ac:	e0bffd15 	stw	r2,-12(fp)
 10046b0:	e0bffe17 	ldw	r2,-8(fp)
 10046b4:	10800117 	ldw	r2,4(r2)
 10046b8:	e0fffd17 	ldw	r3,-12(fp)
 10046bc:	1880031e 	bne	r3,r2,10046cc <xStreamBufferIsEmpty+0x40>
 10046c0:	00800044 	movi	r2,1
 10046c4:	e0bfff15 	stw	r2,-4(fp)
 10046c8:	00000106 	br	10046d0 <xStreamBufferIsEmpty+0x44>
 10046cc:	e03fff15 	stw	zero,-4(fp)
 10046d0:	e0bfff17 	ldw	r2,-4(fp)
 10046d4:	e037883a 	mov	sp,fp
 10046d8:	df000017 	ldw	fp,0(sp)
 10046dc:	dec00104 	addi	sp,sp,4
 10046e0:	f800283a 	ret

010046e4 <xStreamBufferIsFull>:
 10046e4:	defffa04 	addi	sp,sp,-24
 10046e8:	dfc00515 	stw	ra,20(sp)
 10046ec:	df000415 	stw	fp,16(sp)
 10046f0:	df000404 	addi	fp,sp,16
 10046f4:	e13ffc15 	stw	r4,-16(fp)
 10046f8:	e0bffc17 	ldw	r2,-16(fp)
 10046fc:	e0bffd15 	stw	r2,-12(fp)
 1004700:	e0bffd17 	ldw	r2,-12(fp)
 1004704:	10800703 	ldbu	r2,28(r2)
 1004708:	10803fcc 	andi	r2,r2,255
 100470c:	1080004c 	andi	r2,r2,1
 1004710:	10000326 	beq	r2,zero,1004720 <xStreamBufferIsFull+0x3c>
 1004714:	00800104 	movi	r2,4
 1004718:	e0bffe15 	stw	r2,-8(fp)
 100471c:	00000106 	br	1004724 <xStreamBufferIsFull+0x40>
 1004720:	e03ffe15 	stw	zero,-8(fp)
 1004724:	e13ffc17 	ldw	r4,-16(fp)
 1004728:	1003e7c0 	call	1003e7c <xStreamBufferSpacesAvailable>
 100472c:	1007883a 	mov	r3,r2
 1004730:	e0bffe17 	ldw	r2,-8(fp)
 1004734:	10c00336 	bltu	r2,r3,1004744 <xStreamBufferIsFull+0x60>
 1004738:	00800044 	movi	r2,1
 100473c:	e0bfff15 	stw	r2,-4(fp)
 1004740:	00000106 	br	1004748 <xStreamBufferIsFull+0x64>
 1004744:	e03fff15 	stw	zero,-4(fp)
 1004748:	e0bfff17 	ldw	r2,-4(fp)
 100474c:	e037883a 	mov	sp,fp
 1004750:	dfc00117 	ldw	ra,4(sp)
 1004754:	df000017 	ldw	fp,0(sp)
 1004758:	dec00204 	addi	sp,sp,8
 100475c:	f800283a 	ret

01004760 <xStreamBufferSendCompletedFromISR>:
 1004760:	defff704 	addi	sp,sp,-36
 1004764:	dfc00815 	stw	ra,32(sp)
 1004768:	df000715 	stw	fp,28(sp)
 100476c:	df000704 	addi	fp,sp,28
 1004770:	e13ffc15 	stw	r4,-16(fp)
 1004774:	e17ffb15 	stw	r5,-20(fp)
 1004778:	e0bffc17 	ldw	r2,-16(fp)
 100477c:	e0bffe15 	stw	r2,-8(fp)
 1004780:	e03ffd15 	stw	zero,-12(fp)
 1004784:	e0bffe17 	ldw	r2,-8(fp)
 1004788:	10800417 	ldw	r2,16(r2)
 100478c:	10000f26 	beq	r2,zero,10047cc <xStreamBufferSendCompletedFromISR+0x6c>
 1004790:	e0bffe17 	ldw	r2,-8(fp)
 1004794:	10c00417 	ldw	r3,16(r2)
 1004798:	e0bffb17 	ldw	r2,-20(fp)
 100479c:	d8800115 	stw	r2,4(sp)
 10047a0:	d8000015 	stw	zero,0(sp)
 10047a4:	000f883a 	mov	r7,zero
 10047a8:	000d883a 	mov	r6,zero
 10047ac:	000b883a 	mov	r5,zero
 10047b0:	1809883a 	mov	r4,r3
 10047b4:	10077380 	call	1007738 <xTaskGenericNotifyFromISR>
 10047b8:	e0bffe17 	ldw	r2,-8(fp)
 10047bc:	10000415 	stw	zero,16(r2)
 10047c0:	00800044 	movi	r2,1
 10047c4:	e0bfff15 	stw	r2,-4(fp)
 10047c8:	00000106 	br	10047d0 <xStreamBufferSendCompletedFromISR+0x70>
 10047cc:	e03fff15 	stw	zero,-4(fp)
 10047d0:	e0bfff17 	ldw	r2,-4(fp)
 10047d4:	e037883a 	mov	sp,fp
 10047d8:	dfc00117 	ldw	ra,4(sp)
 10047dc:	df000017 	ldw	fp,0(sp)
 10047e0:	dec00204 	addi	sp,sp,8
 10047e4:	f800283a 	ret

010047e8 <xStreamBufferReceiveCompletedFromISR>:
 10047e8:	defff704 	addi	sp,sp,-36
 10047ec:	dfc00815 	stw	ra,32(sp)
 10047f0:	df000715 	stw	fp,28(sp)
 10047f4:	df000704 	addi	fp,sp,28
 10047f8:	e13ffc15 	stw	r4,-16(fp)
 10047fc:	e17ffb15 	stw	r5,-20(fp)
 1004800:	e0bffc17 	ldw	r2,-16(fp)
 1004804:	e0bffe15 	stw	r2,-8(fp)
 1004808:	e03ffd15 	stw	zero,-12(fp)
 100480c:	e0bffe17 	ldw	r2,-8(fp)
 1004810:	10800517 	ldw	r2,20(r2)
 1004814:	10000f26 	beq	r2,zero,1004854 <xStreamBufferReceiveCompletedFromISR+0x6c>
 1004818:	e0bffe17 	ldw	r2,-8(fp)
 100481c:	10c00517 	ldw	r3,20(r2)
 1004820:	e0bffb17 	ldw	r2,-20(fp)
 1004824:	d8800115 	stw	r2,4(sp)
 1004828:	d8000015 	stw	zero,0(sp)
 100482c:	000f883a 	mov	r7,zero
 1004830:	000d883a 	mov	r6,zero
 1004834:	000b883a 	mov	r5,zero
 1004838:	1809883a 	mov	r4,r3
 100483c:	10077380 	call	1007738 <xTaskGenericNotifyFromISR>
 1004840:	e0bffe17 	ldw	r2,-8(fp)
 1004844:	10000515 	stw	zero,20(r2)
 1004848:	00800044 	movi	r2,1
 100484c:	e0bfff15 	stw	r2,-4(fp)
 1004850:	00000106 	br	1004858 <xStreamBufferReceiveCompletedFromISR+0x70>
 1004854:	e03fff15 	stw	zero,-4(fp)
 1004858:	e0bfff17 	ldw	r2,-4(fp)
 100485c:	e037883a 	mov	sp,fp
 1004860:	dfc00117 	ldw	ra,4(sp)
 1004864:	df000017 	ldw	fp,0(sp)
 1004868:	dec00204 	addi	sp,sp,8
 100486c:	f800283a 	ret

01004870 <prvWriteBytesToBuffer>:
 1004870:	defff904 	addi	sp,sp,-28
 1004874:	dfc00615 	stw	ra,24(sp)
 1004878:	df000515 	stw	fp,20(sp)
 100487c:	df000504 	addi	fp,sp,20
 1004880:	e13ffd15 	stw	r4,-12(fp)
 1004884:	e17ffc15 	stw	r5,-16(fp)
 1004888:	e1bffb15 	stw	r6,-20(fp)
 100488c:	e0bffd17 	ldw	r2,-12(fp)
 1004890:	10800117 	ldw	r2,4(r2)
 1004894:	e0bfff15 	stw	r2,-4(fp)
 1004898:	e0bffd17 	ldw	r2,-12(fp)
 100489c:	10c00217 	ldw	r3,8(r2)
 10048a0:	e0bfff17 	ldw	r2,-4(fp)
 10048a4:	1887c83a 	sub	r3,r3,r2
 10048a8:	e0bffb17 	ldw	r2,-20(fp)
 10048ac:	1880012e 	bgeu	r3,r2,10048b4 <prvWriteBytesToBuffer+0x44>
 10048b0:	1805883a 	mov	r2,r3
 10048b4:	e0bffe15 	stw	r2,-8(fp)
 10048b8:	e0bffd17 	ldw	r2,-12(fp)
 10048bc:	10c00617 	ldw	r3,24(r2)
 10048c0:	e0bfff17 	ldw	r2,-4(fp)
 10048c4:	1885883a 	add	r2,r3,r2
 10048c8:	e1bffe17 	ldw	r6,-8(fp)
 10048cc:	e17ffc17 	ldw	r5,-16(fp)
 10048d0:	1009883a 	mov	r4,r2
 10048d4:	10187e40 	call	10187e4 <memcpy>
 10048d8:	e0bffb17 	ldw	r2,-20(fp)
 10048dc:	e0fffe17 	ldw	r3,-8(fp)
 10048e0:	18800a2e 	bgeu	r3,r2,100490c <prvWriteBytesToBuffer+0x9c>
 10048e4:	e0bffd17 	ldw	r2,-12(fp)
 10048e8:	11000617 	ldw	r4,24(r2)
 10048ec:	e0fffc17 	ldw	r3,-16(fp)
 10048f0:	e0bffe17 	ldw	r2,-8(fp)
 10048f4:	188b883a 	add	r5,r3,r2
 10048f8:	e0fffb17 	ldw	r3,-20(fp)
 10048fc:	e0bffe17 	ldw	r2,-8(fp)
 1004900:	1885c83a 	sub	r2,r3,r2
 1004904:	100d883a 	mov	r6,r2
 1004908:	10187e40 	call	10187e4 <memcpy>
 100490c:	e0ffff17 	ldw	r3,-4(fp)
 1004910:	e0bffb17 	ldw	r2,-20(fp)
 1004914:	1885883a 	add	r2,r3,r2
 1004918:	e0bfff15 	stw	r2,-4(fp)
 100491c:	e0bffd17 	ldw	r2,-12(fp)
 1004920:	10800217 	ldw	r2,8(r2)
 1004924:	e0ffff17 	ldw	r3,-4(fp)
 1004928:	18800536 	bltu	r3,r2,1004940 <prvWriteBytesToBuffer+0xd0>
 100492c:	e0bffd17 	ldw	r2,-12(fp)
 1004930:	10800217 	ldw	r2,8(r2)
 1004934:	e0ffff17 	ldw	r3,-4(fp)
 1004938:	1885c83a 	sub	r2,r3,r2
 100493c:	e0bfff15 	stw	r2,-4(fp)
 1004940:	e0bffd17 	ldw	r2,-12(fp)
 1004944:	e0ffff17 	ldw	r3,-4(fp)
 1004948:	10c00115 	stw	r3,4(r2)
 100494c:	e0bffb17 	ldw	r2,-20(fp)
 1004950:	e037883a 	mov	sp,fp
 1004954:	dfc00117 	ldw	ra,4(sp)
 1004958:	df000017 	ldw	fp,0(sp)
 100495c:	dec00204 	addi	sp,sp,8
 1004960:	f800283a 	ret

01004964 <prvReadBytesFromBuffer>:
 1004964:	defff704 	addi	sp,sp,-36
 1004968:	dfc00815 	stw	ra,32(sp)
 100496c:	df000715 	stw	fp,28(sp)
 1004970:	df000704 	addi	fp,sp,28
 1004974:	e13ffc15 	stw	r4,-16(fp)
 1004978:	e17ffb15 	stw	r5,-20(fp)
 100497c:	e1bffa15 	stw	r6,-24(fp)
 1004980:	e1fff915 	stw	r7,-28(fp)
 1004984:	e0fff917 	ldw	r3,-28(fp)
 1004988:	e0bffa17 	ldw	r2,-24(fp)
 100498c:	1880012e 	bgeu	r3,r2,1004994 <prvReadBytesFromBuffer+0x30>
 1004990:	1805883a 	mov	r2,r3
 1004994:	e0bffe15 	stw	r2,-8(fp)
 1004998:	e0bffe17 	ldw	r2,-8(fp)
 100499c:	10003026 	beq	r2,zero,1004a60 <prvReadBytesFromBuffer+0xfc>
 10049a0:	e0bffc17 	ldw	r2,-16(fp)
 10049a4:	10800017 	ldw	r2,0(r2)
 10049a8:	e0bfff15 	stw	r2,-4(fp)
 10049ac:	e0bffc17 	ldw	r2,-16(fp)
 10049b0:	10c00217 	ldw	r3,8(r2)
 10049b4:	e0bfff17 	ldw	r2,-4(fp)
 10049b8:	1887c83a 	sub	r3,r3,r2
 10049bc:	e0bffe17 	ldw	r2,-8(fp)
 10049c0:	1880012e 	bgeu	r3,r2,10049c8 <prvReadBytesFromBuffer+0x64>
 10049c4:	1805883a 	mov	r2,r3
 10049c8:	e0bffd15 	stw	r2,-12(fp)
 10049cc:	e0bffc17 	ldw	r2,-16(fp)
 10049d0:	10c00617 	ldw	r3,24(r2)
 10049d4:	e0bfff17 	ldw	r2,-4(fp)
 10049d8:	1885883a 	add	r2,r3,r2
 10049dc:	e1bffd17 	ldw	r6,-12(fp)
 10049e0:	100b883a 	mov	r5,r2
 10049e4:	e13ffb17 	ldw	r4,-20(fp)
 10049e8:	10187e40 	call	10187e4 <memcpy>
 10049ec:	e0bffe17 	ldw	r2,-8(fp)
 10049f0:	e0fffd17 	ldw	r3,-12(fp)
 10049f4:	18800a2e 	bgeu	r3,r2,1004a20 <prvReadBytesFromBuffer+0xbc>
 10049f8:	e0fffb17 	ldw	r3,-20(fp)
 10049fc:	e0bffd17 	ldw	r2,-12(fp)
 1004a00:	1889883a 	add	r4,r3,r2
 1004a04:	e0bffc17 	ldw	r2,-16(fp)
 1004a08:	11400617 	ldw	r5,24(r2)
 1004a0c:	e0fffe17 	ldw	r3,-8(fp)
 1004a10:	e0bffd17 	ldw	r2,-12(fp)
 1004a14:	1885c83a 	sub	r2,r3,r2
 1004a18:	100d883a 	mov	r6,r2
 1004a1c:	10187e40 	call	10187e4 <memcpy>
 1004a20:	e0ffff17 	ldw	r3,-4(fp)
 1004a24:	e0bffe17 	ldw	r2,-8(fp)
 1004a28:	1885883a 	add	r2,r3,r2
 1004a2c:	e0bfff15 	stw	r2,-4(fp)
 1004a30:	e0bffc17 	ldw	r2,-16(fp)
 1004a34:	10800217 	ldw	r2,8(r2)
 1004a38:	e0ffff17 	ldw	r3,-4(fp)
 1004a3c:	18800536 	bltu	r3,r2,1004a54 <prvReadBytesFromBuffer+0xf0>
 1004a40:	e0bffc17 	ldw	r2,-16(fp)
 1004a44:	10800217 	ldw	r2,8(r2)
 1004a48:	e0ffff17 	ldw	r3,-4(fp)
 1004a4c:	1885c83a 	sub	r2,r3,r2
 1004a50:	e0bfff15 	stw	r2,-4(fp)
 1004a54:	e0bffc17 	ldw	r2,-16(fp)
 1004a58:	e0ffff17 	ldw	r3,-4(fp)
 1004a5c:	10c00015 	stw	r3,0(r2)
 1004a60:	e0bffe17 	ldw	r2,-8(fp)
 1004a64:	e037883a 	mov	sp,fp
 1004a68:	dfc00117 	ldw	ra,4(sp)
 1004a6c:	df000017 	ldw	fp,0(sp)
 1004a70:	dec00204 	addi	sp,sp,8
 1004a74:	f800283a 	ret

01004a78 <prvBytesInBuffer>:
 1004a78:	defffd04 	addi	sp,sp,-12
 1004a7c:	df000215 	stw	fp,8(sp)
 1004a80:	df000204 	addi	fp,sp,8
 1004a84:	e13ffe15 	stw	r4,-8(fp)
 1004a88:	e0bffe17 	ldw	r2,-8(fp)
 1004a8c:	10c00217 	ldw	r3,8(r2)
 1004a90:	e0bffe17 	ldw	r2,-8(fp)
 1004a94:	10800117 	ldw	r2,4(r2)
 1004a98:	1885883a 	add	r2,r3,r2
 1004a9c:	e0bfff15 	stw	r2,-4(fp)
 1004aa0:	e0bffe17 	ldw	r2,-8(fp)
 1004aa4:	10800017 	ldw	r2,0(r2)
 1004aa8:	e0ffff17 	ldw	r3,-4(fp)
 1004aac:	1885c83a 	sub	r2,r3,r2
 1004ab0:	e0bfff15 	stw	r2,-4(fp)
 1004ab4:	e0bffe17 	ldw	r2,-8(fp)
 1004ab8:	10800217 	ldw	r2,8(r2)
 1004abc:	e0ffff17 	ldw	r3,-4(fp)
 1004ac0:	18800536 	bltu	r3,r2,1004ad8 <prvBytesInBuffer+0x60>
 1004ac4:	e0bffe17 	ldw	r2,-8(fp)
 1004ac8:	10800217 	ldw	r2,8(r2)
 1004acc:	e0ffff17 	ldw	r3,-4(fp)
 1004ad0:	1885c83a 	sub	r2,r3,r2
 1004ad4:	e0bfff15 	stw	r2,-4(fp)
 1004ad8:	e0bfff17 	ldw	r2,-4(fp)
 1004adc:	e037883a 	mov	sp,fp
 1004ae0:	df000017 	ldw	fp,0(sp)
 1004ae4:	dec00104 	addi	sp,sp,4
 1004ae8:	f800283a 	ret

01004aec <prvInitialiseNewStreamBuffer>:
 1004aec:	defff904 	addi	sp,sp,-28
 1004af0:	dfc00615 	stw	ra,24(sp)
 1004af4:	df000515 	stw	fp,20(sp)
 1004af8:	df000504 	addi	fp,sp,20
 1004afc:	e13fff15 	stw	r4,-4(fp)
 1004b00:	e17ffe15 	stw	r5,-8(fp)
 1004b04:	e1bffd15 	stw	r6,-12(fp)
 1004b08:	e1fffc15 	stw	r7,-16(fp)
 1004b0c:	e0800217 	ldw	r2,8(fp)
 1004b10:	e0bffb05 	stb	r2,-20(fp)
 1004b14:	01800904 	movi	r6,36
 1004b18:	000b883a 	mov	r5,zero
 1004b1c:	e13fff17 	ldw	r4,-4(fp)
 1004b20:	1018a100 	call	1018a10 <memset>
 1004b24:	e0bfff17 	ldw	r2,-4(fp)
 1004b28:	e0fffe17 	ldw	r3,-8(fp)
 1004b2c:	10c00615 	stw	r3,24(r2)
 1004b30:	e0bfff17 	ldw	r2,-4(fp)
 1004b34:	e0fffd17 	ldw	r3,-12(fp)
 1004b38:	10c00215 	stw	r3,8(r2)
 1004b3c:	e0bfff17 	ldw	r2,-4(fp)
 1004b40:	e0fffc17 	ldw	r3,-16(fp)
 1004b44:	10c00315 	stw	r3,12(r2)
 1004b48:	e0bfff17 	ldw	r2,-4(fp)
 1004b4c:	e0fffb03 	ldbu	r3,-20(fp)
 1004b50:	10c00705 	stb	r3,28(r2)
 1004b54:	0001883a 	nop
 1004b58:	e037883a 	mov	sp,fp
 1004b5c:	dfc00117 	ldw	ra,4(sp)
 1004b60:	df000017 	ldw	fp,0(sp)
 1004b64:	dec00204 	addi	sp,sp,8
 1004b68:	f800283a 	ret

01004b6c <uxStreamBufferGetStreamBufferNumber>:
 1004b6c:	defffe04 	addi	sp,sp,-8
 1004b70:	df000115 	stw	fp,4(sp)
 1004b74:	df000104 	addi	fp,sp,4
 1004b78:	e13fff15 	stw	r4,-4(fp)
 1004b7c:	e0bfff17 	ldw	r2,-4(fp)
 1004b80:	10800817 	ldw	r2,32(r2)
 1004b84:	e037883a 	mov	sp,fp
 1004b88:	df000017 	ldw	fp,0(sp)
 1004b8c:	dec00104 	addi	sp,sp,4
 1004b90:	f800283a 	ret

01004b94 <vStreamBufferSetStreamBufferNumber>:
 1004b94:	defffd04 	addi	sp,sp,-12
 1004b98:	df000215 	stw	fp,8(sp)
 1004b9c:	df000204 	addi	fp,sp,8
 1004ba0:	e13fff15 	stw	r4,-4(fp)
 1004ba4:	e17ffe15 	stw	r5,-8(fp)
 1004ba8:	e0bfff17 	ldw	r2,-4(fp)
 1004bac:	e0fffe17 	ldw	r3,-8(fp)
 1004bb0:	10c00815 	stw	r3,32(r2)
 1004bb4:	0001883a 	nop
 1004bb8:	e037883a 	mov	sp,fp
 1004bbc:	df000017 	ldw	fp,0(sp)
 1004bc0:	dec00104 	addi	sp,sp,4
 1004bc4:	f800283a 	ret

01004bc8 <ucStreamBufferGetStreamBufferType>:
 1004bc8:	defffe04 	addi	sp,sp,-8
 1004bcc:	df000115 	stw	fp,4(sp)
 1004bd0:	df000104 	addi	fp,sp,4
 1004bd4:	e13fff15 	stw	r4,-4(fp)
 1004bd8:	e0bfff17 	ldw	r2,-4(fp)
 1004bdc:	10800703 	ldbu	r2,28(r2)
 1004be0:	1080004c 	andi	r2,r2,1
 1004be4:	e037883a 	mov	sp,fp
 1004be8:	df000017 	ldw	fp,0(sp)
 1004bec:	dec00104 	addi	sp,sp,4
 1004bf0:	f800283a 	ret

01004bf4 <xTaskCreate>:
 1004bf4:	defff304 	addi	sp,sp,-52
 1004bf8:	dfc00c15 	stw	ra,48(sp)
 1004bfc:	df000b15 	stw	fp,44(sp)
 1004c00:	df000b04 	addi	fp,sp,44
 1004c04:	e13ffc15 	stw	r4,-16(fp)
 1004c08:	e17ffb15 	stw	r5,-20(fp)
 1004c0c:	3005883a 	mov	r2,r6
 1004c10:	e1fff915 	stw	r7,-28(fp)
 1004c14:	e0bffa0d 	sth	r2,-24(fp)
 1004c18:	e0bffa0b 	ldhu	r2,-24(fp)
 1004c1c:	100490ba 	slli	r2,r2,2
 1004c20:	1009883a 	mov	r4,r2
 1004c24:	1017a480 	call	1017a48 <pvPortMalloc>
 1004c28:	e0bffd15 	stw	r2,-12(fp)
 1004c2c:	e0bffd17 	ldw	r2,-12(fp)
 1004c30:	10000c26 	beq	r2,zero,1004c64 <xTaskCreate+0x70>
 1004c34:	01001604 	movi	r4,88
 1004c38:	1017a480 	call	1017a48 <pvPortMalloc>
 1004c3c:	e0bfff15 	stw	r2,-4(fp)
 1004c40:	e0bfff17 	ldw	r2,-4(fp)
 1004c44:	10000426 	beq	r2,zero,1004c58 <xTaskCreate+0x64>
 1004c48:	e0bfff17 	ldw	r2,-4(fp)
 1004c4c:	e0fffd17 	ldw	r3,-12(fp)
 1004c50:	10c00c15 	stw	r3,48(r2)
 1004c54:	00000406 	br	1004c68 <xTaskCreate+0x74>
 1004c58:	e13ffd17 	ldw	r4,-12(fp)
 1004c5c:	1017c500 	call	1017c50 <vPortFree>
 1004c60:	00000106 	br	1004c68 <xTaskCreate+0x74>
 1004c64:	e03fff15 	stw	zero,-4(fp)
 1004c68:	e0bfff17 	ldw	r2,-4(fp)
 1004c6c:	10001226 	beq	r2,zero,1004cb8 <xTaskCreate+0xc4>
 1004c70:	e0fffa0b 	ldhu	r3,-24(fp)
 1004c74:	d8000315 	stw	zero,12(sp)
 1004c78:	e0bfff17 	ldw	r2,-4(fp)
 1004c7c:	d8800215 	stw	r2,8(sp)
 1004c80:	e0800317 	ldw	r2,12(fp)
 1004c84:	d8800115 	stw	r2,4(sp)
 1004c88:	e0800217 	ldw	r2,8(fp)
 1004c8c:	d8800015 	stw	r2,0(sp)
 1004c90:	e1fff917 	ldw	r7,-28(fp)
 1004c94:	180d883a 	mov	r6,r3
 1004c98:	e17ffb17 	ldw	r5,-20(fp)
 1004c9c:	e13ffc17 	ldw	r4,-16(fp)
 1004ca0:	1004cd80 	call	1004cd8 <prvInitialiseNewTask>
 1004ca4:	e13fff17 	ldw	r4,-4(fp)
 1004ca8:	1004ed00 	call	1004ed0 <prvAddNewTaskToReadyList>
 1004cac:	00800044 	movi	r2,1
 1004cb0:	e0bffe15 	stw	r2,-8(fp)
 1004cb4:	00000206 	br	1004cc0 <xTaskCreate+0xcc>
 1004cb8:	00bfffc4 	movi	r2,-1
 1004cbc:	e0bffe15 	stw	r2,-8(fp)
 1004cc0:	e0bffe17 	ldw	r2,-8(fp)
 1004cc4:	e037883a 	mov	sp,fp
 1004cc8:	dfc00117 	ldw	ra,4(sp)
 1004ccc:	df000017 	ldw	fp,0(sp)
 1004cd0:	dec00204 	addi	sp,sp,8
 1004cd4:	f800283a 	ret

01004cd8 <prvInitialiseNewTask>:
 1004cd8:	defff804 	addi	sp,sp,-32
 1004cdc:	dfc00715 	stw	ra,28(sp)
 1004ce0:	df000615 	stw	fp,24(sp)
 1004ce4:	df000604 	addi	fp,sp,24
 1004ce8:	e13ffd15 	stw	r4,-12(fp)
 1004cec:	e17ffc15 	stw	r5,-16(fp)
 1004cf0:	e1bffb15 	stw	r6,-20(fp)
 1004cf4:	e1fffa15 	stw	r7,-24(fp)
 1004cf8:	e0800417 	ldw	r2,16(fp)
 1004cfc:	10c00c17 	ldw	r3,48(r2)
 1004d00:	e0bffb17 	ldw	r2,-20(fp)
 1004d04:	100490ba 	slli	r2,r2,2
 1004d08:	100d883a 	mov	r6,r2
 1004d0c:	01402944 	movi	r5,165
 1004d10:	1809883a 	mov	r4,r3
 1004d14:	1018a100 	call	1018a10 <memset>
 1004d18:	e0800417 	ldw	r2,16(fp)
 1004d1c:	10c00c17 	ldw	r3,48(r2)
 1004d20:	e13ffb17 	ldw	r4,-20(fp)
 1004d24:	00900034 	movhi	r2,16384
 1004d28:	10bfffc4 	addi	r2,r2,-1
 1004d2c:	2085883a 	add	r2,r4,r2
 1004d30:	100490ba 	slli	r2,r2,2
 1004d34:	1885883a 	add	r2,r3,r2
 1004d38:	e0bffe15 	stw	r2,-8(fp)
 1004d3c:	e0fffe17 	ldw	r3,-8(fp)
 1004d40:	00bfff04 	movi	r2,-4
 1004d44:	1884703a 	and	r2,r3,r2
 1004d48:	e0bffe15 	stw	r2,-8(fp)
 1004d4c:	e0bffc17 	ldw	r2,-16(fp)
 1004d50:	10001d26 	beq	r2,zero,1004dc8 <prvInitialiseNewTask+0xf0>
 1004d54:	e03fff15 	stw	zero,-4(fp)
 1004d58:	00001306 	br	1004da8 <prvInitialiseNewTask+0xd0>
 1004d5c:	e0fffc17 	ldw	r3,-16(fp)
 1004d60:	e0bfff17 	ldw	r2,-4(fp)
 1004d64:	1885883a 	add	r2,r3,r2
 1004d68:	10c00003 	ldbu	r3,0(r2)
 1004d6c:	e1000417 	ldw	r4,16(fp)
 1004d70:	e0bfff17 	ldw	r2,-4(fp)
 1004d74:	2085883a 	add	r2,r4,r2
 1004d78:	10c00d05 	stb	r3,52(r2)
 1004d7c:	e0fffc17 	ldw	r3,-16(fp)
 1004d80:	e0bfff17 	ldw	r2,-4(fp)
 1004d84:	1885883a 	add	r2,r3,r2
 1004d88:	10800003 	ldbu	r2,0(r2)
 1004d8c:	10803fcc 	andi	r2,r2,255
 1004d90:	1080201c 	xori	r2,r2,128
 1004d94:	10bfe004 	addi	r2,r2,-128
 1004d98:	10000726 	beq	r2,zero,1004db8 <prvInitialiseNewTask+0xe0>
 1004d9c:	e0bfff17 	ldw	r2,-4(fp)
 1004da0:	10800044 	addi	r2,r2,1
 1004da4:	e0bfff15 	stw	r2,-4(fp)
 1004da8:	e0bfff17 	ldw	r2,-4(fp)
 1004dac:	10800230 	cmpltui	r2,r2,8
 1004db0:	103fea1e 	bne	r2,zero,1004d5c <prvInitialiseNewTask+0x84>
 1004db4:	00000106 	br	1004dbc <prvInitialiseNewTask+0xe4>
 1004db8:	0001883a 	nop
 1004dbc:	e0800417 	ldw	r2,16(fp)
 1004dc0:	10000ec5 	stb	zero,59(r2)
 1004dc4:	00000206 	br	1004dd0 <prvInitialiseNewTask+0xf8>
 1004dc8:	e0800417 	ldw	r2,16(fp)
 1004dcc:	10000d05 	stb	zero,52(r2)
 1004dd0:	e0800217 	ldw	r2,8(fp)
 1004dd4:	10800270 	cmpltui	r2,r2,9
 1004dd8:	1000021e 	bne	r2,zero,1004de4 <prvInitialiseNewTask+0x10c>
 1004ddc:	00800204 	movi	r2,8
 1004de0:	e0800215 	stw	r2,8(fp)
 1004de4:	e0800417 	ldw	r2,16(fp)
 1004de8:	e0c00217 	ldw	r3,8(fp)
 1004dec:	10c00b15 	stw	r3,44(r2)
 1004df0:	e0800417 	ldw	r2,16(fp)
 1004df4:	e0c00217 	ldw	r3,8(fp)
 1004df8:	10c01215 	stw	r3,72(r2)
 1004dfc:	e0800417 	ldw	r2,16(fp)
 1004e00:	10001315 	stw	zero,76(r2)
 1004e04:	e0800417 	ldw	r2,16(fp)
 1004e08:	10800104 	addi	r2,r2,4
 1004e0c:	1009883a 	mov	r4,r2
 1004e10:	10020f00 	call	10020f0 <vListInitialiseItem>
 1004e14:	e0800417 	ldw	r2,16(fp)
 1004e18:	10800604 	addi	r2,r2,24
 1004e1c:	1009883a 	mov	r4,r2
 1004e20:	10020f00 	call	10020f0 <vListInitialiseItem>
 1004e24:	e0800417 	ldw	r2,16(fp)
 1004e28:	e0c00417 	ldw	r3,16(fp)
 1004e2c:	10c00415 	stw	r3,16(r2)
 1004e30:	00c00244 	movi	r3,9
 1004e34:	e0800217 	ldw	r2,8(fp)
 1004e38:	1887c83a 	sub	r3,r3,r2
 1004e3c:	e0800417 	ldw	r2,16(fp)
 1004e40:	10c00615 	stw	r3,24(r2)
 1004e44:	e0800417 	ldw	r2,16(fp)
 1004e48:	e0c00417 	ldw	r3,16(fp)
 1004e4c:	10c00915 	stw	r3,36(r2)
 1004e50:	e0800417 	ldw	r2,16(fp)
 1004e54:	10000f15 	stw	zero,60(r2)
 1004e58:	e0800417 	ldw	r2,16(fp)
 1004e5c:	10801404 	addi	r2,r2,80
 1004e60:	01800104 	movi	r6,4
 1004e64:	000b883a 	mov	r5,zero
 1004e68:	1009883a 	mov	r4,r2
 1004e6c:	1018a100 	call	1018a10 <memset>
 1004e70:	e0800417 	ldw	r2,16(fp)
 1004e74:	10801504 	addi	r2,r2,84
 1004e78:	01800044 	movi	r6,1
 1004e7c:	000b883a 	mov	r5,zero
 1004e80:	1009883a 	mov	r4,r2
 1004e84:	1018a100 	call	1018a10 <memset>
 1004e88:	e1bffa17 	ldw	r6,-24(fp)
 1004e8c:	e17ffd17 	ldw	r5,-12(fp)
 1004e90:	e13ffe17 	ldw	r4,-8(fp)
 1004e94:	10023440 	call	1002344 <pxPortInitialiseStack>
 1004e98:	1007883a 	mov	r3,r2
 1004e9c:	e0800417 	ldw	r2,16(fp)
 1004ea0:	10c00015 	stw	r3,0(r2)
 1004ea4:	e0800317 	ldw	r2,12(fp)
 1004ea8:	10000326 	beq	r2,zero,1004eb8 <prvInitialiseNewTask+0x1e0>
 1004eac:	e0800317 	ldw	r2,12(fp)
 1004eb0:	e0c00417 	ldw	r3,16(fp)
 1004eb4:	10c00015 	stw	r3,0(r2)
 1004eb8:	0001883a 	nop
 1004ebc:	e037883a 	mov	sp,fp
 1004ec0:	dfc00117 	ldw	ra,4(sp)
 1004ec4:	df000017 	ldw	fp,0(sp)
 1004ec8:	dec00204 	addi	sp,sp,8
 1004ecc:	f800283a 	ret

01004ed0 <prvAddNewTaskToReadyList>:
 1004ed0:	defffd04 	addi	sp,sp,-12
 1004ed4:	dfc00215 	stw	ra,8(sp)
 1004ed8:	df000115 	stw	fp,4(sp)
 1004edc:	df000104 	addi	fp,sp,4
 1004ee0:	e13fff15 	stw	r4,-4(fp)
 1004ee4:	1006ed80 	call	1006ed8 <vTaskEnterCritical>
 1004ee8:	d0a35517 	ldw	r2,-29356(gp)
 1004eec:	10800044 	addi	r2,r2,1
 1004ef0:	d0a35515 	stw	r2,-29356(gp)
 1004ef4:	d0a35117 	ldw	r2,-29372(gp)
 1004ef8:	1000071e 	bne	r2,zero,1004f18 <prvAddNewTaskToReadyList+0x48>
 1004efc:	e0bfff17 	ldw	r2,-4(fp)
 1004f00:	d0a35115 	stw	r2,-29372(gp)
 1004f04:	d0a35517 	ldw	r2,-29356(gp)
 1004f08:	10800058 	cmpnei	r2,r2,1
 1004f0c:	10000b1e 	bne	r2,zero,1004f3c <prvAddNewTaskToReadyList+0x6c>
 1004f10:	10065d80 	call	10065d8 <prvInitialiseTaskLists>
 1004f14:	00000906 	br	1004f3c <prvAddNewTaskToReadyList+0x6c>
 1004f18:	d0a35817 	ldw	r2,-29344(gp)
 1004f1c:	1000071e 	bne	r2,zero,1004f3c <prvAddNewTaskToReadyList+0x6c>
 1004f20:	d0a35117 	ldw	r2,-29372(gp)
 1004f24:	10800b17 	ldw	r2,44(r2)
 1004f28:	e0ffff17 	ldw	r3,-4(fp)
 1004f2c:	18c00b17 	ldw	r3,44(r3)
 1004f30:	18800236 	bltu	r3,r2,1004f3c <prvAddNewTaskToReadyList+0x6c>
 1004f34:	e0bfff17 	ldw	r2,-4(fp)
 1004f38:	d0a35115 	stw	r2,-29372(gp)
 1004f3c:	d0a35c17 	ldw	r2,-29328(gp)
 1004f40:	10800044 	addi	r2,r2,1
 1004f44:	d0a35c15 	stw	r2,-29328(gp)
 1004f48:	d0e35c17 	ldw	r3,-29328(gp)
 1004f4c:	e0bfff17 	ldw	r2,-4(fp)
 1004f50:	10c01015 	stw	r3,64(r2)
 1004f54:	e0bfff17 	ldw	r2,-4(fp)
 1004f58:	10800b17 	ldw	r2,44(r2)
 1004f5c:	d0e35717 	ldw	r3,-29348(gp)
 1004f60:	1880032e 	bgeu	r3,r2,1004f70 <prvAddNewTaskToReadyList+0xa0>
 1004f64:	e0bfff17 	ldw	r2,-4(fp)
 1004f68:	10800b17 	ldw	r2,44(r2)
 1004f6c:	d0a35715 	stw	r2,-29348(gp)
 1004f70:	e0bfff17 	ldw	r2,-4(fp)
 1004f74:	10800b17 	ldw	r2,44(r2)
 1004f78:	01400504 	movi	r5,20
 1004f7c:	1009883a 	mov	r4,r2
 1004f80:	10187300 	call	1018730 <__mulsi3>
 1004f84:	1007883a 	mov	r3,r2
 1004f88:	008040f4 	movhi	r2,259
 1004f8c:	10870304 	addi	r2,r2,7180
 1004f90:	1887883a 	add	r3,r3,r2
 1004f94:	e0bfff17 	ldw	r2,-4(fp)
 1004f98:	10800104 	addi	r2,r2,4
 1004f9c:	100b883a 	mov	r5,r2
 1004fa0:	1809883a 	mov	r4,r3
 1004fa4:	100211c0 	call	100211c <vListInsertEnd>
 1004fa8:	1006f2c0 	call	1006f2c <vTaskExitCritical>
 1004fac:	d0a35817 	ldw	r2,-29344(gp)
 1004fb0:	10000626 	beq	r2,zero,1004fcc <prvAddNewTaskToReadyList+0xfc>
 1004fb4:	d0a35117 	ldw	r2,-29372(gp)
 1004fb8:	10c00b17 	ldw	r3,44(r2)
 1004fbc:	e0bfff17 	ldw	r2,-4(fp)
 1004fc0:	10800b17 	ldw	r2,44(r2)
 1004fc4:	1880012e 	bgeu	r3,r2,1004fcc <prvAddNewTaskToReadyList+0xfc>
 1004fc8:	003b683a 	trap	0
 1004fcc:	0001883a 	nop
 1004fd0:	e037883a 	mov	sp,fp
 1004fd4:	dfc00117 	ldw	ra,4(sp)
 1004fd8:	df000017 	ldw	fp,0(sp)
 1004fdc:	dec00204 	addi	sp,sp,8
 1004fe0:	f800283a 	ret

01004fe4 <vTaskDelete>:
 1004fe4:	defffc04 	addi	sp,sp,-16
 1004fe8:	dfc00315 	stw	ra,12(sp)
 1004fec:	df000215 	stw	fp,8(sp)
 1004ff0:	df000204 	addi	fp,sp,8
 1004ff4:	e13ffe15 	stw	r4,-8(fp)
 1004ff8:	1006ed80 	call	1006ed8 <vTaskEnterCritical>
 1004ffc:	e0bffe17 	ldw	r2,-8(fp)
 1005000:	1000021e 	bne	r2,zero,100500c <vTaskDelete+0x28>
 1005004:	d0a35117 	ldw	r2,-29372(gp)
 1005008:	00000106 	br	1005010 <vTaskDelete+0x2c>
 100500c:	e0bffe17 	ldw	r2,-8(fp)
 1005010:	e0bfff15 	stw	r2,-4(fp)
 1005014:	e0bfff17 	ldw	r2,-4(fp)
 1005018:	10800104 	addi	r2,r2,4
 100501c:	1009883a 	mov	r4,r2
 1005020:	10022800 	call	1002280 <uxListRemove>
 1005024:	e0bfff17 	ldw	r2,-4(fp)
 1005028:	10800a17 	ldw	r2,40(r2)
 100502c:	10000426 	beq	r2,zero,1005040 <vTaskDelete+0x5c>
 1005030:	e0bfff17 	ldw	r2,-4(fp)
 1005034:	10800604 	addi	r2,r2,24
 1005038:	1009883a 	mov	r4,r2
 100503c:	10022800 	call	1002280 <uxListRemove>
 1005040:	d0a35c17 	ldw	r2,-29328(gp)
 1005044:	10800044 	addi	r2,r2,1
 1005048:	d0a35c15 	stw	r2,-29328(gp)
 100504c:	d0a35117 	ldw	r2,-29372(gp)
 1005050:	e0ffff17 	ldw	r3,-4(fp)
 1005054:	18800a1e 	bne	r3,r2,1005080 <vTaskDelete+0x9c>
 1005058:	e0bfff17 	ldw	r2,-4(fp)
 100505c:	10800104 	addi	r2,r2,4
 1005060:	100b883a 	mov	r5,r2
 1005064:	010040f4 	movhi	r4,259
 1005068:	21073f04 	addi	r4,r4,7420
 100506c:	100211c0 	call	100211c <vListInsertEnd>
 1005070:	d0a35417 	ldw	r2,-29360(gp)
 1005074:	10800044 	addi	r2,r2,1
 1005078:	d0a35415 	stw	r2,-29360(gp)
 100507c:	00000606 	br	1005098 <vTaskDelete+0xb4>
 1005080:	d0a35517 	ldw	r2,-29356(gp)
 1005084:	10bfffc4 	addi	r2,r2,-1
 1005088:	d0a35515 	stw	r2,-29356(gp)
 100508c:	e13fff17 	ldw	r4,-4(fp)
 1005090:	1006a600 	call	1006a60 <prvDeleteTCB>
 1005094:	1006aa40 	call	1006aa4 <prvResetNextTaskUnblockTime>
 1005098:	1006f2c0 	call	1006f2c <vTaskExitCritical>
