Archive member included to satisfy reference by file (symbol)

/home/efesxzc/intelFPGA_lite/19.1/nios2eds/bin/gnu/H-x86_64-pc-linux-gnu/bin/../lib/gcc/nios2-elf/8.3.1/mno-hw-mul/libgcc.a(lib2-divmod.o)
                              obj/default/./lm75.o (__udivsi3)
/home/efesxzc/intelFPGA_lite/19.1/nios2eds/bin/gnu/H-x86_64-pc-linux-gnu/bin/../lib/gcc/nios2-elf/8.3.1/mno-hw-mul/libgcc.a(lib2-mul.o)
                              obj/default/./lm75.o (__mulsi3)
/home/efesxzc/intelFPGA_lite/19.1/nios2eds/bin/gnu/H-x86_64-pc-linux-gnu/bin/../lib/gcc/nios2-elf/8.3.1/../../../../../H-x86_64-pc-linux-gnu/nios2-elf/lib/mno-hw-mul/libc.a(lib_a-memcmp.o)
                              obj/default/FreeRTOS/FreeRTOS-Plus-TCP/FreeRTOS_ARP.o (memcmp)
/home/efesxzc/intelFPGA_lite/19.1/nios2eds/bin/gnu/H-x86_64-pc-linux-gnu/bin/../lib/gcc/nios2-elf/8.3.1/../../../../../H-x86_64-pc-linux-gnu/nios2-elf/lib/mno-hw-mul/libc.a(lib_a-memcpy.o)
                              obj/default/FreeRTOS/FreeRTOS-Kernel/queue.o (memcpy)
/home/efesxzc/intelFPGA_lite/19.1/nios2eds/bin/gnu/H-x86_64-pc-linux-gnu/bin/../lib/gcc/nios2-elf/8.3.1/../../../../../H-x86_64-pc-linux-gnu/nios2-elf/lib/mno-hw-mul/libc.a(lib_a-memmove.o)
                              obj/default/FreeRTOS/FreeRTOS-Plus-TCP/FreeRTOS_IP.o (memmove)
/home/efesxzc/intelFPGA_lite/19.1/nios2eds/bin/gnu/H-x86_64-pc-linux-gnu/bin/../lib/gcc/nios2-elf/8.3.1/../../../../../H-x86_64-pc-linux-gnu/nios2-elf/lib/mno-hw-mul/libc.a(lib_a-memset.o)
                              obj/default/./telnet_server.o (memset)
/home/efesxzc/intelFPGA_lite/19.1/nios2eds/bin/gnu/H-x86_64-pc-linux-gnu/bin/../lib/gcc/nios2-elf/8.3.1/../../../../../H-x86_64-pc-linux-gnu/nios2-elf/lib/mno-hw-mul/libc.a(lib_a-printf.o)
                              obj/default/./at24c08.o (printf)
/home/efesxzc/intelFPGA_lite/19.1/nios2eds/bin/gnu/H-x86_64-pc-linux-gnu/bin/../lib/gcc/nios2-elf/8.3.1/../../../../../H-x86_64-pc-linux-gnu/nios2-elf/lib/mno-hw-mul/libc.a(lib_a-puts.o)
                              obj/default/./main.o (puts)
/home/efesxzc/intelFPGA_lite/19.1/nios2eds/bin/gnu/H-x86_64-pc-linux-gnu/bin/../lib/gcc/nios2-elf/8.3.1/../../../../../H-x86_64-pc-linux-gnu/nios2-elf/lib/mno-hw-mul/libc.a(lib_a-rand.o)
                              obj/default/./main.o (rand)
/home/efesxzc/intelFPGA_lite/19.1/nios2eds/bin/gnu/H-x86_64-pc-linux-gnu/bin/../lib/gcc/nios2-elf/8.3.1/../../../../../H-x86_64-pc-linux-gnu/nios2-elf/lib/mno-hw-mul/libc.a(lib_a-snprintf.o)
                              obj/default/FreeRTOS/FreeRTOS-Plus-TCP/FreeRTOS_IP.o (snprintf)
/home/efesxzc/intelFPGA_lite/19.1/nios2eds/bin/gnu/H-x86_64-pc-linux-gnu/bin/../lib/gcc/nios2-elf/8.3.1/../../../../../H-x86_64-pc-linux-gnu/nios2-elf/lib/mno-hw-mul/libc.a(lib_a-sprintf.o)
                              obj/default/./CLI-Commands.o (sprintf)
/home/efesxzc/intelFPGA_lite/19.1/nios2eds/bin/gnu/H-x86_64-pc-linux-gnu/bin/../lib/gcc/nios2-elf/8.3.1/../../../../../H-x86_64-pc-linux-gnu/nios2-elf/lib/mno-hw-mul/libc.a(lib_a-strcpy.o)
                              obj/default/./CLI-Commands.o (strcpy)
/home/efesxzc/intelFPGA_lite/19.1/nios2eds/bin/gnu/H-x86_64-pc-linux-gnu/bin/../lib/gcc/nios2-elf/8.3.1/../../../../../H-x86_64-pc-linux-gnu/nios2-elf/lib/mno-hw-mul/libc.a(lib_a-strlen.o)
                              obj/default/./CLI-Commands.o (strlen)
/home/efesxzc/intelFPGA_lite/19.1/nios2eds/bin/gnu/H-x86_64-pc-linux-gnu/bin/../lib/gcc/nios2-elf/8.3.1/../../../../../H-x86_64-pc-linux-gnu/nios2-elf/lib/mno-hw-mul/libc.a(lib_a-strncmp.o)
                              obj/default/FreeRTOS/FreeRTOS-Plus-CLI/FreeRTOS_CLI.o (strncmp)
/home/efesxzc/intelFPGA_lite/19.1/nios2eds/bin/gnu/H-x86_64-pc-linux-gnu/bin/../lib/gcc/nios2-elf/8.3.1/../../../../../H-x86_64-pc-linux-gnu/nios2-elf/lib/mno-hw-mul/libc.a(lib_a-strncpy.o)
                              obj/default/FreeRTOS/FreeRTOS-Plus-CLI/FreeRTOS_CLI.o (strncpy)
/home/efesxzc/intelFPGA_lite/19.1/nios2eds/bin/gnu/H-x86_64-pc-linux-gnu/bin/../lib/gcc/nios2-elf/8.3.1/../../../../../H-x86_64-pc-linux-gnu/nios2-elf/lib/mno-hw-mul/libc.a(lib_a-strstr.o)
                              obj/default/./http_server.o (strstr)
/home/efesxzc/intelFPGA_lite/19.1/nios2eds/bin/gnu/H-x86_64-pc-linux-gnu/bin/../lib/gcc/nios2-elf/8.3.1/../../../../../H-x86_64-pc-linux-gnu/nios2-elf/lib/mno-hw-mul/libc.a(lib_a-strtol.o)
                              obj/default/./http_server.o (strtol)
/home/efesxzc/intelFPGA_lite/19.1/nios2eds/bin/gnu/H-x86_64-pc-linux-gnu/bin/../lib/gcc/nios2-elf/8.3.1/../../../../../H-x86_64-pc-linux-gnu/nios2-elf/lib/mno-hw-mul/libc.a(lib_a-svfprintf.o)
                              /home/efesxzc/intelFPGA_lite/19.1/nios2eds/bin/gnu/H-x86_64-pc-linux-gnu/bin/../lib/gcc/nios2-elf/8.3.1/../../../../../H-x86_64-pc-linux-gnu/nios2-elf/lib/mno-hw-mul/libc.a(lib_a-snprintf.o) (___svfprintf_internal_r)
/home/efesxzc/intelFPGA_lite/19.1/nios2eds/bin/gnu/H-x86_64-pc-linux-gnu/bin/../lib/gcc/nios2-elf/8.3.1/../../../../../H-x86_64-pc-linux-gnu/nios2-elf/lib/mno-hw-mul/libc.a(lib_a-vfprintf.o)
                              /home/efesxzc/intelFPGA_lite/19.1/nios2eds/bin/gnu/H-x86_64-pc-linux-gnu/bin/../lib/gcc/nios2-elf/8.3.1/../../../../../H-x86_64-pc-linux-gnu/nios2-elf/lib/mno-hw-mul/libc.a(lib_a-printf.o) (___vfprintf_internal_r)
/home/efesxzc/intelFPGA_lite/19.1/nios2eds/bin/gnu/H-x86_64-pc-linux-gnu/bin/../lib/gcc/nios2-elf/8.3.1/../../../../../H-x86_64-pc-linux-gnu/nios2-elf/lib/mno-hw-mul/libc.a(lib_a-wsetup.o)
                              /home/efesxzc/intelFPGA_lite/19.1/nios2eds/bin/gnu/H-x86_64-pc-linux-gnu/bin/../lib/gcc/nios2-elf/8.3.1/../../../../../H-x86_64-pc-linux-gnu/nios2-elf/lib/mno-hw-mul/libc.a(lib_a-vfprintf.o) (__swsetup_r)
/home/efesxzc/intelFPGA_lite/19.1/nios2eds/bin/gnu/H-x86_64-pc-linux-gnu/bin/../lib/gcc/nios2-elf/8.3.1/../../../../../H-x86_64-pc-linux-gnu/nios2-elf/lib/mno-hw-mul/libc.a(lib_a-ctype_.o)
                              /home/efesxzc/intelFPGA_lite/19.1/nios2eds/bin/gnu/H-x86_64-pc-linux-gnu/bin/../lib/gcc/nios2-elf/8.3.1/../../../../../H-x86_64-pc-linux-gnu/nios2-elf/lib/mno-hw-mul/libc.a(lib_a-strtol.o) (_ctype_)
/home/efesxzc/intelFPGA_lite/19.1/nios2eds/bin/gnu/H-x86_64-pc-linux-gnu/bin/../lib/gcc/nios2-elf/8.3.1/../../../../../H-x86_64-pc-linux-gnu/nios2-elf/lib/mno-hw-mul/libc.a(lib_a-dtoa.o)
                              /home/efesxzc/intelFPGA_lite/19.1/nios2eds/bin/gnu/H-x86_64-pc-linux-gnu/bin/../lib/gcc/nios2-elf/8.3.1/../../../../../H-x86_64-pc-linux-gnu/nios2-elf/lib/mno-hw-mul/libc.a(lib_a-svfprintf.o) (_dtoa_r)
/home/efesxzc/intelFPGA_lite/19.1/nios2eds/bin/gnu/H-x86_64-pc-linux-gnu/bin/../lib/gcc/nios2-elf/8.3.1/../../../../../H-x86_64-pc-linux-gnu/nios2-elf/lib/mno-hw-mul/libc.a(lib_a-fflush.o)
                              /home/efesxzc/intelFPGA_lite/19.1/nios2eds/bin/gnu/H-x86_64-pc-linux-gnu/bin/../lib/gcc/nios2-elf/8.3.1/../../../../../H-x86_64-pc-linux-gnu/nios2-elf/lib/mno-hw-mul/libc.a(lib_a-vfprintf.o) (_fflush_r)
/home/efesxzc/intelFPGA_lite/19.1/nios2eds/bin/gnu/H-x86_64-pc-linux-gnu/bin/../lib/gcc/nios2-elf/8.3.1/../../../../../H-x86_64-pc-linux-gnu/nios2-elf/lib/mno-hw-mul/libc.a(lib_a-findfp.o)
                              /home/efesxzc/intelFPGA_lite/19.1/nios2eds/bin/gnu/H-x86_64-pc-linux-gnu/bin/../lib/gcc/nios2-elf/8.3.1/../../../../../H-x86_64-pc-linux-gnu/nios2-elf/lib/mno-hw-mul/libc.a(lib_a-puts.o) (__sinit)
/home/efesxzc/intelFPGA_lite/19.1/nios2eds/bin/gnu/H-x86_64-pc-linux-gnu/bin/../lib/gcc/nios2-elf/8.3.1/../../../../../H-x86_64-pc-linux-gnu/nios2-elf/lib/mno-hw-mul/libc.a(lib_a-freer.o)
                              /home/efesxzc/intelFPGA_lite/19.1/nios2eds/bin/gnu/H-x86_64-pc-linux-gnu/bin/../lib/gcc/nios2-elf/8.3.1/../../../../../H-x86_64-pc-linux-gnu/nios2-elf/lib/mno-hw-mul/libc.a(lib_a-wsetup.o) (_free_r)
/home/efesxzc/intelFPGA_lite/19.1/nios2eds/bin/gnu/H-x86_64-pc-linux-gnu/bin/../lib/gcc/nios2-elf/8.3.1/../../../../../H-x86_64-pc-linux-gnu/nios2-elf/lib/mno-hw-mul/libc.a(lib_a-fvwrite.o)
                              /home/efesxzc/intelFPGA_lite/19.1/nios2eds/bin/gnu/H-x86_64-pc-linux-gnu/bin/../lib/gcc/nios2-elf/8.3.1/../../../../../H-x86_64-pc-linux-gnu/nios2-elf/lib/mno-hw-mul/libc.a(lib_a-puts.o) (__sfvwrite_r)
/home/efesxzc/intelFPGA_lite/19.1/nios2eds/bin/gnu/H-x86_64-pc-linux-gnu/bin/../lib/gcc/nios2-elf/8.3.1/../../../../../H-x86_64-pc-linux-gnu/nios2-elf/lib/mno-hw-mul/libc.a(lib_a-fwalk.o)
                              /home/efesxzc/intelFPGA_lite/19.1/nios2eds/bin/gnu/H-x86_64-pc-linux-gnu/bin/../lib/gcc/nios2-elf/8.3.1/../../../../../H-x86_64-pc-linux-gnu/nios2-elf/lib/mno-hw-mul/libc.a(lib_a-findfp.o) (_fwalk)
/home/efesxzc/intelFPGA_lite/19.1/nios2eds/bin/gnu/H-x86_64-pc-linux-gnu/bin/../lib/gcc/nios2-elf/8.3.1/../../../../../H-x86_64-pc-linux-gnu/nios2-elf/lib/mno-hw-mul/libc.a(lib_a-impure.o)
                              /home/efesxzc/intelFPGA_lite/19.1/nios2eds/bin/gnu/H-x86_64-pc-linux-gnu/bin/../lib/gcc/nios2-elf/8.3.1/../../../../../H-x86_64-pc-linux-gnu/nios2-elf/lib/mno-hw-mul/libc.a(lib_a-fflush.o) (_global_impure_ptr)
/home/efesxzc/intelFPGA_lite/19.1/nios2eds/bin/gnu/H-x86_64-pc-linux-gnu/bin/../lib/gcc/nios2-elf/8.3.1/../../../../../H-x86_64-pc-linux-gnu/nios2-elf/lib/mno-hw-mul/libc.a(lib_a-localeconv.o)
                              /home/efesxzc/intelFPGA_lite/19.1/nios2eds/bin/gnu/H-x86_64-pc-linux-gnu/bin/../lib/gcc/nios2-elf/8.3.1/../../../../../H-x86_64-pc-linux-gnu/nios2-elf/lib/mno-hw-mul/libc.a(lib_a-svfprintf.o) (_localeconv_r)
/home/efesxzc/intelFPGA_lite/19.1/nios2eds/bin/gnu/H-x86_64-pc-linux-gnu/bin/../lib/gcc/nios2-elf/8.3.1/../../../../../H-x86_64-pc-linux-gnu/nios2-elf/lib/mno-hw-mul/libc.a(lib_a-makebuf.o)
                              /home/efesxzc/intelFPGA_lite/19.1/nios2eds/bin/gnu/H-x86_64-pc-linux-gnu/bin/../lib/gcc/nios2-elf/8.3.1/../../../../../H-x86_64-pc-linux-gnu/nios2-elf/lib/mno-hw-mul/libc.a(lib_a-wsetup.o) (__smakebuf_r)
/home/efesxzc/intelFPGA_lite/19.1/nios2eds/bin/gnu/H-x86_64-pc-linux-gnu/bin/../lib/gcc/nios2-elf/8.3.1/../../../../../H-x86_64-pc-linux-gnu/nios2-elf/lib/mno-hw-mul/libc.a(lib_a-mallocr.o)
                              /home/efesxzc/intelFPGA_lite/19.1/nios2eds/bin/gnu/H-x86_64-pc-linux-gnu/bin/../lib/gcc/nios2-elf/8.3.1/../../../../../H-x86_64-pc-linux-gnu/nios2-elf/lib/mno-hw-mul/libc.a(lib_a-svfprintf.o) (_malloc_r)
/home/efesxzc/intelFPGA_lite/19.1/nios2eds/bin/gnu/H-x86_64-pc-linux-gnu/bin/../lib/gcc/nios2-elf/8.3.1/../../../../../H-x86_64-pc-linux-gnu/nios2-elf/lib/mno-hw-mul/libc.a(lib_a-memchr.o)
                              /home/efesxzc/intelFPGA_lite/19.1/nios2eds/bin/gnu/H-x86_64-pc-linux-gnu/bin/../lib/gcc/nios2-elf/8.3.1/../../../../../H-x86_64-pc-linux-gnu/nios2-elf/lib/mno-hw-mul/libc.a(lib_a-svfprintf.o) (memchr)
/home/efesxzc/intelFPGA_lite/19.1/nios2eds/bin/gnu/H-x86_64-pc-linux-gnu/bin/../lib/gcc/nios2-elf/8.3.1/../../../../../H-x86_64-pc-linux-gnu/nios2-elf/lib/mno-hw-mul/libc.a(lib_a-mprec.o)
                              /home/efesxzc/intelFPGA_lite/19.1/nios2eds/bin/gnu/H-x86_64-pc-linux-gnu/bin/../lib/gcc/nios2-elf/8.3.1/../../../../../H-x86_64-pc-linux-gnu/nios2-elf/lib/mno-hw-mul/libc.a(lib_a-dtoa.o) (_Balloc)
/home/efesxzc/intelFPGA_lite/19.1/nios2eds/bin/gnu/H-x86_64-pc-linux-gnu/bin/../lib/gcc/nios2-elf/8.3.1/../../../../../H-x86_64-pc-linux-gnu/nios2-elf/lib/mno-hw-mul/libc.a(lib_a-reallocr.o)
                              /home/efesxzc/intelFPGA_lite/19.1/nios2eds/bin/gnu/H-x86_64-pc-linux-gnu/bin/../lib/gcc/nios2-elf/8.3.1/../../../../../H-x86_64-pc-linux-gnu/nios2-elf/lib/mno-hw-mul/libc.a(lib_a-fvwrite.o) (_realloc_r)
/home/efesxzc/intelFPGA_lite/19.1/nios2eds/bin/gnu/H-x86_64-pc-linux-gnu/bin/../lib/gcc/nios2-elf/8.3.1/../../../../../H-x86_64-pc-linux-gnu/nios2-elf/lib/mno-hw-mul/libc.a(lib_a-sbrkr.o)
                              /home/efesxzc/intelFPGA_lite/19.1/nios2eds/bin/gnu/H-x86_64-pc-linux-gnu/bin/../lib/gcc/nios2-elf/8.3.1/../../../../../H-x86_64-pc-linux-gnu/nios2-elf/lib/mno-hw-mul/libc.a(lib_a-freer.o) (_sbrk_r)
/home/efesxzc/intelFPGA_lite/19.1/nios2eds/bin/gnu/H-x86_64-pc-linux-gnu/bin/../lib/gcc/nios2-elf/8.3.1/../../../../../H-x86_64-pc-linux-gnu/nios2-elf/lib/mno-hw-mul/libc.a(lib_a-stdio.o)
                              /home/efesxzc/intelFPGA_lite/19.1/nios2eds/bin/gnu/H-x86_64-pc-linux-gnu/bin/../lib/gcc/nios2-elf/8.3.1/../../../../../H-x86_64-pc-linux-gnu/nios2-elf/lib/mno-hw-mul/libc.a(lib_a-findfp.o) (__sread)
/home/efesxzc/intelFPGA_lite/19.1/nios2eds/bin/gnu/H-x86_64-pc-linux-gnu/bin/../lib/gcc/nios2-elf/8.3.1/../../../../../H-x86_64-pc-linux-gnu/nios2-elf/lib/mno-hw-mul/libc.a(lib_a-strchr.o)
                              /home/efesxzc/intelFPGA_lite/19.1/nios2eds/bin/gnu/H-x86_64-pc-linux-gnu/bin/../lib/gcc/nios2-elf/8.3.1/../../../../../H-x86_64-pc-linux-gnu/nios2-elf/lib/mno-hw-mul/libc.a(lib_a-strstr.o) (strchr)
/home/efesxzc/intelFPGA_lite/19.1/nios2eds/bin/gnu/H-x86_64-pc-linux-gnu/bin/../lib/gcc/nios2-elf/8.3.1/../../../../../H-x86_64-pc-linux-gnu/nios2-elf/lib/mno-hw-mul/libc.a(lib_a-strnlen.o)
                              /home/efesxzc/intelFPGA_lite/19.1/nios2eds/bin/gnu/H-x86_64-pc-linux-gnu/bin/../lib/gcc/nios2-elf/8.3.1/../../../../../H-x86_64-pc-linux-gnu/nios2-elf/lib/mno-hw-mul/libc.a(lib_a-strstr.o) (strnlen)
/home/efesxzc/intelFPGA_lite/19.1/nios2eds/bin/gnu/H-x86_64-pc-linux-gnu/bin/../lib/gcc/nios2-elf/8.3.1/../../../../../H-x86_64-pc-linux-gnu/nios2-elf/lib/mno-hw-mul/libc.a(lib_a-svfiprintf.o)
                              /home/efesxzc/intelFPGA_lite/19.1/nios2eds/bin/gnu/H-x86_64-pc-linux-gnu/bin/../lib/gcc/nios2-elf/8.3.1/../../../../../H-x86_64-pc-linux-gnu/nios2-elf/lib/mno-hw-mul/libc.a(lib_a-svfprintf.o) (__ssprint_r)
/home/efesxzc/intelFPGA_lite/19.1/nios2eds/bin/gnu/H-x86_64-pc-linux-gnu/bin/../lib/gcc/nios2-elf/8.3.1/../../../../../H-x86_64-pc-linux-gnu/nios2-elf/lib/mno-hw-mul/libc.a(lib_a-vfiprintf.o)
                              /home/efesxzc/intelFPGA_lite/19.1/nios2eds/bin/gnu/H-x86_64-pc-linux-gnu/bin/../lib/gcc/nios2-elf/8.3.1/../../../../../H-x86_64-pc-linux-gnu/nios2-elf/lib/mno-hw-mul/libc.a(lib_a-vfprintf.o) (__sprint_r)
/home/efesxzc/intelFPGA_lite/19.1/nios2eds/bin/gnu/H-x86_64-pc-linux-gnu/bin/../lib/gcc/nios2-elf/8.3.1/../../../../../H-x86_64-pc-linux-gnu/nios2-elf/lib/mno-hw-mul/libc.a(lib_a-writer.o)
                              /home/efesxzc/intelFPGA_lite/19.1/nios2eds/bin/gnu/H-x86_64-pc-linux-gnu/bin/../lib/gcc/nios2-elf/8.3.1/../../../../../H-x86_64-pc-linux-gnu/nios2-elf/lib/mno-hw-mul/libc.a(lib_a-stdio.o) (_write_r)
/home/efesxzc/intelFPGA_lite/19.1/nios2eds/bin/gnu/H-x86_64-pc-linux-gnu/bin/../lib/gcc/nios2-elf/8.3.1/../../../../../H-x86_64-pc-linux-gnu/nios2-elf/lib/mno-hw-mul/libc.a(closer.o)
                              /home/efesxzc/intelFPGA_lite/19.1/nios2eds/bin/gnu/H-x86_64-pc-linux-gnu/bin/../lib/gcc/nios2-elf/8.3.1/../../../../../H-x86_64-pc-linux-gnu/nios2-elf/lib/mno-hw-mul/libc.a(lib_a-stdio.o) (_close_r)
/home/efesxzc/intelFPGA_lite/19.1/nios2eds/bin/gnu/H-x86_64-pc-linux-gnu/bin/../lib/gcc/nios2-elf/8.3.1/../../../../../H-x86_64-pc-linux-gnu/nios2-elf/lib/mno-hw-mul/libc.a(lib_a-callocr.o)
                              /home/efesxzc/intelFPGA_lite/19.1/nios2eds/bin/gnu/H-x86_64-pc-linux-gnu/bin/../lib/gcc/nios2-elf/8.3.1/../../../../../H-x86_64-pc-linux-gnu/nios2-elf/lib/mno-hw-mul/libc.a(lib_a-mprec.o) (_calloc_r)
/home/efesxzc/intelFPGA_lite/19.1/nios2eds/bin/gnu/H-x86_64-pc-linux-gnu/bin/../lib/gcc/nios2-elf/8.3.1/../../../../../H-x86_64-pc-linux-gnu/nios2-elf/lib/mno-hw-mul/libc.a(lib_a-fclose.o)
                              /home/efesxzc/intelFPGA_lite/19.1/nios2eds/bin/gnu/H-x86_64-pc-linux-gnu/bin/../lib/gcc/nios2-elf/8.3.1/../../../../../H-x86_64-pc-linux-gnu/nios2-elf/lib/mno-hw-mul/libc.a(lib_a-findfp.o) (_fclose_r)
/home/efesxzc/intelFPGA_lite/19.1/nios2eds/bin/gnu/H-x86_64-pc-linux-gnu/bin/../lib/gcc/nios2-elf/8.3.1/../../../../../H-x86_64-pc-linux-gnu/nios2-elf/lib/mno-hw-mul/libc.a(lib_a-fputwc.o)
                              /home/efesxzc/intelFPGA_lite/19.1/nios2eds/bin/gnu/H-x86_64-pc-linux-gnu/bin/../lib/gcc/nios2-elf/8.3.1/../../../../../H-x86_64-pc-linux-gnu/nios2-elf/lib/mno-hw-mul/libc.a(lib_a-vfiprintf.o) (_fputwc_r)
/home/efesxzc/intelFPGA_lite/19.1/nios2eds/bin/gnu/H-x86_64-pc-linux-gnu/bin/../lib/gcc/nios2-elf/8.3.1/../../../../../H-x86_64-pc-linux-gnu/nios2-elf/lib/mno-hw-mul/libc.a(lib_a-fstatr.o)
                              /home/efesxzc/intelFPGA_lite/19.1/nios2eds/bin/gnu/H-x86_64-pc-linux-gnu/bin/../lib/gcc/nios2-elf/8.3.1/../../../../../H-x86_64-pc-linux-gnu/nios2-elf/lib/mno-hw-mul/libc.a(lib_a-makebuf.o) (_fstat_r)
/home/efesxzc/intelFPGA_lite/19.1/nios2eds/bin/gnu/H-x86_64-pc-linux-gnu/bin/../lib/gcc/nios2-elf/8.3.1/../../../../../H-x86_64-pc-linux-gnu/nios2-elf/lib/mno-hw-mul/libc.a(lib_a-int_errno.o)
                              /home/efesxzc/intelFPGA_lite/19.1/nios2eds/bin/gnu/H-x86_64-pc-linux-gnu/bin/../lib/gcc/nios2-elf/8.3.1/../../../../../H-x86_64-pc-linux-gnu/nios2-elf/lib/mno-hw-mul/libc.a(lib_a-sbrkr.o) (errno)
/home/efesxzc/intelFPGA_lite/19.1/nios2eds/bin/gnu/H-x86_64-pc-linux-gnu/bin/../lib/gcc/nios2-elf/8.3.1/../../../../../H-x86_64-pc-linux-gnu/nios2-elf/lib/mno-hw-mul/libc.a(lib_a-isattyr.o)
                              /home/efesxzc/intelFPGA_lite/19.1/nios2eds/bin/gnu/H-x86_64-pc-linux-gnu/bin/../lib/gcc/nios2-elf/8.3.1/../../../../../H-x86_64-pc-linux-gnu/nios2-elf/lib/mno-hw-mul/libc.a(lib_a-makebuf.o) (_isatty_r)
/home/efesxzc/intelFPGA_lite/19.1/nios2eds/bin/gnu/H-x86_64-pc-linux-gnu/bin/../lib/gcc/nios2-elf/8.3.1/../../../../../H-x86_64-pc-linux-gnu/nios2-elf/lib/mno-hw-mul/libc.a(lib_a-locale.o)
                              /home/efesxzc/intelFPGA_lite/19.1/nios2eds/bin/gnu/H-x86_64-pc-linux-gnu/bin/../lib/gcc/nios2-elf/8.3.1/../../../../../H-x86_64-pc-linux-gnu/nios2-elf/lib/mno-hw-mul/libc.a(lib_a-fputwc.o) (__locale_mb_cur_max)
/home/efesxzc/intelFPGA_lite/19.1/nios2eds/bin/gnu/H-x86_64-pc-linux-gnu/bin/../lib/gcc/nios2-elf/8.3.1/../../../../../H-x86_64-pc-linux-gnu/nios2-elf/lib/mno-hw-mul/libc.a(lib_a-lseekr.o)
                              /home/efesxzc/intelFPGA_lite/19.1/nios2eds/bin/gnu/H-x86_64-pc-linux-gnu/bin/../lib/gcc/nios2-elf/8.3.1/../../../../../H-x86_64-pc-linux-gnu/nios2-elf/lib/mno-hw-mul/libc.a(lib_a-stdio.o) (_lseek_r)
/home/efesxzc/intelFPGA_lite/19.1/nios2eds/bin/gnu/H-x86_64-pc-linux-gnu/bin/../lib/gcc/nios2-elf/8.3.1/../../../../../H-x86_64-pc-linux-gnu/nios2-elf/lib/mno-hw-mul/libc.a(lib_a-mbtowc_r.o)
                              /home/efesxzc/intelFPGA_lite/19.1/nios2eds/bin/gnu/H-x86_64-pc-linux-gnu/bin/../lib/gcc/nios2-elf/8.3.1/../../../../../H-x86_64-pc-linux-gnu/nios2-elf/lib/mno-hw-mul/libc.a(lib_a-locale.o) (__ascii_mbtowc)
/home/efesxzc/intelFPGA_lite/19.1/nios2eds/bin/gnu/H-x86_64-pc-linux-gnu/bin/../lib/gcc/nios2-elf/8.3.1/../../../../../H-x86_64-pc-linux-gnu/nios2-elf/lib/mno-hw-mul/libc.a(lib_a-readr.o)
                              /home/efesxzc/intelFPGA_lite/19.1/nios2eds/bin/gnu/H-x86_64-pc-linux-gnu/bin/../lib/gcc/nios2-elf/8.3.1/../../../../../H-x86_64-pc-linux-gnu/nios2-elf/lib/mno-hw-mul/libc.a(lib_a-stdio.o) (_read_r)
/home/efesxzc/intelFPGA_lite/19.1/nios2eds/bin/gnu/H-x86_64-pc-linux-gnu/bin/../lib/gcc/nios2-elf/8.3.1/../../../../../H-x86_64-pc-linux-gnu/nios2-elf/lib/mno-hw-mul/libc.a(lib_a-strcmp.o)
                              /home/efesxzc/intelFPGA_lite/19.1/nios2eds/bin/gnu/H-x86_64-pc-linux-gnu/bin/../lib/gcc/nios2-elf/8.3.1/../../../../../H-x86_64-pc-linux-gnu/nios2-elf/lib/mno-hw-mul/libc.a(lib_a-locale.o) (strcmp)
/home/efesxzc/intelFPGA_lite/19.1/nios2eds/bin/gnu/H-x86_64-pc-linux-gnu/bin/../lib/gcc/nios2-elf/8.3.1/../../../../../H-x86_64-pc-linux-gnu/nios2-elf/lib/mno-hw-mul/libc.a(lib_a-wbuf.o)
                              /home/efesxzc/intelFPGA_lite/19.1/nios2eds/bin/gnu/H-x86_64-pc-linux-gnu/bin/../lib/gcc/nios2-elf/8.3.1/../../../../../H-x86_64-pc-linux-gnu/nios2-elf/lib/mno-hw-mul/libc.a(lib_a-fputwc.o) (__swbuf_r)
/home/efesxzc/intelFPGA_lite/19.1/nios2eds/bin/gnu/H-x86_64-pc-linux-gnu/bin/../lib/gcc/nios2-elf/8.3.1/../../../../../H-x86_64-pc-linux-gnu/nios2-elf/lib/mno-hw-mul/libc.a(lib_a-wcrtomb.o)
                              /home/efesxzc/intelFPGA_lite/19.1/nios2eds/bin/gnu/H-x86_64-pc-linux-gnu/bin/../lib/gcc/nios2-elf/8.3.1/../../../../../H-x86_64-pc-linux-gnu/nios2-elf/lib/mno-hw-mul/libc.a(lib_a-fputwc.o) (_wcrtomb_r)
/home/efesxzc/intelFPGA_lite/19.1/nios2eds/bin/gnu/H-x86_64-pc-linux-gnu/bin/../lib/gcc/nios2-elf/8.3.1/../../../../../H-x86_64-pc-linux-gnu/nios2-elf/lib/mno-hw-mul/libc.a(lib_a-wctomb_r.o)
                              /home/efesxzc/intelFPGA_lite/19.1/nios2eds/bin/gnu/H-x86_64-pc-linux-gnu/bin/../lib/gcc/nios2-elf/8.3.1/../../../../../H-x86_64-pc-linux-gnu/nios2-elf/lib/mno-hw-mul/libc.a(lib_a-locale.o) (__ascii_wctomb)
/home/efesxzc/intelFPGA_lite/19.1/nios2eds/bin/gnu/H-x86_64-pc-linux-gnu/bin/../lib/gcc/nios2-elf/8.3.1/mno-hw-mul/libgcc.a(_muldi3.o)
                              /home/efesxzc/intelFPGA_lite/19.1/nios2eds/bin/gnu/H-x86_64-pc-linux-gnu/bin/../lib/gcc/nios2-elf/8.3.1/../../../../../H-x86_64-pc-linux-gnu/nios2-elf/lib/mno-hw-mul/libc.a(lib_a-rand.o) (__muldi3)
/home/efesxzc/intelFPGA_lite/19.1/nios2eds/bin/gnu/H-x86_64-pc-linux-gnu/bin/../lib/gcc/nios2-elf/8.3.1/mno-hw-mul/libgcc.a(_udivdi3.o)
                              /home/efesxzc/intelFPGA_lite/19.1/nios2eds/bin/gnu/H-x86_64-pc-linux-gnu/bin/../lib/gcc/nios2-elf/8.3.1/../../../../../H-x86_64-pc-linux-gnu/nios2-elf/lib/mno-hw-mul/libc.a(lib_a-svfprintf.o) (__udivdi3)
/home/efesxzc/intelFPGA_lite/19.1/nios2eds/bin/gnu/H-x86_64-pc-linux-gnu/bin/../lib/gcc/nios2-elf/8.3.1/mno-hw-mul/libgcc.a(_umoddi3.o)
                              /home/efesxzc/intelFPGA_lite/19.1/nios2eds/bin/gnu/H-x86_64-pc-linux-gnu/bin/../lib/gcc/nios2-elf/8.3.1/../../../../../H-x86_64-pc-linux-gnu/nios2-elf/lib/mno-hw-mul/libc.a(lib_a-svfprintf.o) (__umoddi3)
/home/efesxzc/intelFPGA_lite/19.1/nios2eds/bin/gnu/H-x86_64-pc-linux-gnu/bin/../lib/gcc/nios2-elf/8.3.1/mno-hw-mul/libgcc.a(adddf3.o)
                              /home/efesxzc/intelFPGA_lite/19.1/nios2eds/bin/gnu/H-x86_64-pc-linux-gnu/bin/../lib/gcc/nios2-elf/8.3.1/../../../../../H-x86_64-pc-linux-gnu/nios2-elf/lib/mno-hw-mul/libc.a(lib_a-dtoa.o) (__adddf3)
/home/efesxzc/intelFPGA_lite/19.1/nios2eds/bin/gnu/H-x86_64-pc-linux-gnu/bin/../lib/gcc/nios2-elf/8.3.1/mno-hw-mul/libgcc.a(divdf3.o)
                              /home/efesxzc/intelFPGA_lite/19.1/nios2eds/bin/gnu/H-x86_64-pc-linux-gnu/bin/../lib/gcc/nios2-elf/8.3.1/../../../../../H-x86_64-pc-linux-gnu/nios2-elf/lib/mno-hw-mul/libc.a(lib_a-dtoa.o) (__divdf3)
/home/efesxzc/intelFPGA_lite/19.1/nios2eds/bin/gnu/H-x86_64-pc-linux-gnu/bin/../lib/gcc/nios2-elf/8.3.1/mno-hw-mul/libgcc.a(eqdf2.o)
                              /home/efesxzc/intelFPGA_lite/19.1/nios2eds/bin/gnu/H-x86_64-pc-linux-gnu/bin/../lib/gcc/nios2-elf/8.3.1/../../../../../H-x86_64-pc-linux-gnu/nios2-elf/lib/mno-hw-mul/libc.a(lib_a-svfprintf.o) (__eqdf2)
/home/efesxzc/intelFPGA_lite/19.1/nios2eds/bin/gnu/H-x86_64-pc-linux-gnu/bin/../lib/gcc/nios2-elf/8.3.1/mno-hw-mul/libgcc.a(gedf2.o)
                              /home/efesxzc/intelFPGA_lite/19.1/nios2eds/bin/gnu/H-x86_64-pc-linux-gnu/bin/../lib/gcc/nios2-elf/8.3.1/../../../../../H-x86_64-pc-linux-gnu/nios2-elf/lib/mno-hw-mul/libc.a(lib_a-dtoa.o) (__gedf2)
/home/efesxzc/intelFPGA_lite/19.1/nios2eds/bin/gnu/H-x86_64-pc-linux-gnu/bin/../lib/gcc/nios2-elf/8.3.1/mno-hw-mul/libgcc.a(ledf2.o)
                              /home/efesxzc/intelFPGA_lite/19.1/nios2eds/bin/gnu/H-x86_64-pc-linux-gnu/bin/../lib/gcc/nios2-elf/8.3.1/../../../../../H-x86_64-pc-linux-gnu/nios2-elf/lib/mno-hw-mul/libc.a(lib_a-svfprintf.o) (__ledf2)
/home/efesxzc/intelFPGA_lite/19.1/nios2eds/bin/gnu/H-x86_64-pc-linux-gnu/bin/../lib/gcc/nios2-elf/8.3.1/mno-hw-mul/libgcc.a(muldf3.o)
                              /home/efesxzc/intelFPGA_lite/19.1/nios2eds/bin/gnu/H-x86_64-pc-linux-gnu/bin/../lib/gcc/nios2-elf/8.3.1/../../../../../H-x86_64-pc-linux-gnu/nios2-elf/lib/mno-hw-mul/libc.a(lib_a-dtoa.o) (__muldf3)
/home/efesxzc/intelFPGA_lite/19.1/nios2eds/bin/gnu/H-x86_64-pc-linux-gnu/bin/../lib/gcc/nios2-elf/8.3.1/mno-hw-mul/libgcc.a(subdf3.o)
                              /home/efesxzc/intelFPGA_lite/19.1/nios2eds/bin/gnu/H-x86_64-pc-linux-gnu/bin/../lib/gcc/nios2-elf/8.3.1/../../../../../H-x86_64-pc-linux-gnu/nios2-elf/lib/mno-hw-mul/libc.a(lib_a-dtoa.o) (__subdf3)
/home/efesxzc/intelFPGA_lite/19.1/nios2eds/bin/gnu/H-x86_64-pc-linux-gnu/bin/../lib/gcc/nios2-elf/8.3.1/mno-hw-mul/libgcc.a(unorddf2.o)
                              /home/efesxzc/intelFPGA_lite/19.1/nios2eds/bin/gnu/H-x86_64-pc-linux-gnu/bin/../lib/gcc/nios2-elf/8.3.1/../../../../../H-x86_64-pc-linux-gnu/nios2-elf/lib/mno-hw-mul/libc.a(lib_a-svfprintf.o) (__unorddf2)
/home/efesxzc/intelFPGA_lite/19.1/nios2eds/bin/gnu/H-x86_64-pc-linux-gnu/bin/../lib/gcc/nios2-elf/8.3.1/mno-hw-mul/libgcc.a(fixdfsi.o)
                              /home/efesxzc/intelFPGA_lite/19.1/nios2eds/bin/gnu/H-x86_64-pc-linux-gnu/bin/../lib/gcc/nios2-elf/8.3.1/../../../../../H-x86_64-pc-linux-gnu/nios2-elf/lib/mno-hw-mul/libc.a(lib_a-dtoa.o) (__fixdfsi)
/home/efesxzc/intelFPGA_lite/19.1/nios2eds/bin/gnu/H-x86_64-pc-linux-gnu/bin/../lib/gcc/nios2-elf/8.3.1/mno-hw-mul/libgcc.a(floatsidf.o)
                              /home/efesxzc/intelFPGA_lite/19.1/nios2eds/bin/gnu/H-x86_64-pc-linux-gnu/bin/../lib/gcc/nios2-elf/8.3.1/../../../../../H-x86_64-pc-linux-gnu/nios2-elf/lib/mno-hw-mul/libc.a(lib_a-dtoa.o) (__floatsidf)
/home/efesxzc/intelFPGA_lite/19.1/nios2eds/bin/gnu/H-x86_64-pc-linux-gnu/bin/../lib/gcc/nios2-elf/8.3.1/mno-hw-mul/libgcc.a(floatunsidf.o)
                              /home/efesxzc/intelFPGA_lite/19.1/nios2eds/bin/gnu/H-x86_64-pc-linux-gnu/bin/../lib/gcc/nios2-elf/8.3.1/../../../../../H-x86_64-pc-linux-gnu/nios2-elf/lib/mno-hw-mul/libc.a(lib_a-dtoa.o) (__floatunsidf)
/home/efesxzc/intelFPGA_lite/19.1/nios2eds/bin/gnu/H-x86_64-pc-linux-gnu/bin/../lib/gcc/nios2-elf/8.3.1/mno-hw-mul/libgcc.a(_clz.o)
                              /home/efesxzc/intelFPGA_lite/19.1/nios2eds/bin/gnu/H-x86_64-pc-linux-gnu/bin/../lib/gcc/nios2-elf/8.3.1/mno-hw-mul/libgcc.a(_udivdi3.o) (__clz_tab)
/home/efesxzc/intelFPGA_lite/19.1/nios2eds/bin/gnu/H-x86_64-pc-linux-gnu/bin/../lib/gcc/nios2-elf/8.3.1/mno-hw-mul/libgcc.a(_clzsi2.o)
                              /home/efesxzc/intelFPGA_lite/19.1/nios2eds/bin/gnu/H-x86_64-pc-linux-gnu/bin/../lib/gcc/nios2-elf/8.3.1/mno-hw-mul/libgcc.a(adddf3.o) (__clzsi2)
../civ_002_bsp//libhal_bsp.a(alt_close.o)
                              /home/efesxzc/intelFPGA_lite/19.1/nios2eds/bin/gnu/H-x86_64-pc-linux-gnu/bin/../lib/gcc/nios2-elf/8.3.1/../../../../../H-x86_64-pc-linux-gnu/nios2-elf/lib/mno-hw-mul/libc.a(closer.o) (close)
../civ_002_bsp//libhal_bsp.a(alt_dev.o)
                              ../civ_002_bsp//libhal_bsp.a(alt_close.o) (alt_fd_list)
../civ_002_bsp//libhal_bsp.a(alt_errno.o)
                              ../civ_002_bsp//libhal_bsp.a(alt_close.o) (alt_errno)
../civ_002_bsp//libhal_bsp.a(alt_fstat.o)
                              /home/efesxzc/intelFPGA_lite/19.1/nios2eds/bin/gnu/H-x86_64-pc-linux-gnu/bin/../lib/gcc/nios2-elf/8.3.1/../../../../../H-x86_64-pc-linux-gnu/nios2-elf/lib/mno-hw-mul/libc.a(lib_a-fstatr.o) (fstat)
../civ_002_bsp//libhal_bsp.a(alt_irq_handler.o)
                              obj/default/FreeRTOS/FreeRTOS-Kernel/portable/GCC/NiosII/port.o (alt_irq)
../civ_002_bsp//libhal_bsp.a(alt_irq_vars.o)
                              obj/default/FreeRTOS/FreeRTOS-Kernel/portable/GCC/NiosII/port.o (alt_irq_active)
../civ_002_bsp//libhal_bsp.a(alt_isatty.o)
                              /home/efesxzc/intelFPGA_lite/19.1/nios2eds/bin/gnu/H-x86_64-pc-linux-gnu/bin/../lib/gcc/nios2-elf/8.3.1/../../../../../H-x86_64-pc-linux-gnu/nios2-elf/lib/mno-hw-mul/libc.a(lib_a-isattyr.o) (isatty)
../civ_002_bsp//libhal_bsp.a(alt_load.o)
                              ../civ_002_bsp//obj/HAL/src/crt0.o (alt_load)
../civ_002_bsp//libhal_bsp.a(alt_lseek.o)
                              /home/efesxzc/intelFPGA_lite/19.1/nios2eds/bin/gnu/H-x86_64-pc-linux-gnu/bin/../lib/gcc/nios2-elf/8.3.1/../../../../../H-x86_64-pc-linux-gnu/nios2-elf/lib/mno-hw-mul/libc.a(lib_a-lseekr.o) (lseek)
../civ_002_bsp//libhal_bsp.a(alt_main.o)
                              ../civ_002_bsp//obj/HAL/src/crt0.o (alt_main)
../civ_002_bsp//libhal_bsp.a(alt_malloc_lock.o)
                              /home/efesxzc/intelFPGA_lite/19.1/nios2eds/bin/gnu/H-x86_64-pc-linux-gnu/bin/../lib/gcc/nios2-elf/8.3.1/../../../../../H-x86_64-pc-linux-gnu/nios2-elf/lib/mno-hw-mul/libc.a(lib_a-freer.o) (__malloc_lock)
../civ_002_bsp//libhal_bsp.a(alt_read.o)
                              /home/efesxzc/intelFPGA_lite/19.1/nios2eds/bin/gnu/H-x86_64-pc-linux-gnu/bin/../lib/gcc/nios2-elf/8.3.1/../../../../../H-x86_64-pc-linux-gnu/nios2-elf/lib/mno-hw-mul/libc.a(lib_a-readr.o) (read)
../civ_002_bsp//libhal_bsp.a(alt_release_fd.o)
                              ../civ_002_bsp//libhal_bsp.a(alt_close.o) (alt_release_fd)
../civ_002_bsp//libhal_bsp.a(alt_sbrk.o)
                              /home/efesxzc/intelFPGA_lite/19.1/nios2eds/bin/gnu/H-x86_64-pc-linux-gnu/bin/../lib/gcc/nios2-elf/8.3.1/../../../../../H-x86_64-pc-linux-gnu/nios2-elf/lib/mno-hw-mul/libc.a(lib_a-sbrkr.o) (sbrk)
../civ_002_bsp//libhal_bsp.a(alt_write.o)
                              /home/efesxzc/intelFPGA_lite/19.1/nios2eds/bin/gnu/H-x86_64-pc-linux-gnu/bin/../lib/gcc/nios2-elf/8.3.1/../../../../../H-x86_64-pc-linux-gnu/nios2-elf/lib/mno-hw-mul/libc.a(lib_a-writer.o) (write)
../civ_002_bsp//libhal_bsp.a(alt_sys_init.o)
                              ../civ_002_bsp//libhal_bsp.a(alt_main.o) (alt_irq_init)
../civ_002_bsp//libhal_bsp.a(altera_avalon_i2c.o)
                              ../civ_002_bsp//libhal_bsp.a(alt_sys_init.o) (alt_avalon_i2c_init)
../civ_002_bsp//libhal_bsp.a(altera_avalon_spi.o)
                              obj/default/FreeRTOS/FreeRTOS-Plus-TCP/portable/NetworkInterface/ENC28J60/enc.o (alt_avalon_spi_command)
../civ_002_bsp//libhal_bsp.a(altera_avalon_timer_sc.o)
                              ../civ_002_bsp//libhal_bsp.a(alt_sys_init.o) (alt_avalon_timer_sc_init)
../civ_002_bsp//libhal_bsp.a(alt_busy_sleep.o)
                              ../civ_002_bsp//libhal_bsp.a(altera_avalon_i2c.o) (alt_busy_sleep)
../civ_002_bsp//libhal_bsp.a(alt_dcache_flush_all.o)
                              ../civ_002_bsp//libhal_bsp.a(alt_load.o) (alt_dcache_flush_all)
../civ_002_bsp//libhal_bsp.a(alt_dev_llist_insert.o)
                              ../civ_002_bsp//libhal_bsp.a(altera_avalon_i2c.o) (alt_dev_llist_insert)
../civ_002_bsp//libhal_bsp.a(alt_do_ctors.o)
                              ../civ_002_bsp//libhal_bsp.a(alt_main.o) (_do_ctors)
../civ_002_bsp//libhal_bsp.a(alt_do_dtors.o)
                              ../civ_002_bsp//libhal_bsp.a(alt_main.o) (_do_dtors)
../civ_002_bsp//libhal_bsp.a(alt_find_dev.o)
                              ../civ_002_bsp//libhal_bsp.a(altera_avalon_i2c.o) (alt_find_dev)
../civ_002_bsp//libhal_bsp.a(alt_icache_flush_all.o)
                              ../civ_002_bsp//libhal_bsp.a(alt_load.o) (alt_icache_flush_all)
../civ_002_bsp//libhal_bsp.a(alt_printf.o)
                              ../civ_002_bsp//libhal_bsp.a(altera_avalon_i2c.o) (alt_printf)
../civ_002_bsp//libhal_bsp.a(alt_putchar.o)
                              ../civ_002_bsp//libhal_bsp.a(alt_printf.o) (alt_putchar)
../civ_002_bsp//libhal_bsp.a(alt_tick.o)
                              ../civ_002_bsp//libhal_bsp.a(altera_avalon_timer_sc.o) (_alt_tick_rate)
../civ_002_bsp//libhal_bsp.a(altera_nios2_gen2_irq.o)
                              ../civ_002_bsp//libhal_bsp.a(alt_sys_init.o) (altera_nios2_gen2_irq_init)
/home/efesxzc/intelFPGA_lite/19.1/nios2eds/bin/gnu/H-x86_64-pc-linux-gnu/bin/../lib/gcc/nios2-elf/8.3.1/../../../../../H-x86_64-pc-linux-gnu/nios2-elf/lib/mno-hw-mul/libc.a(lib_a-atexit.o)
                              ../civ_002_bsp//libhal_bsp.a(alt_main.o) (atexit)
/home/efesxzc/intelFPGA_lite/19.1/nios2eds/bin/gnu/H-x86_64-pc-linux-gnu/bin/../lib/gcc/nios2-elf/8.3.1/../../../../../H-x86_64-pc-linux-gnu/nios2-elf/lib/mno-hw-mul/libc.a(lib_a-exit.o)
                              ../civ_002_bsp//libhal_bsp.a(alt_main.o) (exit)
/home/efesxzc/intelFPGA_lite/19.1/nios2eds/bin/gnu/H-x86_64-pc-linux-gnu/bin/../lib/gcc/nios2-elf/8.3.1/../../../../../H-x86_64-pc-linux-gnu/nios2-elf/lib/mno-hw-mul/libc.a(lib_a-putchar.o)
                              ../civ_002_bsp//libhal_bsp.a(alt_putchar.o) (putchar)
/home/efesxzc/intelFPGA_lite/19.1/nios2eds/bin/gnu/H-x86_64-pc-linux-gnu/bin/../lib/gcc/nios2-elf/8.3.1/../../../../../H-x86_64-pc-linux-gnu/nios2-elf/lib/mno-hw-mul/libc.a(lib_a-__atexit.o)
                              /home/efesxzc/intelFPGA_lite/19.1/nios2eds/bin/gnu/H-x86_64-pc-linux-gnu/bin/../lib/gcc/nios2-elf/8.3.1/../../../../../H-x86_64-pc-linux-gnu/nios2-elf/lib/mno-hw-mul/libc.a(lib_a-atexit.o) (__register_exitproc)
/home/efesxzc/intelFPGA_lite/19.1/nios2eds/bin/gnu/H-x86_64-pc-linux-gnu/bin/../lib/gcc/nios2-elf/8.3.1/../../../../../H-x86_64-pc-linux-gnu/nios2-elf/lib/mno-hw-mul/libc.a(lib_a-__call_atexit.o)
                              /home/efesxzc/intelFPGA_lite/19.1/nios2eds/bin/gnu/H-x86_64-pc-linux-gnu/bin/../lib/gcc/nios2-elf/8.3.1/../../../../../H-x86_64-pc-linux-gnu/nios2-elf/lib/mno-hw-mul/libc.a(lib_a-exit.o) (__call_exitprocs)
/home/efesxzc/intelFPGA_lite/19.1/nios2eds/bin/gnu/H-x86_64-pc-linux-gnu/bin/../lib/gcc/nios2-elf/8.3.1/../../../../../H-x86_64-pc-linux-gnu/nios2-elf/lib/mno-hw-mul/libc.a(lib_a-putc.o)
                              /home/efesxzc/intelFPGA_lite/19.1/nios2eds/bin/gnu/H-x86_64-pc-linux-gnu/bin/../lib/gcc/nios2-elf/8.3.1/../../../../../H-x86_64-pc-linux-gnu/nios2-elf/lib/mno-hw-mul/libc.a(lib_a-putchar.o) (_putc_r)
../civ_002_bsp//libhal_bsp.a(alt_exit.o)
                              /home/efesxzc/intelFPGA_lite/19.1/nios2eds/bin/gnu/H-x86_64-pc-linux-gnu/bin/../lib/gcc/nios2-elf/8.3.1/../../../../../H-x86_64-pc-linux-gnu/nios2-elf/lib/mno-hw-mul/libc.a(lib_a-exit.o) (_exit)

Allocating common symbols
Common symbol       size              file

alt_irq             0x100             ../civ_002_bsp//libhal_bsp.a(alt_irq_handler.o)
errno               0x4               /home/efesxzc/intelFPGA_lite/19.1/nios2eds/bin/gnu/H-x86_64-pc-linux-gnu/bin/../lib/gcc/nios2-elf/8.3.1/../../../../../H-x86_64-pc-linux-gnu/nios2-elf/lib/mno-hw-mul/libc.a(lib_a-int_errno.o)
xTaskTempHandle     0x4               obj/default/./lm75.o
xBytesReceived      0x4               obj/default/FreeRTOS/FreeRTOS-Plus-TCP/portable/NetworkInterface/ENC28J60/NetworkInterface.o
xBoundTCPSocketsList
                    0x14              obj/default/FreeRTOS/FreeRTOS-Plus-TCP/FreeRTOS_Sockets.o
temperature         0x1               obj/default/./lm75.o
eeprom_dev          0x4               obj/default/./at24c08.o
test                0xd55             obj/default/./http_server.o
nirq_isr_context    0x4               obj/default/FreeRTOS/FreeRTOS-Plus-TCP/portable/NetworkInterface/ENC28J60/NetworkInterface.o
rx_buf              0x5b4             obj/default/./telnet_server.o
xBoundUDPSocketsList
                    0x14              obj/default/FreeRTOS/FreeRTOS-Plus-TCP/FreeRTOS_Sockets.o
fwInstTaskHandle    0x4               obj/default/./http_server.o
tx_buf              0x5b4             obj/default/./telnet_server.o
i2c_temp            0x4               obj/default/./lm75.o
len                 0x4               obj/default/./main.o
status              0x4               obj/default/./lm75.o

Memory Configuration

Name             Origin             Length             Attributes
reset            0x0000000001000000 0x0000000000000020
RAM              0x0000000001000020 0x00000000007fffe0
*default*        0x0000000000000000 0xffffffffffffffff

Linker script and memory map

LOAD ../civ_002_bsp//obj/HAL/src/crt0.o
LOAD obj/default/./CLI-Commands.o
LOAD obj/default/./at24c08.o
LOAD obj/default/./http_server.o
LOAD obj/default/./lm75.o
LOAD obj/default/./main.o
LOAD obj/default/./telnet_server.o
LOAD obj/default/FreeRTOS/FreeRTOS-Kernel/croutine.o
LOAD obj/default/FreeRTOS/FreeRTOS-Kernel/event_groups.o
LOAD obj/default/FreeRTOS/FreeRTOS-Kernel/list.o
LOAD obj/default/FreeRTOS/FreeRTOS-Kernel/portable/GCC/NiosII/port.o
LOAD obj/default/FreeRTOS/FreeRTOS-Kernel/portable/portTimer.o
LOAD obj/default/FreeRTOS/FreeRTOS-Kernel/queue.o
LOAD obj/default/FreeRTOS/FreeRTOS-Kernel/stream_buffer.o
LOAD obj/default/FreeRTOS/FreeRTOS-Kernel/tasks.o
LOAD obj/default/FreeRTOS/FreeRTOS-Kernel/timers.o
LOAD obj/default/FreeRTOS/FreeRTOS-Plus-CLI/FreeRTOS_CLI.o
LOAD obj/default/FreeRTOS/FreeRTOS-Plus-TCP/FreeRTOS_ARP.o
LOAD obj/default/FreeRTOS/FreeRTOS-Plus-TCP/FreeRTOS_DHCP.o
LOAD obj/default/FreeRTOS/FreeRTOS-Plus-TCP/FreeRTOS_DNS.o
LOAD obj/default/FreeRTOS/FreeRTOS-Plus-TCP/FreeRTOS_IP.o
LOAD obj/default/FreeRTOS/FreeRTOS-Plus-TCP/FreeRTOS_Sockets.o
LOAD obj/default/FreeRTOS/FreeRTOS-Plus-TCP/FreeRTOS_Stream_Buffer.o
LOAD obj/default/FreeRTOS/FreeRTOS-Plus-TCP/FreeRTOS_TCP_IP.o
LOAD obj/default/FreeRTOS/FreeRTOS-Plus-TCP/FreeRTOS_TCP_WIN.o
LOAD obj/default/FreeRTOS/FreeRTOS-Plus-TCP/FreeRTOS_UDP_IP.o
LOAD obj/default/FreeRTOS/FreeRTOS-Plus-TCP/portable/NetworkInterface/ENC28J60/NetworkInterface.o
LOAD obj/default/FreeRTOS/FreeRTOS-Plus-TCP/portable/NetworkInterface/ENC28J60/enc.o
LOAD obj/default/FreeRTOS/FreeRTOS-Kernel/portable/MemMang/heap_4.o
LOAD obj/default/FreeRTOS/FreeRTOS-Plus-TCP/portable/BufferManagement/BufferAllocation_1.o
LOAD obj/default/FreeRTOS/FreeRTOS-Kernel/portable/GCC/NiosII/port_asm.o
LOAD /home/efesxzc/intelFPGA_lite/19.1/nios2eds/bin/gnu/H-x86_64-pc-linux-gnu/bin/../lib/gcc/nios2-elf/8.3.1/../../../../../H-x86_64-pc-linux-gnu/nios2-elf/lib/mno-hw-mul/libstdc++.a
LOAD /home/efesxzc/intelFPGA_lite/19.1/nios2eds/bin/gnu/H-x86_64-pc-linux-gnu/bin/../lib/gcc/nios2-elf/8.3.1/../../../../../H-x86_64-pc-linux-gnu/nios2-elf/lib/mno-hw-mul/libm.a
LOAD /home/efesxzc/intelFPGA_lite/19.1/nios2eds/bin/gnu/H-x86_64-pc-linux-gnu/bin/../lib/gcc/nios2-elf/8.3.1/mno-hw-mul/libgcc.a
START GROUP
LOAD /home/efesxzc/intelFPGA_lite/19.1/nios2eds/bin/gnu/H-x86_64-pc-linux-gnu/bin/../lib/gcc/nios2-elf/8.3.1/../../../../../H-x86_64-pc-linux-gnu/nios2-elf/lib/mno-hw-mul/libc.a
LOAD /home/efesxzc/intelFPGA_lite/19.1/nios2eds/bin/gnu/H-x86_64-pc-linux-gnu/bin/../lib/gcc/nios2-elf/8.3.1/mno-hw-mul/libgcc.a
LOAD ../civ_002_bsp//libhal_bsp.a
LOAD /home/efesxzc/intelFPGA_lite/19.1/nios2eds/bin/gnu/H-x86_64-pc-linux-gnu/bin/../lib/gcc/nios2-elf/8.3.1/../../../../../H-x86_64-pc-linux-gnu/nios2-elf/lib/mno-hw-mul/libm.a
END GROUP
LOAD /home/efesxzc/intelFPGA_lite/19.1/nios2eds/bin/gnu/H-x86_64-pc-linux-gnu/bin/../lib/gcc/nios2-elf/8.3.1/mno-hw-mul/libgcc.a
                0x0000000001000000                __alt_mem_RAM = 0x1000000

.entry          0x0000000001000000       0x20
 *(.entry)
 .entry         0x0000000001000000       0x20 ../civ_002_bsp//obj/HAL/src/crt0.o
                0x0000000001000000                __reset

.exceptions     0x0000000001000020      0x228
                0x0000000001000020                PROVIDE (__ram_exceptions_start = ABSOLUTE (.))
                0x0000000001000020                . = ALIGN (0x20)
 *(.irq)
 *(.exceptions.entry.label)
 *(.exceptions.entry.user)
 *(.exceptions.entry.ecc_fatal)
 *(.exceptions.entry)
 .exceptions.entry
                0x0000000001000020       0x8c obj/default/FreeRTOS/FreeRTOS-Kernel/portable/GCC/NiosII/port_asm.o
 *(.exceptions.irqtest.user)
 *(.exceptions.irqtest)
 .exceptions.irqtest
                0x00000000010000ac       0x14 obj/default/FreeRTOS/FreeRTOS-Kernel/portable/GCC/NiosII/port_asm.o
 *(.exceptions.irqhandler.user)
 *(.exceptions.irqhandler)
 .exceptions.irqhandler
                0x00000000010000c0        0x4 obj/default/FreeRTOS/FreeRTOS-Kernel/portable/GCC/NiosII/port_asm.o
 *(.exceptions.irqreturn.user)
 *(.exceptions.irqreturn)
 .exceptions.irqreturn
                0x00000000010000c4       0x8c obj/default/FreeRTOS/FreeRTOS-Kernel/portable/GCC/NiosII/port_asm.o
                0x00000000010000c4                restore_sp_from_pxCurrentTCB
 *(.exceptions.notirq.label)
 *(.exceptions.notirq.user)
 *(.exceptions.notirq)
 *(.exceptions.soft.user)
 *(.exceptions.soft)
 .exceptions.soft
                0x0000000001000150       0x2c obj/default/FreeRTOS/FreeRTOS-Kernel/portable/GCC/NiosII/port_asm.o
 *(.exceptions.unknown.user)
 *(.exceptions.unknown)
 *(.exceptions.exit.label)
 *(.exceptions.exit.user)
 *(.exceptions.exit)
 *(.exceptions)
 .exceptions    0x000000000100017c       0xcc ../civ_002_bsp//libhal_bsp.a(alt_irq_handler.o)
                0x000000000100017c                alt_irq_handler
                0x0000000001000248                PROVIDE (__ram_exceptions_end = ABSOLUTE (.))
                0x0000000001000020                PROVIDE (__flash_exceptions_start = LOADADDR (.exceptions))

.text           0x0000000001000248    0x2c840
                [!provide]                        PROVIDE (stext = ABSOLUTE (.))
 *(.interp)
 *(.hash)
 *(.dynsym)
 *(.dynstr)
 *(.gnu.version)
 *(.gnu.version_d)
 *(.gnu.version_r)
 *(.rel.init)
 *(.rela.init)
 *(.rel.text .rel.text.* .rel.gnu.linkonce.t.*)
 *(.rela.text .rela.text.* .rela.gnu.linkonce.t.*)
 *(.rel.fini)
 *(.rela.fini)
 *(.rel.rodata .rel.rodata.* .rel.gnu.linkonce.r.*)
 *(.rela.rodata .rela.rodata.* .rela.gnu.linkonce.r.*)
 *(.rel.data .rel.data.* .rel.gnu.linkonce.d.*)
 *(.rela.data .rela.data.* .rela.gnu.linkonce.d.*)
 *(.rel.tdata .rel.tdata.* .rel.gnu.linkonce.td.*)
 *(.rela.tdata .rela.tdata.* .rela.gnu.linkonce.td.*)
 *(.rel.tbss .rel.tbss.* .rel.gnu.linkonce.tb.*)
 *(.rela.tbss .rela.tbss.* .rela.gnu.linkonce.tb.*)
 *(.rel.ctors)
 *(.rela.ctors)
 *(.rel.dtors)
 *(.rela.dtors)
 *(.rel.got)
 *(.rela.got)
 *(.rel.sdata .rel.sdata.* .rel.gnu.linkonce.s.*)
 *(.rela.sdata .rela.sdata.* .rela.gnu.linkonce.s.*)
 *(.rel.sbss .rel.sbss.* .rel.gnu.linkonce.sb.*)
 *(.rela.sbss .rela.sbss.* .rela.gnu.linkonce.sb.*)
 *(.rel.sdata2 .rel.sdata2.* .rel.gnu.linkonce.s2.*)
 *(.rela.sdata2 .rela.sdata2.* .rela.gnu.linkonce.s2.*)
 *(.rel.sbss2 .rel.sbss2.* .rel.gnu.linkonce.sb2.*)
 *(.rela.sbss2 .rela.sbss2.* .rela.gnu.linkonce.sb2.*)
 *(.rel.bss .rel.bss.* .rel.gnu.linkonce.b.*)
 *(.rela.bss .rela.bss.* .rela.gnu.linkonce.b.*)
 *(.rel.plt)
 *(.rela.plt)
 *(.rel.dyn)
 *(.init)
 *(.plt)
 *(.text .stub .text.* .gnu.linkonce.t.*)
 .text          0x0000000001000248       0x3c ../civ_002_bsp//obj/HAL/src/crt0.o
                0x0000000001000248                _start
 .text          0x0000000001000284      0x3ac obj/default/./CLI-Commands.o
                0x00000000010005cc                vRegisterCLICommands
 .text          0x0000000001000630      0x574 obj/default/./at24c08.o
                0x0000000001000630                eeprom_init
                0x000000000100069c                eeprom_write
                0x0000000001000784                eeprom_write_8
                0x0000000001000818                eeprom_write_16
                0x00000000010008b8                eeprom_write_32
                0x0000000001000970                eeprom_read
                0x0000000001000a10                eeprom_read_32
                0x0000000001000b04                eeprom_read_8
 .text          0x0000000001000ba4      0x5d8 obj/default/./http_server.o
                0x0000000001000ba4                vStartHTTPServer
                0x0000000001000f54                prvFirmwareRXInstanceTask
 .text          0x000000000100117c      0x19c obj/default/./lm75.o
                0x000000000100117c                set_poll_period
                0x00000000010011ac                get_temp
                0x00000000010011d0                temp_getI2CStatus
                0x00000000010011f0                prvTempTask
                0x00000000010012b4                vStartTempChecking
 .text          0x0000000001001318      0x2c0 obj/default/./main.o
                0x0000000001001318                vApplicationStackOverflowHook
                0x0000000001001354                main
                0x000000000100141c                vApplicationIPNetworkEventHook
                0x0000000001001478                vApplicationMallocFailedHook
                0x00000000010014c0                vLoggingPrintf
                0x0000000001001500                xApplicationGetRandomNumber
                0x000000000100152c                ulApplicationGetNextSequenceNumber
                0x000000000100156c                ulDNSHandlePacket
                0x0000000001001590                vApplicationGetIdleTaskMemory
 .text          0x00000000010015d8      0x334 obj/default/./telnet_server.o
                0x00000000010015d8                vStartTelnetServer
 .text          0x000000000100190c        0x0 obj/default/FreeRTOS/FreeRTOS-Kernel/croutine.o
 .text          0x000000000100190c      0x77c obj/default/FreeRTOS/FreeRTOS-Kernel/event_groups.o
                0x000000000100190c                xEventGroupCreate
                0x0000000001001960                xEventGroupSync
                0x0000000001001ae4                xEventGroupWaitBits
                0x0000000001001c8c                xEventGroupClearBits
                0x0000000001001cf4                xEventGroupGetBitsFromISR
                0x0000000001001d30                xEventGroupSetBits
                0x0000000001001eb0                vEventGroupDelete
                0x0000000001001f24                vEventGroupSetBitsCallback
                0x0000000001001f60                vEventGroupClearBitsCallback
                0x000000000100200c                uxEventGroupGetNumber
                0x0000000001002054                vEventGroupSetNumber
 .text          0x0000000001002088      0x290 obj/default/FreeRTOS/FreeRTOS-Kernel/list.o
                0x0000000001002088                vListInitialise
                0x00000000010020f0                vListInitialiseItem
                0x000000000100211c                vListInsertEnd
                0x00000000010021a8                vListInsert
                0x0000000001002280                uxListRemove
 .text          0x0000000001002318      0x380 obj/default/FreeRTOS/FreeRTOS-Kernel/portable/GCC/NiosII/port.o
                0x0000000001002344                pxPortInitialiseStack
                0x0000000001002424                xPortStartScheduler
                0x000000000100245c                vPortEndScheduler
                0x00000000010024f0                vPortSysTickHandler
                0x0000000001002534                alt_irq_register
 .text          0x0000000001002698       0x88 obj/default/FreeRTOS/FreeRTOS-Kernel/portable/portTimer.o
                0x0000000001002698                vConfigureTimerForRunTimeStats
                0x00000000010026d0                vTaskGetTimestamp
 .text          0x0000000001002720     0x1518 obj/default/FreeRTOS/FreeRTOS-Kernel/queue.o
                0x0000000001002720                xQueueGenericReset
                0x000000000100284c                xQueueGenericCreate
                0x00000000010029d4                xQueueCreateMutex
                0x0000000001002a30                xQueueGiveMutexRecursive
                0x0000000001002ac0                xQueueTakeMutexRecursive
                0x0000000001002b5c                xQueueCreateCountingSemaphore
                0x0000000001002bb4                xQueueGenericSend
                0x0000000001002d68                xQueueGenericSendFromISR
                0x0000000001002e5c                xQueueGiveFromISR
                0x0000000001002f38                xQueueReceive
                0x00000000010030e0                xQueueSemaphoreTake
                0x00000000010032f0                xQueuePeek
                0x00000000010034a0                xQueueReceiveFromISR
                0x0000000001003584                xQueuePeekFromISR
                0x0000000001003600                uxQueueMessagesWaiting
                0x0000000001003640                uxQueueSpacesAvailable
                0x0000000001003694                uxQueueMessagesWaitingFromISR
                0x00000000010036cc                vQueueDelete
                0x0000000001003708                uxQueueGetQueueNumber
                0x0000000001003730                vQueueSetQueueNumber
                0x0000000001003764                ucQueueGetQueueType
                0x0000000001003b48                xQueueIsQueueEmptyFromISR
                0x0000000001003be8                xQueueIsQueueFullFromISR
 .text          0x0000000001003c38      0xfbc obj/default/FreeRTOS/FreeRTOS-Kernel/stream_buffer.o
                0x0000000001003c38                xStreamBufferGenericCreate
                0x0000000001003cf8                vStreamBufferDelete
                0x0000000001003d5c                xStreamBufferReset
                0x0000000001003e10                xStreamBufferSetTriggerLevel
                0x0000000001003e7c                xStreamBufferSpacesAvailable
                0x0000000001003f04                xStreamBufferBytesAvailable
                0x0000000001003f44                xStreamBufferSend
                0x0000000001004110                xStreamBufferSendFromISR
                0x00000000010042d8                xStreamBufferReceive
                0x0000000001004440                xStreamBufferNextMessageLengthBytes
                0x00000000010044e8                xStreamBufferReceiveFromISR
                0x000000000100468c                xStreamBufferIsEmpty
                0x00000000010046e4                xStreamBufferIsFull
                0x0000000001004760                xStreamBufferSendCompletedFromISR
                0x00000000010047e8                xStreamBufferReceiveCompletedFromISR
                0x0000000001004b6c                uxStreamBufferGetStreamBufferNumber
                0x0000000001004b94                vStreamBufferSetStreamBufferNumber
                0x0000000001004bc8                ucStreamBufferGetStreamBufferType
 .text          0x0000000001004bf4     0x3130 obj/default/FreeRTOS/FreeRTOS-Kernel/tasks.o
                0x0000000001004bf4                xTaskCreate
                0x0000000001004fe4                vTaskDelete
                0x00000000010050cc                xTaskDelayUntil
                0x00000000010051bc                vTaskDelay
                0x0000000001005218                eTaskGetState
                0x000000000100534c                uxTaskPriorityGet
                0x00000000010053a4                uxTaskPriorityGetFromISR
                0x00000000010053f0                vTaskPrioritySet
                0x00000000010055b0                vTaskSuspend
                0x0000000001005740                vTaskResume
                0x0000000001005818                xTaskResumeFromISR
                0x000000000100590c                vTaskStartScheduler
                0x00000000010059a0                vTaskEndScheduler
                0x00000000010059e8                vTaskSuspendAll
                0x0000000001005a14                xTaskResumeAll
                0x0000000001005b70                xTaskGetTickCount
                0x0000000001005b98                xTaskGetTickCountFromISR
                0x0000000001005bc4                uxTaskGetNumberOfTasks
                0x0000000001005be4                pcTaskGetName
                0x0000000001005c24                uxTaskGetSystemState
                0x0000000001005de8                xTaskCatchUpTicks
                0x0000000001005e30                xTaskIncrementTick
                0x0000000001005ff4                vTaskSwitchContext
                0x0000000001006110                vTaskPlaceOnEventList
                0x0000000001006160                vTaskPlaceOnUnorderedEventList
                0x00000000010061c4                xTaskRemoveFromEventList
                0x00000000010062c4                vTaskRemoveFromUnorderedEventList
                0x0000000001006398                vTaskSetTimeOutState
                0x00000000010063e4                vTaskInternalSetTimeOutState
                0x0000000001006420                xTaskCheckForTimeOut
                0x0000000001006508                vTaskMissedYield
                0x0000000001006530                uxTaskGetTaskNumber
                0x0000000001006578                vTaskSetTaskNumber
                0x0000000001006714                vTaskGetInfo
                0x0000000001006a00                uxTaskGetStackHighWaterMark
                0x0000000001006aec                xTaskGetCurrentTaskHandle
                0x0000000001006b14                xTaskPriorityInherit
                0x0000000001006c74                xTaskPriorityDisinherit
                0x0000000001006d7c                vTaskPriorityDisinheritAfterTimeout
                0x0000000001006ed8                vTaskEnterCritical
                0x0000000001006f2c                vTaskExitCritical
                0x000000000100701c                vTaskList
                0x0000000001007220                uxTaskResetEventItemValue
                0x0000000001007264                pvTaskIncrementMutexHeldCount
                0x000000000100729c                ulTaskGenericNotifyTake
                0x00000000010073a0                xTaskGenericNotifyWait
                0x0000000001007504                xTaskGenericNotify
                0x0000000001007738                xTaskGenericNotifyFromISR
                0x00000000010079a4                vTaskGenericNotifyGiveFromISR
                0x0000000001007b04                xTaskGenericNotifyStateClear
                0x0000000001007b90                ulTaskGenericNotifyValueClear
 .text          0x0000000001007d24        0x0 obj/default/FreeRTOS/FreeRTOS-Kernel/timers.o
 .text          0x0000000001007d24      0x508 obj/default/FreeRTOS/FreeRTOS-Plus-CLI/FreeRTOS_CLI.o
                0x0000000001007d24                FreeRTOS_CLIRegisterCommand
                0x0000000001007da0                FreeRTOS_CLIProcessCommand
                0x0000000001007f54                FreeRTOS_CLIGetOutputBuffer
                0x0000000001007f74                FreeRTOS_CLIGetParameter
 .text          0x000000000100822c      0xea8 obj/default/FreeRTOS/FreeRTOS-Plus-TCP/FreeRTOS_ARP.o
                0x0000000001008274                eARPProcessPacket
                0x0000000001008530                vARPRefreshCacheEntry
                0x000000000100888c                eARPGetCacheEntry
                0x0000000001008af0                vARPAgeCache
                0x0000000001008cd4                vARPSendGratuitous
                0x0000000001008d08                FreeRTOS_OutputARPRequest
                0x0000000001008da4                vARPGenerateRequestPacket
                0x0000000001008f10                FreeRTOS_ClearARP
                0x0000000001008f4c                xCheckLoopback
                0x0000000001009038                FreeRTOS_PrintARPCache
 .text          0x00000000010090d4        0x0 obj/default/FreeRTOS/FreeRTOS-Plus-TCP/FreeRTOS_DHCP.o
 .text          0x00000000010090d4        0x0 obj/default/FreeRTOS/FreeRTOS-Plus-TCP/FreeRTOS_DNS.o
 .text          0x00000000010090d4     0x2b44 obj/default/FreeRTOS/FreeRTOS-Plus-TCP/FreeRTOS_IP.o
                0x00000000010094b8                xIsCallingFromIPTask
                0x00000000010097f0                FreeRTOS_NetworkDown
                0x0000000001009840                FreeRTOS_NetworkDownFromISR
                0x00000000010098a0                FreeRTOS_GetUDPPayloadBuffer
                0x0000000001009934                pxDuplicateNetworkBufferWithDescriptor
                0x0000000001009a54                pxUDPPayloadBuffer_to_NetworkBuffer
                0x0000000001009a88                FreeRTOS_ReleaseUDPPayloadBuffer
                0x0000000001009ac4                FreeRTOS_IPInit
                0x0000000001009d90                FreeRTOS_GetAddressConfiguration
                0x0000000001009e20                FreeRTOS_SetAddressConfiguration
                0x0000000001009eb0                xSendEventToIPTask
                0x0000000001009ef8                xSendEventStructToIPTask
                0x0000000001009ff8                eConsiderFrameForProcessing
                0x000000000100a154                vIPNetworkUpCalls
                0x000000000100a2dc                xIsIPv4Multicast
                0x000000000100a360                vSetMultiCastIPv4MacAddress
                0x000000000100ac94                usGenerateProtocolChecksum
                0x000000000100b2b0                usGenerateChecksum
                0x000000000100b5ec                vReturnEthernetFrame
                0x000000000100b688                FreeRTOS_GetIPAddress
                0x000000000100b6ac                FreeRTOS_SetIPAddress
                0x000000000100b6dc                FreeRTOS_GetGatewayAddress
                0x000000000100b700                FreeRTOS_GetDNSServerAddress
                0x000000000100b724                FreeRTOS_GetNetmask
                0x000000000100b748                FreeRTOS_UpdateMACAddress
                0x000000000100b788                FreeRTOS_GetMACAddress
                0x000000000100b7ac                FreeRTOS_SetNetmask
                0x000000000100b7dc                FreeRTOS_SetGatewayAddress
                0x000000000100b80c                xIPIsNetworkTaskReady
                0x000000000100b82c                FreeRTOS_IsNetworkUp
                0x000000000100b84c                FreeRTOS_strerror_r
 .text          0x000000000100bc18     0x4198 obj/default/FreeRTOS/FreeRTOS-Plus-TCP/FreeRTOS_Sockets.o
                0x000000000100c0b0                vNetworkSocketsInit
                0x000000000100c1a0                FreeRTOS_socket
                0x000000000100c348                FreeRTOS_CreateSocketSet
                0x000000000100c3c4                FreeRTOS_DeleteSocketSet
                0x000000000100c410                FreeRTOS_FD_SET
                0x000000000100c494                FreeRTOS_FD_CLR
                0x000000000100c510                FreeRTOS_FD_ISSET
                0x000000000100c568                FreeRTOS_select
                0x000000000100c6c4                FreeRTOS_recvfrom
                0x000000000100c8f4                FreeRTOS_sendto
                0x000000000100cad8                FreeRTOS_bind
                0x000000000100cc28                vSocketBind
                0x000000000100ce08                FreeRTOS_closesocket
                0x000000000100ce94                vSocketClose
                0x000000000100d2a0                FreeRTOS_setsockopt
                0x000000000100d970                pxUDPSocketLookup
                0x000000000100d9d0                FreeRTOS_inet_ntoa
                0x000000000100dba8                FreeRTOS_inet_pton
                0x000000000100dc08                FreeRTOS_inet_ntop
                0x000000000100dc6c                FreeRTOS_inet_ntop4
                0x000000000100dce4                FreeRTOS_inet_pton4
                0x000000000100def8                FreeRTOS_inet_addr
                0x000000000100df38                FreeRTOS_GetLocalAddress
                0x000000000100dfac                vSocketWakeUpUser
                0x000000000100e310                FreeRTOS_connect
                0x000000000100e420                FreeRTOS_accept
                0x000000000100e694                FreeRTOS_recv
                0x000000000100ea44                FreeRTOS_get_tx_head
                0x000000000100eb10                FreeRTOS_send
                0x000000000100edc0                FreeRTOS_listen
                0x000000000100ef10                FreeRTOS_shutdown
                0x000000000100efb0                xTCPTimerCheck
                0x000000000100f11c                pxTCPSocketLookup
                0x000000000100f228                FreeRTOS_get_rx_buf
                0x000000000100f42c                lTCPAddRxdata
                0x000000000100f5cc                FreeRTOS_GetRemoteAddress
                0x000000000100f6a4                FreeRTOS_maywrite
                0x000000000100f778                FreeRTOS_tx_space
                0x000000000100f7fc                FreeRTOS_tx_size
                0x000000000100f878                FreeRTOS_issocketconnected
                0x000000000100f8f8                FreeRTOS_mss
                0x000000000100f954                FreeRTOS_connstatus
                0x000000000100f9b0                FreeRTOS_rx_size
                0x000000000100fa2c                FreeRTOS_netstat
                0x000000000100fa70                vSocketSelect
 .text          0x000000000100fdb0      0x5a8 obj/default/FreeRTOS/FreeRTOS-Plus-TCP/FreeRTOS_Stream_Buffer.o
                0x0000000001010008                uxStreamBufferAdd
                0x00000000010101c4                uxStreamBufferGet
 .text          0x0000000001010358     0x57ec obj/default/FreeRTOS/FreeRTOS-Plus-TCP/FreeRTOS_TCP_IP.o
                0x00000000010108fc                xTCPSocketCheck
                0x0000000001012668                vTCPStateChange
                0x0000000001014c2c                xProcessReceivedTCPPacket
                0x00000000010159d0                FreeRTOS_GetTCPStateName
                0x0000000001015a34                xTCPCheckNewClient
 .text          0x0000000001015b44      0x958 obj/default/FreeRTOS/FreeRTOS-Plus-TCP/FreeRTOS_TCP_WIN.o
                0x0000000001015c88                vTCPWindowCreate
                0x0000000001015d08                vTCPWindowInit
                0x0000000001015e68                lTCPWindowRxCheck
                0x0000000001015edc                lTCPWindowTxAdd
                0x0000000001016070                ulTCPWindowTxGet
                0x0000000001016174                xTCPWindowTxDone
                0x0000000001016200                xTCPWindowTxHasData
                0x00000000010162ec                ulTCPWindowTxAck
                0x0000000001016434                xTCPWindowRxEmpty
                0x0000000001016478                vTCPWindowDestroy
 .text          0x000000000101649c      0x704 obj/default/FreeRTOS/FreeRTOS-Plus-TCP/FreeRTOS_UDP_IP.o
                0x00000000010164e4                vProcessGeneratedUDPPacket
                0x0000000001016a74                xProcessReceivedUDPPacket
 .text          0x0000000001016ba0      0x38c obj/default/FreeRTOS/FreeRTOS-Plus-TCP/portable/NetworkInterface/ENC28J60/NetworkInterface.o
                0x0000000001016ba0                process_data_packet
                0x0000000001016c70                isr_rx_packet
                0x0000000001016cb8                nIRQ_Initial
                0x0000000001016d0c                xNetworkInterfaceInitialise
                0x0000000001016d64                vNetworkInterfaceAllocateRAMToBuffers
                0x0000000001016e44                xGetPhyLinkStatus
                0x0000000001016e64                vNetworkNotifyIFDown
                0x0000000001016e98                vNetworkNotifyIFUp
                0x0000000001016ecc                xNetworkInterfaceOutput
 .text          0x0000000001016f2c      0xb1c obj/default/FreeRTOS/FreeRTOS-Plus-TCP/portable/NetworkInterface/ENC28J60/enc.o
                0x0000000001016f2c                enc_delay
                0x0000000001016f70                eth_set_bit
                0x0000000001016fe8                eth_clear_bit
                0x0000000001017060                eth_set_bank
                0x00000000010170d0                eth_read_ctrl_8
                0x0000000001017194                eth_read_ctrl_16
                0x0000000001017218                eth_write_ctrl_8
                0x000000000101729c                eth_write_ctrl_16
                0x000000000101732c                eth_write_phy
                0x00000000010173a0                eth_read_phy
                0x0000000001017414                eth_soft_reset
                0x0000000001017468                eth_get_pktcnt
                0x0000000001017498                eth_init
                0x0000000001017664                eth_read_buf_16
                0x00000000010176f4                eth_read_buf_8
                0x0000000001017754                eth_read_buf
                0x00000000010177bc                enc_get_buf_len
                0x0000000001017810                eth_rx_packet
                0x0000000001017920                enc_tx_packet
 .text          0x0000000001017a48      0x68c obj/default/FreeRTOS/FreeRTOS-Kernel/portable/MemMang/heap_4.o
                0x0000000001017a48                pvPortMalloc
                0x0000000001017c50                vPortFree
                0x0000000001017d14                xPortGetFreeHeapSize
                0x0000000001017d34                xPortGetMinimumEverFreeHeapSize
                0x0000000001017d54                vPortInitialiseBlocks
                0x0000000001017fc8                vPortGetHeapStats
 .text          0x00000000010180d4      0x4a4 obj/default/FreeRTOS/FreeRTOS-Plus-TCP/portable/BufferManagement/BufferAllocation_1.o
                0x0000000001018118                xNetworkBuffersInitialise
                0x000000000101824c                pxGetNetworkBufferWithDescriptor
                0x0000000001018350                pxNetworkBufferGetFromISR
                0x00000000010183d0                vNetworkBufferReleaseFromISR
                0x000000000101842c                vReleaseNetworkBufferAndDescriptor
                0x0000000001018500                uxGetMinimumFreeNetworkBuffers
                0x0000000001018520                uxGetNumberOfFreeNetworkBuffers
                0x0000000001018544                pxResizeNetworkBufferWithDescriptor
 .text          0x0000000001018578        0x0 obj/default/FreeRTOS/FreeRTOS-Kernel/portable/GCC/NiosII/port_asm.o
 .text          0x0000000001018578      0x1b8 /home/efesxzc/intelFPGA_lite/19.1/nios2eds/bin/gnu/H-x86_64-pc-linux-gnu/bin/../lib/gcc/nios2-elf/8.3.1/mno-hw-mul/libgcc.a(lib2-divmod.o)
                0x0000000001018578                __divsi3
                0x00000000010185f8                __modsi3
                0x0000000001018670                __udivsi3
                0x00000000010186d4                __umodsi3
 .text          0x0000000001018730       0x28 /home/efesxzc/intelFPGA_lite/19.1/nios2eds/bin/gnu/H-x86_64-pc-linux-gnu/bin/../lib/gcc/nios2-elf/8.3.1/mno-hw-mul/libgcc.a(lib2-mul.o)
                0x0000000001018730                __mulsi3
 .text          0x0000000001018758        0x0 /home/efesxzc/intelFPGA_lite/19.1/nios2eds/bin/gnu/H-x86_64-pc-linux-gnu/bin/../lib/gcc/nios2-elf/8.3.1/../../../../../H-x86_64-pc-linux-gnu/nios2-elf/lib/mno-hw-mul/libc.a(lib_a-memcmp.o)
 .text.memcmp   0x0000000001018758       0x8c /home/efesxzc/intelFPGA_lite/19.1/nios2eds/bin/gnu/H-x86_64-pc-linux-gnu/bin/../lib/gcc/nios2-elf/8.3.1/../../../../../H-x86_64-pc-linux-gnu/nios2-elf/lib/mno-hw-mul/libc.a(lib_a-memcmp.o)
                0x0000000001018758                memcmp
 .text          0x00000000010187e4        0x0 /home/efesxzc/intelFPGA_lite/19.1/nios2eds/bin/gnu/H-x86_64-pc-linux-gnu/bin/../lib/gcc/nios2-elf/8.3.1/../../../../../H-x86_64-pc-linux-gnu/nios2-elf/lib/mno-hw-mul/libc.a(lib_a-memcpy.o)
 .text.memcpy   0x00000000010187e4      0x100 /home/efesxzc/intelFPGA_lite/19.1/nios2eds/bin/gnu/H-x86_64-pc-linux-gnu/bin/../lib/gcc/nios2-elf/8.3.1/../../../../../H-x86_64-pc-linux-gnu/nios2-elf/lib/mno-hw-mul/libc.a(lib_a-memcpy.o)
                0x00000000010187e4                memcpy
 .text          0x00000000010188e4        0x0 /home/efesxzc/intelFPGA_lite/19.1/nios2eds/bin/gnu/H-x86_64-pc-linux-gnu/bin/../lib/gcc/nios2-elf/8.3.1/../../../../../H-x86_64-pc-linux-gnu/nios2-elf/lib/mno-hw-mul/libc.a(lib_a-memmove.o)
 .text.memmove  0x00000000010188e4      0x12c /home/efesxzc/intelFPGA_lite/19.1/nios2eds/bin/gnu/H-x86_64-pc-linux-gnu/bin/../lib/gcc/nios2-elf/8.3.1/../../../../../H-x86_64-pc-linux-gnu/nios2-elf/lib/mno-hw-mul/libc.a(lib_a-memmove.o)
                0x00000000010188e4                memmove
 .text          0x0000000001018a10        0x0 /home/efesxzc/intelFPGA_lite/19.1/nios2eds/bin/gnu/H-x86_64-pc-linux-gnu/bin/../lib/gcc/nios2-elf/8.3.1/../../../../../H-x86_64-pc-linux-gnu/nios2-elf/lib/mno-hw-mul/libc.a(lib_a-memset.o)
 .text.memset   0x0000000001018a10       0xf0 /home/efesxzc/intelFPGA_lite/19.1/nios2eds/bin/gnu/H-x86_64-pc-linux-gnu/bin/../lib/gcc/nios2-elf/8.3.1/../../../../../H-x86_64-pc-linux-gnu/nios2-elf/lib/mno-hw-mul/libc.a(lib_a-memset.o)
                0x0000000001018a10                memset
 .text          0x0000000001018b00        0x0 /home/efesxzc/intelFPGA_lite/19.1/nios2eds/bin/gnu/H-x86_64-pc-linux-gnu/bin/../lib/gcc/nios2-elf/8.3.1/../../../../../H-x86_64-pc-linux-gnu/nios2-elf/lib/mno-hw-mul/libc.a(lib_a-printf.o)
 .text._printf_r
                0x0000000001018b00       0x30 /home/efesxzc/intelFPGA_lite/19.1/nios2eds/bin/gnu/H-x86_64-pc-linux-gnu/bin/../lib/gcc/nios2-elf/8.3.1/../../../../../H-x86_64-pc-linux-gnu/nios2-elf/lib/mno-hw-mul/libc.a(lib_a-printf.o)
                0x0000000001018b00                _printf_r
 .text.printf   0x0000000001018b30       0x38 /home/efesxzc/intelFPGA_lite/19.1/nios2eds/bin/gnu/H-x86_64-pc-linux-gnu/bin/../lib/gcc/nios2-elf/8.3.1/../../../../../H-x86_64-pc-linux-gnu/nios2-elf/lib/mno-hw-mul/libc.a(lib_a-printf.o)
                0x0000000001018b30                printf
 .text          0x0000000001018b68        0x0 /home/efesxzc/intelFPGA_lite/19.1/nios2eds/bin/gnu/H-x86_64-pc-linux-gnu/bin/../lib/gcc/nios2-elf/8.3.1/../../../../../H-x86_64-pc-linux-gnu/nios2-elf/lib/mno-hw-mul/libc.a(lib_a-puts.o)
 .text._puts_r  0x0000000001018b68       0xcc /home/efesxzc/intelFPGA_lite/19.1/nios2eds/bin/gnu/H-x86_64-pc-linux-gnu/bin/../lib/gcc/nios2-elf/8.3.1/../../../../../H-x86_64-pc-linux-gnu/nios2-elf/lib/mno-hw-mul/libc.a(lib_a-puts.o)
                0x0000000001018b68                _puts_r
 .text.puts     0x0000000001018c34       0x10 /home/efesxzc/intelFPGA_lite/19.1/nios2eds/bin/gnu/H-x86_64-pc-linux-gnu/bin/../lib/gcc/nios2-elf/8.3.1/../../../../../H-x86_64-pc-linux-gnu/nios2-elf/lib/mno-hw-mul/libc.a(lib_a-puts.o)
                0x0000000001018c34                puts
 .text          0x0000000001018c44        0x0 /home/efesxzc/intelFPGA_lite/19.1/nios2eds/bin/gnu/H-x86_64-pc-linux-gnu/bin/../lib/gcc/nios2-elf/8.3.1/../../../../../H-x86_64-pc-linux-gnu/nios2-elf/lib/mno-hw-mul/libc.a(lib_a-rand.o)
 .text.srand    0x0000000001018c44       0x14 /home/efesxzc/intelFPGA_lite/19.1/nios2eds/bin/gnu/H-x86_64-pc-linux-gnu/bin/../lib/gcc/nios2-elf/8.3.1/../../../../../H-x86_64-pc-linux-gnu/nios2-elf/lib/mno-hw-mul/libc.a(lib_a-rand.o)
                0x0000000001018c44                srand
 .text.rand     0x0000000001018c58       0x60 /home/efesxzc/intelFPGA_lite/19.1/nios2eds/bin/gnu/H-x86_64-pc-linux-gnu/bin/../lib/gcc/nios2-elf/8.3.1/../../../../../H-x86_64-pc-linux-gnu/nios2-elf/lib/mno-hw-mul/libc.a(lib_a-rand.o)
                0x0000000001018c58                rand
 .text          0x0000000001018cb8        0x0 /home/efesxzc/intelFPGA_lite/19.1/nios2eds/bin/gnu/H-x86_64-pc-linux-gnu/bin/../lib/gcc/nios2-elf/8.3.1/../../../../../H-x86_64-pc-linux-gnu/nios2-elf/lib/mno-hw-mul/libc.a(lib_a-snprintf.o)
 .text._snprintf_r
                0x0000000001018cb8       0xc4 /home/efesxzc/intelFPGA_lite/19.1/nios2eds/bin/gnu/H-x86_64-pc-linux-gnu/bin/../lib/gcc/nios2-elf/8.3.1/../../../../../H-x86_64-pc-linux-gnu/nios2-elf/lib/mno-hw-mul/libc.a(lib_a-snprintf.o)
                0x0000000001018cb8                _snprintf_r
 .text.snprintf
                0x0000000001018d7c       0xcc /home/efesxzc/intelFPGA_lite/19.1/nios2eds/bin/gnu/H-x86_64-pc-linux-gnu/bin/../lib/gcc/nios2-elf/8.3.1/../../../../../H-x86_64-pc-linux-gnu/nios2-elf/lib/mno-hw-mul/libc.a(lib_a-snprintf.o)
                0x0000000001018d7c                snprintf
 .text          0x0000000001018e48        0x0 /home/efesxzc/intelFPGA_lite/19.1/nios2eds/bin/gnu/H-x86_64-pc-linux-gnu/bin/../lib/gcc/nios2-elf/8.3.1/../../../../../H-x86_64-pc-linux-gnu/nios2-elf/lib/mno-hw-mul/libc.a(lib_a-sprintf.o)
 .text._sprintf_r
                0x0000000001018e48       0x54 /home/efesxzc/intelFPGA_lite/19.1/nios2eds/bin/gnu/H-x86_64-pc-linux-gnu/bin/../lib/gcc/nios2-elf/8.3.1/../../../../../H-x86_64-pc-linux-gnu/nios2-elf/lib/mno-hw-mul/libc.a(lib_a-sprintf.o)
                0x0000000001018e48                _sprintf_r
 .text.sprintf  0x0000000001018e9c       0x64 /home/efesxzc/intelFPGA_lite/19.1/nios2eds/bin/gnu/H-x86_64-pc-linux-gnu/bin/../lib/gcc/nios2-elf/8.3.1/../../../../../H-x86_64-pc-linux-gnu/nios2-elf/lib/mno-hw-mul/libc.a(lib_a-sprintf.o)
                0x0000000001018e9c                sprintf
 .text          0x0000000001018f00        0x0 /home/efesxzc/intelFPGA_lite/19.1/nios2eds/bin/gnu/H-x86_64-pc-linux-gnu/bin/../lib/gcc/nios2-elf/8.3.1/../../../../../H-x86_64-pc-linux-gnu/nios2-elf/lib/mno-hw-mul/libc.a(lib_a-strcpy.o)
 .text.strcpy   0x0000000001018f00       0x8c /home/efesxzc/intelFPGA_lite/19.1/nios2eds/bin/gnu/H-x86_64-pc-linux-gnu/bin/../lib/gcc/nios2-elf/8.3.1/../../../../../H-x86_64-pc-linux-gnu/nios2-elf/lib/mno-hw-mul/libc.a(lib_a-strcpy.o)
                0x0000000001018f00                strcpy
 .text          0x0000000001018f8c        0x0 /home/efesxzc/intelFPGA_lite/19.1/nios2eds/bin/gnu/H-x86_64-pc-linux-gnu/bin/../lib/gcc/nios2-elf/8.3.1/../../../../../H-x86_64-pc-linux-gnu/nios2-elf/lib/mno-hw-mul/libc.a(lib_a-strlen.o)
 .text.strlen   0x0000000001018f8c       0x98 /home/efesxzc/intelFPGA_lite/19.1/nios2eds/bin/gnu/H-x86_64-pc-linux-gnu/bin/../lib/gcc/nios2-elf/8.3.1/../../../../../H-x86_64-pc-linux-gnu/nios2-elf/lib/mno-hw-mul/libc.a(lib_a-strlen.o)
                0x0000000001018f8c                strlen
 .text          0x0000000001019024        0x0 /home/efesxzc/intelFPGA_lite/19.1/nios2eds/bin/gnu/H-x86_64-pc-linux-gnu/bin/../lib/gcc/nios2-elf/8.3.1/../../../../../H-x86_64-pc-linux-gnu/nios2-elf/lib/mno-hw-mul/libc.a(lib_a-strncmp.o)
 .text.strncmp  0x0000000001019024       0xfc /home/efesxzc/intelFPGA_lite/19.1/nios2eds/bin/gnu/H-x86_64-pc-linux-gnu/bin/../lib/gcc/nios2-elf/8.3.1/../../../../../H-x86_64-pc-linux-gnu/nios2-elf/lib/mno-hw-mul/libc.a(lib_a-strncmp.o)
                0x0000000001019024                strncmp
 .text          0x0000000001019120        0x0 /home/efesxzc/intelFPGA_lite/19.1/nios2eds/bin/gnu/H-x86_64-pc-linux-gnu/bin/../lib/gcc/nios2-elf/8.3.1/../../../../../H-x86_64-pc-linux-gnu/nios2-elf/lib/mno-hw-mul/libc.a(lib_a-strncpy.o)
 .text.strncpy  0x0000000001019120       0xe4 /home/efesxzc/intelFPGA_lite/19.1/nios2eds/bin/gnu/H-x86_64-pc-linux-gnu/bin/../lib/gcc/nios2-elf/8.3.1/../../../../../H-x86_64-pc-linux-gnu/nios2-elf/lib/mno-hw-mul/libc.a(lib_a-strncpy.o)
                0x0000000001019120                strncpy
 .text          0x0000000001019204        0x0 /home/efesxzc/intelFPGA_lite/19.1/nios2eds/bin/gnu/H-x86_64-pc-linux-gnu/bin/../lib/gcc/nios2-elf/8.3.1/../../../../../H-x86_64-pc-linux-gnu/nios2-elf/lib/mno-hw-mul/libc.a(lib_a-strstr.o)
 .text.two_way_long_needle
                0x0000000001019204      0x400 /home/efesxzc/intelFPGA_lite/19.1/nios2eds/bin/gnu/H-x86_64-pc-linux-gnu/bin/../lib/gcc/nios2-elf/8.3.1/../../../../../H-x86_64-pc-linux-gnu/nios2-elf/lib/mno-hw-mul/libc.a(lib_a-strstr.o)
 .text.strstr   0x0000000001019604      0x28c /home/efesxzc/intelFPGA_lite/19.1/nios2eds/bin/gnu/H-x86_64-pc-linux-gnu/bin/../lib/gcc/nios2-elf/8.3.1/../../../../../H-x86_64-pc-linux-gnu/nios2-elf/lib/mno-hw-mul/libc.a(lib_a-strstr.o)
                0x0000000001019604                strstr
 .text          0x0000000001019890        0x0 /home/efesxzc/intelFPGA_lite/19.1/nios2eds/bin/gnu/H-x86_64-pc-linux-gnu/bin/../lib/gcc/nios2-elf/8.3.1/../../../../../H-x86_64-pc-linux-gnu/nios2-elf/lib/mno-hw-mul/libc.a(lib_a-strtol.o)
 .text._strtol_l.isra.0
                0x0000000001019890      0x23c /home/efesxzc/intelFPGA_lite/19.1/nios2eds/bin/gnu/H-x86_64-pc-linux-gnu/bin/../lib/gcc/nios2-elf/8.3.1/../../../../../H-x86_64-pc-linux-gnu/nios2-elf/lib/mno-hw-mul/libc.a(lib_a-strtol.o)
 .text._strtol_r
                0x0000000001019acc        0x4 /home/efesxzc/intelFPGA_lite/19.1/nios2eds/bin/gnu/H-x86_64-pc-linux-gnu/bin/../lib/gcc/nios2-elf/8.3.1/../../../../../H-x86_64-pc-linux-gnu/nios2-elf/lib/mno-hw-mul/libc.a(lib_a-strtol.o)
                0x0000000001019acc                _strtol_r
 .text.strtol_l
                0x0000000001019ad0       0x18 /home/efesxzc/intelFPGA_lite/19.1/nios2eds/bin/gnu/H-x86_64-pc-linux-gnu/bin/../lib/gcc/nios2-elf/8.3.1/../../../../../H-x86_64-pc-linux-gnu/nios2-elf/lib/mno-hw-mul/libc.a(lib_a-strtol.o)
                0x0000000001019ad0                strtol_l
 .text.strtol   0x0000000001019ae8       0x18 /home/efesxzc/intelFPGA_lite/19.1/nios2eds/bin/gnu/H-x86_64-pc-linux-gnu/bin/../lib/gcc/nios2-elf/8.3.1/../../../../../H-x86_64-pc-linux-gnu/nios2-elf/lib/mno-hw-mul/libc.a(lib_a-strtol.o)
                0x0000000001019ae8                strtol
 .text          0x0000000001019b00        0x0 /home/efesxzc/intelFPGA_lite/19.1/nios2eds/bin/gnu/H-x86_64-pc-linux-gnu/bin/../lib/gcc/nios2-elf/8.3.1/../../../../../H-x86_64-pc-linux-gnu/nios2-elf/lib/mno-hw-mul/libc.a(lib_a-svfprintf.o)
 .text.___svfprintf_internal_r
                0x0000000001019b00     0x2140 /home/efesxzc/intelFPGA_lite/19.1/nios2eds/bin/gnu/H-x86_64-pc-linux-gnu/bin/../lib/gcc/nios2-elf/8.3.1/../../../../../H-x86_64-pc-linux-gnu/nios2-elf/lib/mno-hw-mul/libc.a(lib_a-svfprintf.o)
                0x0000000001019b00                ___svfprintf_internal_r
 .text          0x000000000101bc40        0x0 /home/efesxzc/intelFPGA_lite/19.1/nios2eds/bin/gnu/H-x86_64-pc-linux-gnu/bin/../lib/gcc/nios2-elf/8.3.1/../../../../../H-x86_64-pc-linux-gnu/nios2-elf/lib/mno-hw-mul/libc.a(lib_a-vfprintf.o)
 .text.___vfprintf_internal_r
                0x000000000101bc40     0x2188 /home/efesxzc/intelFPGA_lite/19.1/nios2eds/bin/gnu/H-x86_64-pc-linux-gnu/bin/../lib/gcc/nios2-elf/8.3.1/../../../../../H-x86_64-pc-linux-gnu/nios2-elf/lib/mno-hw-mul/libc.a(lib_a-vfprintf.o)
                0x000000000101bc40                ___vfprintf_internal_r
 .text.__vfprintf_internal
                0x000000000101ddc8       0x18 /home/efesxzc/intelFPGA_lite/19.1/nios2eds/bin/gnu/H-x86_64-pc-linux-gnu/bin/../lib/gcc/nios2-elf/8.3.1/../../../../../H-x86_64-pc-linux-gnu/nios2-elf/lib/mno-hw-mul/libc.a(lib_a-vfprintf.o)
                0x000000000101ddc8                __vfprintf_internal
 .text.__sbprintf
                0x000000000101dde0       0xc0 /home/efesxzc/intelFPGA_lite/19.1/nios2eds/bin/gnu/H-x86_64-pc-linux-gnu/bin/../lib/gcc/nios2-elf/8.3.1/../../../../../H-x86_64-pc-linux-gnu/nios2-elf/lib/mno-hw-mul/libc.a(lib_a-vfprintf.o)
 .text          0x000000000101dea0        0x0 /home/efesxzc/intelFPGA_lite/19.1/nios2eds/bin/gnu/H-x86_64-pc-linux-gnu/bin/../lib/gcc/nios2-elf/8.3.1/../../../../../H-x86_64-pc-linux-gnu/nios2-elf/lib/mno-hw-mul/libc.a(lib_a-wsetup.o)
 .text.__swsetup_r
                0x000000000101dea0      0x160 /home/efesxzc/intelFPGA_lite/19.1/nios2eds/bin/gnu/H-x86_64-pc-linux-gnu/bin/../lib/gcc/nios2-elf/8.3.1/../../../../../H-x86_64-pc-linux-gnu/nios2-elf/lib/mno-hw-mul/libc.a(lib_a-wsetup.o)
                0x000000000101dea0                __swsetup_r
 .text          0x000000000101e000        0x0 /home/efesxzc/intelFPGA_lite/19.1/nios2eds/bin/gnu/H-x86_64-pc-linux-gnu/bin/../lib/gcc/nios2-elf/8.3.1/../../../../../H-x86_64-pc-linux-gnu/nios2-elf/lib/mno-hw-mul/libc.a(lib_a-ctype_.o)
 .text          0x000000000101e000        0x0 /home/efesxzc/intelFPGA_lite/19.1/nios2eds/bin/gnu/H-x86_64-pc-linux-gnu/bin/../lib/gcc/nios2-elf/8.3.1/../../../../../H-x86_64-pc-linux-gnu/nios2-elf/lib/mno-hw-mul/libc.a(lib_a-dtoa.o)
 .text.quorem   0x000000000101e000      0x234 /home/efesxzc/intelFPGA_lite/19.1/nios2eds/bin/gnu/H-x86_64-pc-linux-gnu/bin/../lib/gcc/nios2-elf/8.3.1/../../../../../H-x86_64-pc-linux-gnu/nios2-elf/lib/mno-hw-mul/libc.a(lib_a-dtoa.o)
 .text._dtoa_r  0x000000000101e234     0x16c8 /home/efesxzc/intelFPGA_lite/19.1/nios2eds/bin/gnu/H-x86_64-pc-linux-gnu/bin/../lib/gcc/nios2-elf/8.3.1/../../../../../H-x86_64-pc-linux-gnu/nios2-elf/lib/mno-hw-mul/libc.a(lib_a-dtoa.o)
                0x000000000101e234                _dtoa_r
 .text          0x000000000101f8fc        0x0 /home/efesxzc/intelFPGA_lite/19.1/nios2eds/bin/gnu/H-x86_64-pc-linux-gnu/bin/../lib/gcc/nios2-elf/8.3.1/../../../../../H-x86_64-pc-linux-gnu/nios2-elf/lib/mno-hw-mul/libc.a(lib_a-fflush.o)
 .text.__sflush_r
                0x000000000101f8fc      0x228 /home/efesxzc/intelFPGA_lite/19.1/nios2eds/bin/gnu/H-x86_64-pc-linux-gnu/bin/../lib/gcc/nios2-elf/8.3.1/../../../../../H-x86_64-pc-linux-gnu/nios2-elf/lib/mno-hw-mul/libc.a(lib_a-fflush.o)
                0x000000000101f8fc                __sflush_r
 .text._fflush_r
                0x000000000101fb24       0x60 /home/efesxzc/intelFPGA_lite/19.1/nios2eds/bin/gnu/H-x86_64-pc-linux-gnu/bin/../lib/gcc/nios2-elf/8.3.1/../../../../../H-x86_64-pc-linux-gnu/nios2-elf/lib/mno-hw-mul/libc.a(lib_a-fflush.o)
                0x000000000101fb24                _fflush_r
 .text.fflush   0x000000000101fb84       0x28 /home/efesxzc/intelFPGA_lite/19.1/nios2eds/bin/gnu/H-x86_64-pc-linux-gnu/bin/../lib/gcc/nios2-elf/8.3.1/../../../../../H-x86_64-pc-linux-gnu/nios2-elf/lib/mno-hw-mul/libc.a(lib_a-fflush.o)
                0x000000000101fb84                fflush
 .text          0x000000000101fbac        0x0 /home/efesxzc/intelFPGA_lite/19.1/nios2eds/bin/gnu/H-x86_64-pc-linux-gnu/bin/../lib/gcc/nios2-elf/8.3.1/../../../../../H-x86_64-pc-linux-gnu/nios2-elf/lib/mno-hw-mul/libc.a(lib_a-findfp.o)
 .text.__fp_lock
                0x000000000101fbac        0x8 /home/efesxzc/intelFPGA_lite/19.1/nios2eds/bin/gnu/H-x86_64-pc-linux-gnu/bin/../lib/gcc/nios2-elf/8.3.1/../../../../../H-x86_64-pc-linux-gnu/nios2-elf/lib/mno-hw-mul/libc.a(lib_a-findfp.o)
 .text._cleanup_r
                0x000000000101fbb4        0xc /home/efesxzc/intelFPGA_lite/19.1/nios2eds/bin/gnu/H-x86_64-pc-linux-gnu/bin/../lib/gcc/nios2-elf/8.3.1/../../../../../H-x86_64-pc-linux-gnu/nios2-elf/lib/mno-hw-mul/libc.a(lib_a-findfp.o)
                0x000000000101fbb4                _cleanup_r
 .text.__sinit.part.0
                0x000000000101fbc0      0x168 /home/efesxzc/intelFPGA_lite/19.1/nios2eds/bin/gnu/H-x86_64-pc-linux-gnu/bin/../lib/gcc/nios2-elf/8.3.1/../../../../../H-x86_64-pc-linux-gnu/nios2-elf/lib/mno-hw-mul/libc.a(lib_a-findfp.o)
 .text.__fp_unlock
                0x000000000101fd28        0x8 /home/efesxzc/intelFPGA_lite/19.1/nios2eds/bin/gnu/H-x86_64-pc-linux-gnu/bin/../lib/gcc/nios2-elf/8.3.1/../../../../../H-x86_64-pc-linux-gnu/nios2-elf/lib/mno-hw-mul/libc.a(lib_a-findfp.o)
 .text.__sfmoreglue
                0x000000000101fd30       0x78 /home/efesxzc/intelFPGA_lite/19.1/nios2eds/bin/gnu/H-x86_64-pc-linux-gnu/bin/../lib/gcc/nios2-elf/8.3.1/../../../../../H-x86_64-pc-linux-gnu/nios2-elf/lib/mno-hw-mul/libc.a(lib_a-findfp.o)
                0x000000000101fd30                __sfmoreglue
 .text.__sfp    0x000000000101fda8       0xfc /home/efesxzc/intelFPGA_lite/19.1/nios2eds/bin/gnu/H-x86_64-pc-linux-gnu/bin/../lib/gcc/nios2-elf/8.3.1/../../../../../H-x86_64-pc-linux-gnu/nios2-elf/lib/mno-hw-mul/libc.a(lib_a-findfp.o)
                0x000000000101fda8                __sfp
 .text._cleanup
                0x000000000101fea4       0x14 /home/efesxzc/intelFPGA_lite/19.1/nios2eds/bin/gnu/H-x86_64-pc-linux-gnu/bin/../lib/gcc/nios2-elf/8.3.1/../../../../../H-x86_64-pc-linux-gnu/nios2-elf/lib/mno-hw-mul/libc.a(lib_a-findfp.o)
                0x000000000101fea4                _cleanup
 .text.__sinit  0x000000000101feb8       0x10 /home/efesxzc/intelFPGA_lite/19.1/nios2eds/bin/gnu/H-x86_64-pc-linux-gnu/bin/../lib/gcc/nios2-elf/8.3.1/../../../../../H-x86_64-pc-linux-gnu/nios2-elf/lib/mno-hw-mul/libc.a(lib_a-findfp.o)
                0x000000000101feb8                __sinit
 .text.__sfp_lock_acquire
                0x000000000101fec8        0x4 /home/efesxzc/intelFPGA_lite/19.1/nios2eds/bin/gnu/H-x86_64-pc-linux-gnu/bin/../lib/gcc/nios2-elf/8.3.1/../../../../../H-x86_64-pc-linux-gnu/nios2-elf/lib/mno-hw-mul/libc.a(lib_a-findfp.o)
                0x000000000101fec8                __sfp_lock_acquire
 .text.__sfp_lock_release
                0x000000000101fecc        0x4 /home/efesxzc/intelFPGA_lite/19.1/nios2eds/bin/gnu/H-x86_64-pc-linux-gnu/bin/../lib/gcc/nios2-elf/8.3.1/../../../../../H-x86_64-pc-linux-gnu/nios2-elf/lib/mno-hw-mul/libc.a(lib_a-findfp.o)
                0x000000000101fecc                __sfp_lock_release
 .text.__sinit_lock_acquire
                0x000000000101fed0        0x4 /home/efesxzc/intelFPGA_lite/19.1/nios2eds/bin/gnu/H-x86_64-pc-linux-gnu/bin/../lib/gcc/nios2-elf/8.3.1/../../../../../H-x86_64-pc-linux-gnu/nios2-elf/lib/mno-hw-mul/libc.a(lib_a-findfp.o)
                0x000000000101fed0                __sinit_lock_acquire
 .text.__sinit_lock_release
                0x000000000101fed4        0x4 /home/efesxzc/intelFPGA_lite/19.1/nios2eds/bin/gnu/H-x86_64-pc-linux-gnu/bin/../lib/gcc/nios2-elf/8.3.1/../../../../../H-x86_64-pc-linux-gnu/nios2-elf/lib/mno-hw-mul/libc.a(lib_a-findfp.o)
                0x000000000101fed4                __sinit_lock_release
 .text.__fp_lock_all
                0x000000000101fed8       0x14 /home/efesxzc/intelFPGA_lite/19.1/nios2eds/bin/gnu/H-x86_64-pc-linux-gnu/bin/../lib/gcc/nios2-elf/8.3.1/../../../../../H-x86_64-pc-linux-gnu/nios2-elf/lib/mno-hw-mul/libc.a(lib_a-findfp.o)
                0x000000000101fed8                __fp_lock_all
 .text.__fp_unlock_all
                0x000000000101feec       0x14 /home/efesxzc/intelFPGA_lite/19.1/nios2eds/bin/gnu/H-x86_64-pc-linux-gnu/bin/../lib/gcc/nios2-elf/8.3.1/../../../../../H-x86_64-pc-linux-gnu/nios2-elf/lib/mno-hw-mul/libc.a(lib_a-findfp.o)
                0x000000000101feec                __fp_unlock_all
 .text          0x000000000101ff00        0x0 /home/efesxzc/intelFPGA_lite/19.1/nios2eds/bin/gnu/H-x86_64-pc-linux-gnu/bin/../lib/gcc/nios2-elf/8.3.1/../../../../../H-x86_64-pc-linux-gnu/nios2-elf/lib/mno-hw-mul/libc.a(lib_a-freer.o)
 .text._malloc_trim_r
                0x000000000101ff00      0x11c /home/efesxzc/intelFPGA_lite/19.1/nios2eds/bin/gnu/H-x86_64-pc-linux-gnu/bin/../lib/gcc/nios2-elf/8.3.1/../../../../../H-x86_64-pc-linux-gnu/nios2-elf/lib/mno-hw-mul/libc.a(lib_a-freer.o)
                0x000000000101ff00                _malloc_trim_r
 .text._free_r  0x000000000102001c      0x2fc /home/efesxzc/intelFPGA_lite/19.1/nios2eds/bin/gnu/H-x86_64-pc-linux-gnu/bin/../lib/gcc/nios2-elf/8.3.1/../../../../../H-x86_64-pc-linux-gnu/nios2-elf/lib/mno-hw-mul/libc.a(lib_a-freer.o)
                0x000000000102001c                _free_r
 .text          0x0000000001020318        0x0 /home/efesxzc/intelFPGA_lite/19.1/nios2eds/bin/gnu/H-x86_64-pc-linux-gnu/bin/../lib/gcc/nios2-elf/8.3.1/../../../../../H-x86_64-pc-linux-gnu/nios2-elf/lib/mno-hw-mul/libc.a(lib_a-fvwrite.o)
 .text.__sfvwrite_r
                0x0000000001020318      0x4d4 /home/efesxzc/intelFPGA_lite/19.1/nios2eds/bin/gnu/H-x86_64-pc-linux-gnu/bin/../lib/gcc/nios2-elf/8.3.1/../../../../../H-x86_64-pc-linux-gnu/nios2-elf/lib/mno-hw-mul/libc.a(lib_a-fvwrite.o)
                0x0000000001020318                __sfvwrite_r
 .text          0x00000000010207ec        0x0 /home/efesxzc/intelFPGA_lite/19.1/nios2eds/bin/gnu/H-x86_64-pc-linux-gnu/bin/../lib/gcc/nios2-elf/8.3.1/../../../../../H-x86_64-pc-linux-gnu/nios2-elf/lib/mno-hw-mul/libc.a(lib_a-fwalk.o)
 .text._fwalk   0x00000000010207ec       0xa4 /home/efesxzc/intelFPGA_lite/19.1/nios2eds/bin/gnu/H-x86_64-pc-linux-gnu/bin/../lib/gcc/nios2-elf/8.3.1/../../../../../H-x86_64-pc-linux-gnu/nios2-elf/lib/mno-hw-mul/libc.a(lib_a-fwalk.o)
                0x00000000010207ec                _fwalk
 .text._fwalk_reent
                0x0000000001020890       0xb4 /home/efesxzc/intelFPGA_lite/19.1/nios2eds/bin/gnu/H-x86_64-pc-linux-gnu/bin/../lib/gcc/nios2-elf/8.3.1/../../../../../H-x86_64-pc-linux-gnu/nios2-elf/lib/mno-hw-mul/libc.a(lib_a-fwalk.o)
                0x0000000001020890                _fwalk_reent
 .text          0x0000000001020944        0x0 /home/efesxzc/intelFPGA_lite/19.1/nios2eds/bin/gnu/H-x86_64-pc-linux-gnu/bin/../lib/gcc/nios2-elf/8.3.1/../../../../../H-x86_64-pc-linux-gnu/nios2-elf/lib/mno-hw-mul/libc.a(lib_a-impure.o)
 .text          0x0000000001020944        0x0 /home/efesxzc/intelFPGA_lite/19.1/nios2eds/bin/gnu/H-x86_64-pc-linux-gnu/bin/../lib/gcc/nios2-elf/8.3.1/../../../../../H-x86_64-pc-linux-gnu/nios2-elf/lib/mno-hw-mul/libc.a(lib_a-localeconv.o)
 .text.__localeconv_l
                0x0000000001020944        0x8 /home/efesxzc/intelFPGA_lite/19.1/nios2eds/bin/gnu/H-x86_64-pc-linux-gnu/bin/../lib/gcc/nios2-elf/8.3.1/../../../../../H-x86_64-pc-linux-gnu/nios2-elf/lib/mno-hw-mul/libc.a(lib_a-localeconv.o)
                0x0000000001020944                __localeconv_l
 .text._localeconv_r
                0x000000000102094c        0xc /home/efesxzc/intelFPGA_lite/19.1/nios2eds/bin/gnu/H-x86_64-pc-linux-gnu/bin/../lib/gcc/nios2-elf/8.3.1/../../../../../H-x86_64-pc-linux-gnu/nios2-elf/lib/mno-hw-mul/libc.a(lib_a-localeconv.o)
                0x000000000102094c                _localeconv_r
 .text.localeconv
                0x0000000001020958        0xc /home/efesxzc/intelFPGA_lite/19.1/nios2eds/bin/gnu/H-x86_64-pc-linux-gnu/bin/../lib/gcc/nios2-elf/8.3.1/../../../../../H-x86_64-pc-linux-gnu/nios2-elf/lib/mno-hw-mul/libc.a(lib_a-localeconv.o)
                0x0000000001020958                localeconv
 .text          0x0000000001020964        0x0 /home/efesxzc/intelFPGA_lite/19.1/nios2eds/bin/gnu/H-x86_64-pc-linux-gnu/bin/../lib/gcc/nios2-elf/8.3.1/../../../../../H-x86_64-pc-linux-gnu/nios2-elf/lib/mno-hw-mul/libc.a(lib_a-makebuf.o)
 .text.__swhatbuf_r
                0x0000000001020964       0x98 /home/efesxzc/intelFPGA_lite/19.1/nios2eds/bin/gnu/H-x86_64-pc-linux-gnu/bin/../lib/gcc/nios2-elf/8.3.1/../../../../../H-x86_64-pc-linux-gnu/nios2-elf/lib/mno-hw-mul/libc.a(lib_a-makebuf.o)
                0x0000000001020964                __swhatbuf_r
 .text.__smakebuf_r
                0x00000000010209fc      0x13c /home/efesxzc/intelFPGA_lite/19.1/nios2eds/bin/gnu/H-x86_64-pc-linux-gnu/bin/../lib/gcc/nios2-elf/8.3.1/../../../../../H-x86_64-pc-linux-gnu/nios2-elf/lib/mno-hw-mul/libc.a(lib_a-makebuf.o)
                0x00000000010209fc                __smakebuf_r
 .text          0x0000000001020b38        0x0 /home/efesxzc/intelFPGA_lite/19.1/nios2eds/bin/gnu/H-x86_64-pc-linux-gnu/bin/../lib/gcc/nios2-elf/8.3.1/../../../../../H-x86_64-pc-linux-gnu/nios2-elf/lib/mno-hw-mul/libc.a(lib_a-mallocr.o)
 .text._malloc_r
                0x0000000001020b38      0x7f4 /home/efesxzc/intelFPGA_lite/19.1/nios2eds/bin/gnu/H-x86_64-pc-linux-gnu/bin/../lib/gcc/nios2-elf/8.3.1/../../../../../H-x86_64-pc-linux-gnu/nios2-elf/lib/mno-hw-mul/libc.a(lib_a-mallocr.o)
                0x0000000001020b38                _malloc_r
 .text          0x000000000102132c        0x0 /home/efesxzc/intelFPGA_lite/19.1/nios2eds/bin/gnu/H-x86_64-pc-linux-gnu/bin/../lib/gcc/nios2-elf/8.3.1/../../../../../H-x86_64-pc-linux-gnu/nios2-elf/lib/mno-hw-mul/libc.a(lib_a-memchr.o)
 .text.memchr   0x000000000102132c       0xe8 /home/efesxzc/intelFPGA_lite/19.1/nios2eds/bin/gnu/H-x86_64-pc-linux-gnu/bin/../lib/gcc/nios2-elf/8.3.1/../../../../../H-x86_64-pc-linux-gnu/nios2-elf/lib/mno-hw-mul/libc.a(lib_a-memchr.o)
                0x000000000102132c                memchr
 .text          0x0000000001021414        0x0 /home/efesxzc/intelFPGA_lite/19.1/nios2eds/bin/gnu/H-x86_64-pc-linux-gnu/bin/../lib/gcc/nios2-elf/8.3.1/../../../../../H-x86_64-pc-linux-gnu/nios2-elf/lib/mno-hw-mul/libc.a(lib_a-mprec.o)
 .text._Balloc  0x0000000001021414       0xa4 /home/efesxzc/intelFPGA_lite/19.1/nios2eds/bin/gnu/H-x86_64-pc-linux-gnu/bin/../lib/gcc/nios2-elf/8.3.1/../../../../../H-x86_64-pc-linux-gnu/nios2-elf/lib/mno-hw-mul/libc.a(lib_a-mprec.o)
                0x0000000001021414                _Balloc
 .text._Bfree   0x00000000010214b8       0x24 /home/efesxzc/intelFPGA_lite/19.1/nios2eds/bin/gnu/H-x86_64-pc-linux-gnu/bin/../lib/gcc/nios2-elf/8.3.1/../../../../../H-x86_64-pc-linux-gnu/nios2-elf/lib/mno-hw-mul/libc.a(lib_a-mprec.o)
                0x00000000010214b8                _Bfree
 .text.__multadd
                0x00000000010214dc      0x13c /home/efesxzc/intelFPGA_lite/19.1/nios2eds/bin/gnu/H-x86_64-pc-linux-gnu/bin/../lib/gcc/nios2-elf/8.3.1/../../../../../H-x86_64-pc-linux-gnu/nios2-elf/lib/mno-hw-mul/libc.a(lib_a-mprec.o)
                0x00000000010214dc                __multadd
 .text.__s2b    0x0000000001021618      0x110 /home/efesxzc/intelFPGA_lite/19.1/nios2eds/bin/gnu/H-x86_64-pc-linux-gnu/bin/../lib/gcc/nios2-elf/8.3.1/../../../../../H-x86_64-pc-linux-gnu/nios2-elf/lib/mno-hw-mul/libc.a(lib_a-mprec.o)
                0x0000000001021618                __s2b
 .text.__hi0bits
                0x0000000001021728       0x64 /home/efesxzc/intelFPGA_lite/19.1/nios2eds/bin/gnu/H-x86_64-pc-linux-gnu/bin/../lib/gcc/nios2-elf/8.3.1/../../../../../H-x86_64-pc-linux-gnu/nios2-elf/lib/mno-hw-mul/libc.a(lib_a-mprec.o)
                0x0000000001021728                __hi0bits
 .text.__lo0bits
                0x000000000102178c       0xb0 /home/efesxzc/intelFPGA_lite/19.1/nios2eds/bin/gnu/H-x86_64-pc-linux-gnu/bin/../lib/gcc/nios2-elf/8.3.1/../../../../../H-x86_64-pc-linux-gnu/nios2-elf/lib/mno-hw-mul/libc.a(lib_a-mprec.o)
                0x000000000102178c                __lo0bits
 .text.__i2b    0x000000000102183c       0x34 /home/efesxzc/intelFPGA_lite/19.1/nios2eds/bin/gnu/H-x86_64-pc-linux-gnu/bin/../lib/gcc/nios2-elf/8.3.1/../../../../../H-x86_64-pc-linux-gnu/nios2-elf/lib/mno-hw-mul/libc.a(lib_a-mprec.o)
                0x000000000102183c                __i2b
 .text.__multiply
                0x0000000001021870      0x240 /home/efesxzc/intelFPGA_lite/19.1/nios2eds/bin/gnu/H-x86_64-pc-linux-gnu/bin/../lib/gcc/nios2-elf/8.3.1/../../../../../H-x86_64-pc-linux-gnu/nios2-elf/lib/mno-hw-mul/libc.a(lib_a-mprec.o)
                0x0000000001021870                __multiply
 .text.__pow5mult
                0x0000000001021ab0      0x128 /home/efesxzc/intelFPGA_lite/19.1/nios2eds/bin/gnu/H-x86_64-pc-linux-gnu/bin/../lib/gcc/nios2-elf/8.3.1/../../../../../H-x86_64-pc-linux-gnu/nios2-elf/lib/mno-hw-mul/libc.a(lib_a-mprec.o)
                0x0000000001021ab0                __pow5mult
 .text.__lshift
                0x0000000001021bd8      0x13c /home/efesxzc/intelFPGA_lite/19.1/nios2eds/bin/gnu/H-x86_64-pc-linux-gnu/bin/../lib/gcc/nios2-elf/8.3.1/../../../../../H-x86_64-pc-linux-gnu/nios2-elf/lib/mno-hw-mul/libc.a(lib_a-mprec.o)
                0x0000000001021bd8                __lshift
 .text.__mcmp   0x0000000001021d14       0x58 /home/efesxzc/intelFPGA_lite/19.1/nios2eds/bin/gnu/H-x86_64-pc-linux-gnu/bin/../lib/gcc/nios2-elf/8.3.1/../../../../../H-x86_64-pc-linux-gnu/nios2-elf/lib/mno-hw-mul/libc.a(lib_a-mprec.o)
                0x0000000001021d14                __mcmp
 .text.__mdiff  0x0000000001021d6c      0x1bc /home/efesxzc/intelFPGA_lite/19.1/nios2eds/bin/gnu/H-x86_64-pc-linux-gnu/bin/../lib/gcc/nios2-elf/8.3.1/../../../../../H-x86_64-pc-linux-gnu/nios2-elf/lib/mno-hw-mul/libc.a(lib_a-mprec.o)
                0x0000000001021d6c                __mdiff
 .text.__ulp    0x0000000001021f28       0x5c /home/efesxzc/intelFPGA_lite/19.1/nios2eds/bin/gnu/H-x86_64-pc-linux-gnu/bin/../lib/gcc/nios2-elf/8.3.1/../../../../../H-x86_64-pc-linux-gnu/nios2-elf/lib/mno-hw-mul/libc.a(lib_a-mprec.o)
                0x0000000001021f28                __ulp
 .text.__b2d    0x0000000001021f84      0x104 /home/efesxzc/intelFPGA_lite/19.1/nios2eds/bin/gnu/H-x86_64-pc-linux-gnu/bin/../lib/gcc/nios2-elf/8.3.1/../../../../../H-x86_64-pc-linux-gnu/nios2-elf/lib/mno-hw-mul/libc.a(lib_a-mprec.o)
                0x0000000001021f84                __b2d
 .text.__d2b    0x0000000001022088      0x148 /home/efesxzc/intelFPGA_lite/19.1/nios2eds/bin/gnu/H-x86_64-pc-linux-gnu/bin/../lib/gcc/nios2-elf/8.3.1/../../../../../H-x86_64-pc-linux-gnu/nios2-elf/lib/mno-hw-mul/libc.a(lib_a-mprec.o)
                0x0000000001022088                __d2b
 .text.__ratio  0x00000000010221d0       0xa4 /home/efesxzc/intelFPGA_lite/19.1/nios2eds/bin/gnu/H-x86_64-pc-linux-gnu/bin/../lib/gcc/nios2-elf/8.3.1/../../../../../H-x86_64-pc-linux-gnu/nios2-elf/lib/mno-hw-mul/libc.a(lib_a-mprec.o)
                0x00000000010221d0                __ratio
 .text._mprec_log10
                0x0000000001022274       0x74 /home/efesxzc/intelFPGA_lite/19.1/nios2eds/bin/gnu/H-x86_64-pc-linux-gnu/bin/../lib/gcc/nios2-elf/8.3.1/../../../../../H-x86_64-pc-linux-gnu/nios2-elf/lib/mno-hw-mul/libc.a(lib_a-mprec.o)
                0x0000000001022274                _mprec_log10
 .text.__copybits
                0x00000000010222e8       0x6c /home/efesxzc/intelFPGA_lite/19.1/nios2eds/bin/gnu/H-x86_64-pc-linux-gnu/bin/../lib/gcc/nios2-elf/8.3.1/../../../../../H-x86_64-pc-linux-gnu/nios2-elf/lib/mno-hw-mul/libc.a(lib_a-mprec.o)
                0x00000000010222e8                __copybits
 .text.__any_on
                0x0000000001022354       0x74 /home/efesxzc/intelFPGA_lite/19.1/nios2eds/bin/gnu/H-x86_64-pc-linux-gnu/bin/../lib/gcc/nios2-elf/8.3.1/../../../../../H-x86_64-pc-linux-gnu/nios2-elf/lib/mno-hw-mul/libc.a(lib_a-mprec.o)
                0x0000000001022354                __any_on
 .text          0x00000000010223c8        0x0 /home/efesxzc/intelFPGA_lite/19.1/nios2eds/bin/gnu/H-x86_64-pc-linux-gnu/bin/../lib/gcc/nios2-elf/8.3.1/../../../../../H-x86_64-pc-linux-gnu/nios2-elf/lib/mno-hw-mul/libc.a(lib_a-reallocr.o)
 .text._realloc_r
                0x00000000010223c8      0x62c /home/efesxzc/intelFPGA_lite/19.1/nios2eds/bin/gnu/H-x86_64-pc-linux-gnu/bin/../lib/gcc/nios2-elf/8.3.1/../../../../../H-x86_64-pc-linux-gnu/nios2-elf/lib/mno-hw-mul/libc.a(lib_a-reallocr.o)
                0x00000000010223c8                _realloc_r
 .text          0x00000000010229f4        0x0 /home/efesxzc/intelFPGA_lite/19.1/nios2eds/bin/gnu/H-x86_64-pc-linux-gnu/bin/../lib/gcc/nios2-elf/8.3.1/../../../../../H-x86_64-pc-linux-gnu/nios2-elf/lib/mno-hw-mul/libc.a(lib_a-sbrkr.o)
 .text._sbrk_r  0x00000000010229f4       0x58 /home/efesxzc/intelFPGA_lite/19.1/nios2eds/bin/gnu/H-x86_64-pc-linux-gnu/bin/../lib/gcc/nios2-elf/8.3.1/../../../../../H-x86_64-pc-linux-gnu/nios2-elf/lib/mno-hw-mul/libc.a(lib_a-sbrkr.o)
                0x00000000010229f4                _sbrk_r
 .text          0x0000000001022a4c        0x0 /home/efesxzc/intelFPGA_lite/19.1/nios2eds/bin/gnu/H-x86_64-pc-linux-gnu/bin/../lib/gcc/nios2-elf/8.3.1/../../../../../H-x86_64-pc-linux-gnu/nios2-elf/lib/mno-hw-mul/libc.a(lib_a-stdio.o)
 .text.__sread  0x0000000001022a4c       0x54 /home/efesxzc/intelFPGA_lite/19.1/nios2eds/bin/gnu/H-x86_64-pc-linux-gnu/bin/../lib/gcc/nios2-elf/8.3.1/../../../../../H-x86_64-pc-linux-gnu/nios2-elf/lib/mno-hw-mul/libc.a(lib_a-stdio.o)
                0x0000000001022a4c                __sread
 .text.__seofread
                0x0000000001022aa0        0x8 /home/efesxzc/intelFPGA_lite/19.1/nios2eds/bin/gnu/H-x86_64-pc-linux-gnu/bin/../lib/gcc/nios2-elf/8.3.1/../../../../../H-x86_64-pc-linux-gnu/nios2-elf/lib/mno-hw-mul/libc.a(lib_a-stdio.o)
                0x0000000001022aa0                __seofread
 .text.__swrite
                0x0000000001022aa8       0x80 /home/efesxzc/intelFPGA_lite/19.1/nios2eds/bin/gnu/H-x86_64-pc-linux-gnu/bin/../lib/gcc/nios2-elf/8.3.1/../../../../../H-x86_64-pc-linux-gnu/nios2-elf/lib/mno-hw-mul/libc.a(lib_a-stdio.o)
                0x0000000001022aa8                __swrite
 .text.__sseek  0x0000000001022b28       0x5c /home/efesxzc/intelFPGA_lite/19.1/nios2eds/bin/gnu/H-x86_64-pc-linux-gnu/bin/../lib/gcc/nios2-elf/8.3.1/../../../../../H-x86_64-pc-linux-gnu/nios2-elf/lib/mno-hw-mul/libc.a(lib_a-stdio.o)
                0x0000000001022b28                __sseek
 .text.__sclose
                0x0000000001022b84        0x8 /home/efesxzc/intelFPGA_lite/19.1/nios2eds/bin/gnu/H-x86_64-pc-linux-gnu/bin/../lib/gcc/nios2-elf/8.3.1/../../../../../H-x86_64-pc-linux-gnu/nios2-elf/lib/mno-hw-mul/libc.a(lib_a-stdio.o)
                0x0000000001022b84                __sclose
 .text          0x0000000001022b8c        0x0 /home/efesxzc/intelFPGA_lite/19.1/nios2eds/bin/gnu/H-x86_64-pc-linux-gnu/bin/../lib/gcc/nios2-elf/8.3.1/../../../../../H-x86_64-pc-linux-gnu/nios2-elf/lib/mno-hw-mul/libc.a(lib_a-strchr.o)
 .text.strchr   0x0000000001022b8c      0x164 /home/efesxzc/intelFPGA_lite/19.1/nios2eds/bin/gnu/H-x86_64-pc-linux-gnu/bin/../lib/gcc/nios2-elf/8.3.1/../../../../../H-x86_64-pc-linux-gnu/nios2-elf/lib/mno-hw-mul/libc.a(lib_a-strchr.o)
                0x0000000001022b8c                strchr
 .text          0x0000000001022cf0        0x0 /home/efesxzc/intelFPGA_lite/19.1/nios2eds/bin/gnu/H-x86_64-pc-linux-gnu/bin/../lib/gcc/nios2-elf/8.3.1/../../../../../H-x86_64-pc-linux-gnu/nios2-elf/lib/mno-hw-mul/libc.a(lib_a-strnlen.o)
 .text.strnlen  0x0000000001022cf0       0x40 /home/efesxzc/intelFPGA_lite/19.1/nios2eds/bin/gnu/H-x86_64-pc-linux-gnu/bin/../lib/gcc/nios2-elf/8.3.1/../../../../../H-x86_64-pc-linux-gnu/nios2-elf/lib/mno-hw-mul/libc.a(lib_a-strnlen.o)
                0x0000000001022cf0                strnlen
 .text          0x0000000001022d30        0x0 /home/efesxzc/intelFPGA_lite/19.1/nios2eds/bin/gnu/H-x86_64-pc-linux-gnu/bin/../lib/gcc/nios2-elf/8.3.1/../../../../../H-x86_64-pc-linux-gnu/nios2-elf/lib/mno-hw-mul/libc.a(lib_a-svfiprintf.o)
 .text.__ssprint_r
                0x0000000001022d30      0x1c4 /home/efesxzc/intelFPGA_lite/19.1/nios2eds/bin/gnu/H-x86_64-pc-linux-gnu/bin/../lib/gcc/nios2-elf/8.3.1/../../../../../H-x86_64-pc-linux-gnu/nios2-elf/lib/mno-hw-mul/libc.a(lib_a-svfiprintf.o)
                0x0000000001022d30                __ssprint_r
 .text.___svfiprintf_internal_r
                0x0000000001022ef4     0x1138 /home/efesxzc/intelFPGA_lite/19.1/nios2eds/bin/gnu/H-x86_64-pc-linux-gnu/bin/../lib/gcc/nios2-elf/8.3.1/../../../../../H-x86_64-pc-linux-gnu/nios2-elf/lib/mno-hw-mul/libc.a(lib_a-svfiprintf.o)
                0x0000000001022ef4                ___svfiprintf_internal_r
 .text          0x000000000102402c        0x0 /home/efesxzc/intelFPGA_lite/19.1/nios2eds/bin/gnu/H-x86_64-pc-linux-gnu/bin/../lib/gcc/nios2-elf/8.3.1/../../../../../H-x86_64-pc-linux-gnu/nios2-elf/lib/mno-hw-mul/libc.a(lib_a-vfiprintf.o)
 .text.__sprint_r.part.0
                0x000000000102402c       0xf4 /home/efesxzc/intelFPGA_lite/19.1/nios2eds/bin/gnu/H-x86_64-pc-linux-gnu/bin/../lib/gcc/nios2-elf/8.3.1/../../../../../H-x86_64-pc-linux-gnu/nios2-elf/lib/mno-hw-mul/libc.a(lib_a-vfiprintf.o)
 .text.__sprint_r
                0x0000000001024120       0x18 /home/efesxzc/intelFPGA_lite/19.1/nios2eds/bin/gnu/H-x86_64-pc-linux-gnu/bin/../lib/gcc/nios2-elf/8.3.1/../../../../../H-x86_64-pc-linux-gnu/nios2-elf/lib/mno-hw-mul/libc.a(lib_a-vfiprintf.o)
                0x0000000001024120                __sprint_r
 .text.___vfiprintf_internal_r
                0x0000000001024138     0x133c /home/efesxzc/intelFPGA_lite/19.1/nios2eds/bin/gnu/H-x86_64-pc-linux-gnu/bin/../lib/gcc/nios2-elf/8.3.1/../../../../../H-x86_64-pc-linux-gnu/nios2-elf/lib/mno-hw-mul/libc.a(lib_a-vfiprintf.o)
                0x0000000001024138                ___vfiprintf_internal_r
 .text.__vfiprintf_internal
                0x0000000001025474       0x18 /home/efesxzc/intelFPGA_lite/19.1/nios2eds/bin/gnu/H-x86_64-pc-linux-gnu/bin/../lib/gcc/nios2-elf/8.3.1/../../../../../H-x86_64-pc-linux-gnu/nios2-elf/lib/mno-hw-mul/libc.a(lib_a-vfiprintf.o)
                0x0000000001025474                __vfiprintf_internal
 .text.__sbprintf
                0x000000000102548c       0xc0 /home/efesxzc/intelFPGA_lite/19.1/nios2eds/bin/gnu/H-x86_64-pc-linux-gnu/bin/../lib/gcc/nios2-elf/8.3.1/../../../../../H-x86_64-pc-linux-gnu/nios2-elf/lib/mno-hw-mul/libc.a(lib_a-vfiprintf.o)
 .text          0x000000000102554c        0x0 /home/efesxzc/intelFPGA_lite/19.1/nios2eds/bin/gnu/H-x86_64-pc-linux-gnu/bin/../lib/gcc/nios2-elf/8.3.1/../../../../../H-x86_64-pc-linux-gnu/nios2-elf/lib/mno-hw-mul/libc.a(lib_a-writer.o)
 .text._write_r
                0x000000000102554c       0x64 /home/efesxzc/intelFPGA_lite/19.1/nios2eds/bin/gnu/H-x86_64-pc-linux-gnu/bin/../lib/gcc/nios2-elf/8.3.1/../../../../../H-x86_64-pc-linux-gnu/nios2-elf/lib/mno-hw-mul/libc.a(lib_a-writer.o)
                0x000000000102554c                _write_r
 .text          0x00000000010255b0        0x0 /home/efesxzc/intelFPGA_lite/19.1/nios2eds/bin/gnu/H-x86_64-pc-linux-gnu/bin/../lib/gcc/nios2-elf/8.3.1/../../../../../H-x86_64-pc-linux-gnu/nios2-elf/lib/mno-hw-mul/libc.a(closer.o)
 .text._close_r
                0x00000000010255b0       0x58 /home/efesxzc/intelFPGA_lite/19.1/nios2eds/bin/gnu/H-x86_64-pc-linux-gnu/bin/../lib/gcc/nios2-elf/8.3.1/../../../../../H-x86_64-pc-linux-gnu/nios2-elf/lib/mno-hw-mul/libc.a(closer.o)
                0x00000000010255b0                _close_r
 .text          0x0000000001025608        0x0 /home/efesxzc/intelFPGA_lite/19.1/nios2eds/bin/gnu/H-x86_64-pc-linux-gnu/bin/../lib/gcc/nios2-elf/8.3.1/../../../../../H-x86_64-pc-linux-gnu/nios2-elf/lib/mno-hw-mul/libc.a(lib_a-callocr.o)
 .text._calloc_r
                0x0000000001025608       0xcc /home/efesxzc/intelFPGA_lite/19.1/nios2eds/bin/gnu/H-x86_64-pc-linux-gnu/bin/../lib/gcc/nios2-elf/8.3.1/../../../../../H-x86_64-pc-linux-gnu/nios2-elf/lib/mno-hw-mul/libc.a(lib_a-callocr.o)
                0x0000000001025608                _calloc_r
 .text          0x00000000010256d4        0x0 /home/efesxzc/intelFPGA_lite/19.1/nios2eds/bin/gnu/H-x86_64-pc-linux-gnu/bin/../lib/gcc/nios2-elf/8.3.1/../../../../../H-x86_64-pc-linux-gnu/nios2-elf/lib/mno-hw-mul/libc.a(lib_a-fclose.o)
 .text._fclose_r
                0x00000000010256d4       0xf8 /home/efesxzc/intelFPGA_lite/19.1/nios2eds/bin/gnu/H-x86_64-pc-linux-gnu/bin/../lib/gcc/nios2-elf/8.3.1/../../../../../H-x86_64-pc-linux-gnu/nios2-elf/lib/mno-hw-mul/libc.a(lib_a-fclose.o)
                0x00000000010256d4                _fclose_r
 .text.fclose   0x00000000010257cc       0x10 /home/efesxzc/intelFPGA_lite/19.1/nios2eds/bin/gnu/H-x86_64-pc-linux-gnu/bin/../lib/gcc/nios2-elf/8.3.1/../../../../../H-x86_64-pc-linux-gnu/nios2-elf/lib/mno-hw-mul/libc.a(lib_a-fclose.o)
                0x00000000010257cc                fclose
 .text          0x00000000010257dc        0x0 /home/efesxzc/intelFPGA_lite/19.1/nios2eds/bin/gnu/H-x86_64-pc-linux-gnu/bin/../lib/gcc/nios2-elf/8.3.1/../../../../../H-x86_64-pc-linux-gnu/nios2-elf/lib/mno-hw-mul/libc.a(lib_a-fputwc.o)
 .text.__fputwc
                0x00000000010257dc      0x150 /home/efesxzc/intelFPGA_lite/19.1/nios2eds/bin/gnu/H-x86_64-pc-linux-gnu/bin/../lib/gcc/nios2-elf/8.3.1/../../../../../H-x86_64-pc-linux-gnu/nios2-elf/lib/mno-hw-mul/libc.a(lib_a-fputwc.o)
                0x00000000010257dc                __fputwc
 .text._fputwc_r
                0x000000000102592c       0x24 /home/efesxzc/intelFPGA_lite/19.1/nios2eds/bin/gnu/H-x86_64-pc-linux-gnu/bin/../lib/gcc/nios2-elf/8.3.1/../../../../../H-x86_64-pc-linux-gnu/nios2-elf/lib/mno-hw-mul/libc.a(lib_a-fputwc.o)
                0x000000000102592c                _fputwc_r
 .text.fputwc   0x0000000001025950       0x7c /home/efesxzc/intelFPGA_lite/19.1/nios2eds/bin/gnu/H-x86_64-pc-linux-gnu/bin/../lib/gcc/nios2-elf/8.3.1/../../../../../H-x86_64-pc-linux-gnu/nios2-elf/lib/mno-hw-mul/libc.a(lib_a-fputwc.o)
                0x0000000001025950                fputwc
 .text          0x00000000010259cc        0x0 /home/efesxzc/intelFPGA_lite/19.1/nios2eds/bin/gnu/H-x86_64-pc-linux-gnu/bin/../lib/gcc/nios2-elf/8.3.1/../../../../../H-x86_64-pc-linux-gnu/nios2-elf/lib/mno-hw-mul/libc.a(lib_a-fstatr.o)
 .text._fstat_r
                0x00000000010259cc       0x60 /home/efesxzc/intelFPGA_lite/19.1/nios2eds/bin/gnu/H-x86_64-pc-linux-gnu/bin/../lib/gcc/nios2-elf/8.3.1/../../../../../H-x86_64-pc-linux-gnu/nios2-elf/lib/mno-hw-mul/libc.a(lib_a-fstatr.o)
                0x00000000010259cc                _fstat_r
 .text          0x0000000001025a2c        0x0 /home/efesxzc/intelFPGA_lite/19.1/nios2eds/bin/gnu/H-x86_64-pc-linux-gnu/bin/../lib/gcc/nios2-elf/8.3.1/../../../../../H-x86_64-pc-linux-gnu/nios2-elf/lib/mno-hw-mul/libc.a(lib_a-int_errno.o)
 .text          0x0000000001025a2c        0x0 /home/efesxzc/intelFPGA_lite/19.1/nios2eds/bin/gnu/H-x86_64-pc-linux-gnu/bin/../lib/gcc/nios2-elf/8.3.1/../../../../../H-x86_64-pc-linux-gnu/nios2-elf/lib/mno-hw-mul/libc.a(lib_a-isattyr.o)
 .text._isatty_r
                0x0000000001025a2c       0x58 /home/efesxzc/intelFPGA_lite/19.1/nios2eds/bin/gnu/H-x86_64-pc-linux-gnu/bin/../lib/gcc/nios2-elf/8.3.1/../../../../../H-x86_64-pc-linux-gnu/nios2-elf/lib/mno-hw-mul/libc.a(lib_a-isattyr.o)
                0x0000000001025a2c                _isatty_r
 .text          0x0000000001025a84        0x0 /home/efesxzc/intelFPGA_lite/19.1/nios2eds/bin/gnu/H-x86_64-pc-linux-gnu/bin/../lib/gcc/nios2-elf/8.3.1/../../../../../H-x86_64-pc-linux-gnu/nios2-elf/lib/mno-hw-mul/libc.a(lib_a-locale.o)
 .text._setlocale_r
                0x0000000001025a84       0x70 /home/efesxzc/intelFPGA_lite/19.1/nios2eds/bin/gnu/H-x86_64-pc-linux-gnu/bin/../lib/gcc/nios2-elf/8.3.1/../../../../../H-x86_64-pc-linux-gnu/nios2-elf/lib/mno-hw-mul/libc.a(lib_a-locale.o)
                0x0000000001025a84                _setlocale_r
 .text.__locale_mb_cur_max
                0x0000000001025af4        0xc /home/efesxzc/intelFPGA_lite/19.1/nios2eds/bin/gnu/H-x86_64-pc-linux-gnu/bin/../lib/gcc/nios2-elf/8.3.1/../../../../../H-x86_64-pc-linux-gnu/nios2-elf/lib/mno-hw-mul/libc.a(lib_a-locale.o)
                0x0000000001025af4                __locale_mb_cur_max
 .text.setlocale
                0x0000000001025b00       0x14 /home/efesxzc/intelFPGA_lite/19.1/nios2eds/bin/gnu/H-x86_64-pc-linux-gnu/bin/../lib/gcc/nios2-elf/8.3.1/../../../../../H-x86_64-pc-linux-gnu/nios2-elf/lib/mno-hw-mul/libc.a(lib_a-locale.o)
                0x0000000001025b00                setlocale
 .text          0x0000000001025b14        0x0 /home/efesxzc/intelFPGA_lite/19.1/nios2eds/bin/gnu/H-x86_64-pc-linux-gnu/bin/../lib/gcc/nios2-elf/8.3.1/../../../../../H-x86_64-pc-linux-gnu/nios2-elf/lib/mno-hw-mul/libc.a(lib_a-lseekr.o)
 .text._lseek_r
                0x0000000001025b14       0x64 /home/efesxzc/intelFPGA_lite/19.1/nios2eds/bin/gnu/H-x86_64-pc-linux-gnu/bin/../lib/gcc/nios2-elf/8.3.1/../../../../../H-x86_64-pc-linux-gnu/nios2-elf/lib/mno-hw-mul/libc.a(lib_a-lseekr.o)
                0x0000000001025b14                _lseek_r
 .text          0x0000000001025b78        0x0 /home/efesxzc/intelFPGA_lite/19.1/nios2eds/bin/gnu/H-x86_64-pc-linux-gnu/bin/../lib/gcc/nios2-elf/8.3.1/../../../../../H-x86_64-pc-linux-gnu/nios2-elf/lib/mno-hw-mul/libc.a(lib_a-mbtowc_r.o)
 .text._mbtowc_r
                0x0000000001025b78        0xc /home/efesxzc/intelFPGA_lite/19.1/nios2eds/bin/gnu/H-x86_64-pc-linux-gnu/bin/../lib/gcc/nios2-elf/8.3.1/../../../../../H-x86_64-pc-linux-gnu/nios2-elf/lib/mno-hw-mul/libc.a(lib_a-mbtowc_r.o)
                0x0000000001025b78                _mbtowc_r
 .text.__ascii_mbtowc
                0x0000000001025b84       0x44 /home/efesxzc/intelFPGA_lite/19.1/nios2eds/bin/gnu/H-x86_64-pc-linux-gnu/bin/../lib/gcc/nios2-elf/8.3.1/../../../../../H-x86_64-pc-linux-gnu/nios2-elf/lib/mno-hw-mul/libc.a(lib_a-mbtowc_r.o)
                0x0000000001025b84                __ascii_mbtowc
 .text          0x0000000001025bc8        0x0 /home/efesxzc/intelFPGA_lite/19.1/nios2eds/bin/gnu/H-x86_64-pc-linux-gnu/bin/../lib/gcc/nios2-elf/8.3.1/../../../../../H-x86_64-pc-linux-gnu/nios2-elf/lib/mno-hw-mul/libc.a(lib_a-readr.o)
 .text._read_r  0x0000000001025bc8       0x64 /home/efesxzc/intelFPGA_lite/19.1/nios2eds/bin/gnu/H-x86_64-pc-linux-gnu/bin/../lib/gcc/nios2-elf/8.3.1/../../../../../H-x86_64-pc-linux-gnu/nios2-elf/lib/mno-hw-mul/libc.a(lib_a-readr.o)
                0x0000000001025bc8                _read_r
 .text          0x0000000001025c2c        0x0 /home/efesxzc/intelFPGA_lite/19.1/nios2eds/bin/gnu/H-x86_64-pc-linux-gnu/bin/../lib/gcc/nios2-elf/8.3.1/../../../../../H-x86_64-pc-linux-gnu/nios2-elf/lib/mno-hw-mul/libc.a(lib_a-strcmp.o)
 .text.strcmp   0x0000000001025c2c       0xd8 /home/efesxzc/intelFPGA_lite/19.1/nios2eds/bin/gnu/H-x86_64-pc-linux-gnu/bin/../lib/gcc/nios2-elf/8.3.1/../../../../../H-x86_64-pc-linux-gnu/nios2-elf/lib/mno-hw-mul/libc.a(lib_a-strcmp.o)
                0x0000000001025c2c                strcmp
 .text          0x0000000001025d04        0x0 /home/efesxzc/intelFPGA_lite/19.1/nios2eds/bin/gnu/H-x86_64-pc-linux-gnu/bin/../lib/gcc/nios2-elf/8.3.1/../../../../../H-x86_64-pc-linux-gnu/nios2-elf/lib/mno-hw-mul/libc.a(lib_a-wbuf.o)
 .text.__swbuf_r
                0x0000000001025d04      0x148 /home/efesxzc/intelFPGA_lite/19.1/nios2eds/bin/gnu/H-x86_64-pc-linux-gnu/bin/../lib/gcc/nios2-elf/8.3.1/../../../../../H-x86_64-pc-linux-gnu/nios2-elf/lib/mno-hw-mul/libc.a(lib_a-wbuf.o)
                0x0000000001025d04                __swbuf_r
 .text.__swbuf  0x0000000001025e4c       0x14 /home/efesxzc/intelFPGA_lite/19.1/nios2eds/bin/gnu/H-x86_64-pc-linux-gnu/bin/../lib/gcc/nios2-elf/8.3.1/../../../../../H-x86_64-pc-linux-gnu/nios2-elf/lib/mno-hw-mul/libc.a(lib_a-wbuf.o)
                0x0000000001025e4c                __swbuf
 .text          0x0000000001025e60        0x0 /home/efesxzc/intelFPGA_lite/19.1/nios2eds/bin/gnu/H-x86_64-pc-linux-gnu/bin/../lib/gcc/nios2-elf/8.3.1/../../../../../H-x86_64-pc-linux-gnu/nios2-elf/lib/mno-hw-mul/libc.a(lib_a-wcrtomb.o)
 .text._wcrtomb_r
                0x0000000001025e60       0x6c /home/efesxzc/intelFPGA_lite/19.1/nios2eds/bin/gnu/H-x86_64-pc-linux-gnu/bin/../lib/gcc/nios2-elf/8.3.1/../../../../../H-x86_64-pc-linux-gnu/nios2-elf/lib/mno-hw-mul/libc.a(lib_a-wcrtomb.o)
                0x0000000001025e60                _wcrtomb_r
 .text.wcrtomb  0x0000000001025ecc       0x84 /home/efesxzc/intelFPGA_lite/19.1/nios2eds/bin/gnu/H-x86_64-pc-linux-gnu/bin/../lib/gcc/nios2-elf/8.3.1/../../../../../H-x86_64-pc-linux-gnu/nios2-elf/lib/mno-hw-mul/libc.a(lib_a-wcrtomb.o)
                0x0000000001025ecc                wcrtomb
 .text          0x0000000001025f50        0x0 /home/efesxzc/intelFPGA_lite/19.1/nios2eds/bin/gnu/H-x86_64-pc-linux-gnu/bin/../lib/gcc/nios2-elf/8.3.1/../../../../../H-x86_64-pc-linux-gnu/nios2-elf/lib/mno-hw-mul/libc.a(lib_a-wctomb_r.o)
 .text._wctomb_r
                0x0000000001025f50        0xc /home/efesxzc/intelFPGA_lite/19.1/nios2eds/bin/gnu/H-x86_64-pc-linux-gnu/bin/../lib/gcc/nios2-elf/8.3.1/../../../../../H-x86_64-pc-linux-gnu/nios2-elf/lib/mno-hw-mul/libc.a(lib_a-wctomb_r.o)
                0x0000000001025f50                _wctomb_r
 .text.__ascii_wctomb
                0x0000000001025f5c       0x30 /home/efesxzc/intelFPGA_lite/19.1/nios2eds/bin/gnu/H-x86_64-pc-linux-gnu/bin/../lib/gcc/nios2-elf/8.3.1/../../../../../H-x86_64-pc-linux-gnu/nios2-elf/lib/mno-hw-mul/libc.a(lib_a-wctomb_r.o)
                0x0000000001025f5c                __ascii_wctomb
 .text          0x0000000001025f8c      0x108 /home/efesxzc/intelFPGA_lite/19.1/nios2eds/bin/gnu/H-x86_64-pc-linux-gnu/bin/../lib/gcc/nios2-elf/8.3.1/mno-hw-mul/libgcc.a(_muldi3.o)
                0x0000000001025f8c                __muldi3
 .text          0x0000000001026094      0x61c /home/efesxzc/intelFPGA_lite/19.1/nios2eds/bin/gnu/H-x86_64-pc-linux-gnu/bin/../lib/gcc/nios2-elf/8.3.1/mno-hw-mul/libgcc.a(_udivdi3.o)
                0x0000000001026094                __udivdi3
 .text          0x00000000010266b0      0x5c8 /home/efesxzc/intelFPGA_lite/19.1/nios2eds/bin/gnu/H-x86_64-pc-linux-gnu/bin/../lib/gcc/nios2-elf/8.3.1/mno-hw-mul/libgcc.a(_umoddi3.o)
                0x00000000010266b0                __umoddi3
 .text          0x0000000001026c78      0x9a0 /home/efesxzc/intelFPGA_lite/19.1/nios2eds/bin/gnu/H-x86_64-pc-linux-gnu/bin/../lib/gcc/nios2-elf/8.3.1/mno-hw-mul/libgcc.a(adddf3.o)
                0x0000000001026c78                __adddf3
 .text          0x0000000001027618      0x964 /home/efesxzc/intelFPGA_lite/19.1/nios2eds/bin/gnu/H-x86_64-pc-linux-gnu/bin/../lib/gcc/nios2-elf/8.3.1/mno-hw-mul/libgcc.a(divdf3.o)
                0x0000000001027618                __divdf3
 .text          0x0000000001027f7c       0x80 /home/efesxzc/intelFPGA_lite/19.1/nios2eds/bin/gnu/H-x86_64-pc-linux-gnu/bin/../lib/gcc/nios2-elf/8.3.1/mno-hw-mul/libgcc.a(eqdf2.o)
                0x0000000001027f7c                __eqdf2
                0x0000000001027f7c                __nedf2
 .text          0x0000000001027ffc       0xf0 /home/efesxzc/intelFPGA_lite/19.1/nios2eds/bin/gnu/H-x86_64-pc-linux-gnu/bin/../lib/gcc/nios2-elf/8.3.1/mno-hw-mul/libgcc.a(gedf2.o)
                0x0000000001027ffc                __gtdf2
                0x0000000001027ffc                __gedf2
 .text          0x00000000010280ec       0xf0 /home/efesxzc/intelFPGA_lite/19.1/nios2eds/bin/gnu/H-x86_64-pc-linux-gnu/bin/../lib/gcc/nios2-elf/8.3.1/mno-hw-mul/libgcc.a(ledf2.o)
                0x00000000010280ec                __ltdf2
                0x00000000010280ec                __ledf2
 .text          0x00000000010281dc      0x7e0 /home/efesxzc/intelFPGA_lite/19.1/nios2eds/bin/gnu/H-x86_64-pc-linux-gnu/bin/../lib/gcc/nios2-elf/8.3.1/mno-hw-mul/libgcc.a(muldf3.o)
                0x00000000010281dc                __muldf3
 .text          0x00000000010289bc      0x96c /home/efesxzc/intelFPGA_lite/19.1/nios2eds/bin/gnu/H-x86_64-pc-linux-gnu/bin/../lib/gcc/nios2-elf/8.3.1/mno-hw-mul/libgcc.a(subdf3.o)
                0x00000000010289bc                __subdf3
 .text          0x0000000001029328       0x54 /home/efesxzc/intelFPGA_lite/19.1/nios2eds/bin/gnu/H-x86_64-pc-linux-gnu/bin/../lib/gcc/nios2-elf/8.3.1/mno-hw-mul/libgcc.a(unorddf2.o)
                0x0000000001029328                __unorddf2
 .text          0x000000000102937c       0x80 /home/efesxzc/intelFPGA_lite/19.1/nios2eds/bin/gnu/H-x86_64-pc-linux-gnu/bin/../lib/gcc/nios2-elf/8.3.1/mno-hw-mul/libgcc.a(fixdfsi.o)
                0x000000000102937c                __fixdfsi
 .text          0x00000000010293fc       0xc8 /home/efesxzc/intelFPGA_lite/19.1/nios2eds/bin/gnu/H-x86_64-pc-linux-gnu/bin/../lib/gcc/nios2-elf/8.3.1/mno-hw-mul/libgcc.a(floatsidf.o)
                0x00000000010293fc                __floatsidf
 .text          0x00000000010294c4       0x9c /home/efesxzc/intelFPGA_lite/19.1/nios2eds/bin/gnu/H-x86_64-pc-linux-gnu/bin/../lib/gcc/nios2-elf/8.3.1/mno-hw-mul/libgcc.a(floatunsidf.o)
                0x00000000010294c4                __floatunsidf
 .text          0x0000000001029560        0x0 /home/efesxzc/intelFPGA_lite/19.1/nios2eds/bin/gnu/H-x86_64-pc-linux-gnu/bin/../lib/gcc/nios2-elf/8.3.1/mno-hw-mul/libgcc.a(_clz.o)
 .text          0x0000000001029560       0x54 /home/efesxzc/intelFPGA_lite/19.1/nios2eds/bin/gnu/H-x86_64-pc-linux-gnu/bin/../lib/gcc/nios2-elf/8.3.1/mno-hw-mul/libgcc.a(_clzsi2.o)
                0x0000000001029560                __clzsi2
 .text          0x00000000010295b4      0x118 ../civ_002_bsp//libhal_bsp.a(alt_close.o)
                0x00000000010295f0                close
 .text          0x00000000010296cc       0x2c ../civ_002_bsp//libhal_bsp.a(alt_dev.o)
 .text          0x00000000010296f8        0x0 ../civ_002_bsp//libhal_bsp.a(alt_errno.o)
 .text          0x00000000010296f8       0xf8 ../civ_002_bsp//libhal_bsp.a(alt_fstat.o)
                0x0000000001029734                fstat
 .text          0x00000000010297f0        0x0 ../civ_002_bsp//libhal_bsp.a(alt_irq_handler.o)
 .text          0x00000000010297f0        0x0 ../civ_002_bsp//libhal_bsp.a(alt_irq_vars.o)
 .text          0x00000000010297f0       0xec ../civ_002_bsp//libhal_bsp.a(alt_isatty.o)
                0x000000000102982c                isatty
 .text          0x00000000010298dc       0xec ../civ_002_bsp//libhal_bsp.a(alt_load.o)
                0x0000000001029944                alt_load
 .text          0x00000000010299c8      0x11c ../civ_002_bsp//libhal_bsp.a(alt_lseek.o)
                0x0000000001029a04                lseek
 .text          0x0000000001029ae4       0x60 ../civ_002_bsp//libhal_bsp.a(alt_main.o)
                0x0000000001029ae4                alt_main
 .text          0x0000000001029b44       0x48 ../civ_002_bsp//libhal_bsp.a(alt_malloc_lock.o)
                0x0000000001029b44                __malloc_lock
                0x0000000001029b68                __malloc_unlock
 .text          0x0000000001029b8c      0x144 ../civ_002_bsp//libhal_bsp.a(alt_read.o)
                0x0000000001029bc8                read
 .text          0x0000000001029cd0       0x70 ../civ_002_bsp//libhal_bsp.a(alt_release_fd.o)
                0x0000000001029cd0                alt_release_fd
 .text          0x0000000001029d40       0xb0 ../civ_002_bsp//libhal_bsp.a(alt_sbrk.o)
                0x0000000001029d40                sbrk
 .text          0x0000000001029df0      0x140 ../civ_002_bsp//libhal_bsp.a(alt_write.o)
                0x0000000001029e2c                write
 .text          0x0000000001029f30       0x94 ../civ_002_bsp//libhal_bsp.a(alt_sys_init.o)
                0x0000000001029f30                alt_irq_init
                0x0000000001029f68                alt_sys_init
 .text          0x0000000001029fc4     0x1bfc ../civ_002_bsp//libhal_bsp.a(altera_avalon_i2c.o)
                0x000000000102a0d4                alt_avalon_i2c_register_optional_irq_handler
                0x000000000102a1c0                alt_avalon_i2c_register_callback
                0x000000000102a214                alt_avalon_i2c_init
                0x000000000102a2d4                alt_avalon_i2c_open
                0x000000000102a314                alt_avalon_i2c_enable
                0x000000000102a3ac                alt_avalon_i2c_disable
                0x000000000102a3f8                alt_avalon_i2c_master_config_get
                0x000000000102a4a8                alt_avalon_i2c_master_config_set
                0x000000000102a574                alt_avalon_i2c_master_config_speed_get
                0x000000000102a608                alt_avalon_i2c_master_config_speed_set
                0x000000000102a704                alt_avalon_i2c_is_busy
                0x000000000102a748                alt_avalon_i2c_rx_read_available
                0x000000000102a7f4                alt_avalon_i2c_rx_read
                0x000000000102a89c                alt_avalon_i2c_cmd_write
                0x000000000102a988                alt_avalon_i2c_send_address
                0x000000000102aa78                alt_avalon_i2c_master_target_get
                0x000000000102aab0                alt_avalon_i2c_master_target_set
                0x000000000102aae4                alt_avalon_i2c_check_nack
                0x000000000102ab30                alt_avalon_i2c_check_arblost
                0x000000000102ab7c                alt_avalon_i2c_interrupt_transaction_status
                0x000000000102acb8                alt_avalon_i2c_master_tx
                0x000000000102ada0                alt_avalon_i2c_master_rx
                0x000000000102aedc                alt_avalon_i2c_master_tx_rx
                0x000000000102b0a4                alt_avalon_i2c_master_transmit
                0x000000000102b264                alt_avalon_i2c_master_transmit_using_interrupts
                0x000000000102b470                alt_avalon_i2c_master_receive
                0x000000000102b680                alt_avalon_i2c_master_receive_using_interrupts
                0x000000000102b870                alt_avalon_i2c_int_status_get
                0x000000000102b8c8                alt_avalon_i2c_int_raw_status_get
                0x000000000102b90c                alt_avalon_i2c_int_clear
                0x000000000102b948                alt_avalon_i2c_int_disable
                0x000000000102b9b4                alt_avalon_i2c_int_enable
                0x000000000102ba1c                alt_avalon_i2c_enabled_ints_get
                0x000000000102ba60                alt_avalon_i2c_rx_fifo_threshold_get
                0x000000000102baac                alt_avalon_i2c_rx_fifo_threshold_set
                0x000000000102bb10                alt_avalon_i2c_tfr_cmd_fifo_threshold_get
                0x000000000102bb5c                alt_avalon_i2c_tfr_cmd_fifo_threshold_set
 .text          0x000000000102bbc0      0x1fc ../civ_002_bsp//libhal_bsp.a(altera_avalon_spi.o)
                0x000000000102bbc0                alt_avalon_spi_command
 .text          0x000000000102bdbc       0xf0 ../civ_002_bsp//libhal_bsp.a(altera_avalon_timer_sc.o)
                0x000000000102be38                alt_avalon_timer_sc_init
 .text          0x000000000102beac      0x158 ../civ_002_bsp//libhal_bsp.a(alt_busy_sleep.o)
                0x000000000102beac                alt_busy_sleep
 .text          0x000000000102c004       0x20 ../civ_002_bsp//libhal_bsp.a(alt_dcache_flush_all.o)
                0x000000000102c004                alt_dcache_flush_all
 .text          0x000000000102c024       0xe0 ../civ_002_bsp//libhal_bsp.a(alt_dev_llist_insert.o)
                0x000000000102c060                alt_dev_llist_insert
 .text          0x000000000102c104       0x60 ../civ_002_bsp//libhal_bsp.a(alt_do_ctors.o)
                0x000000000102c104                _do_ctors
 .text          0x000000000102c164       0x60 ../civ_002_bsp//libhal_bsp.a(alt_do_dtors.o)
                0x000000000102c164                _do_dtors
 .text          0x000000000102c1c4       0x90 ../civ_002_bsp//libhal_bsp.a(alt_find_dev.o)
                0x000000000102c1c4                alt_find_dev
 .text          0x000000000102c254       0x20 ../civ_002_bsp//libhal_bsp.a(alt_icache_flush_all.o)
                0x000000000102c254                alt_icache_flush_all
 .text          0x000000000102c274      0x22c ../civ_002_bsp//libhal_bsp.a(alt_printf.o)
                0x000000000102c274                alt_printf
 .text          0x000000000102c4a0       0x30 ../civ_002_bsp//libhal_bsp.a(alt_putchar.o)
                0x000000000102c4a0                alt_putchar
 .text          0x000000000102c4d0      0x1a4 ../civ_002_bsp//libhal_bsp.a(alt_tick.o)
                0x000000000102c4d0                alt_alarm_stop
                0x000000000102c56c                alt_tick
 .text          0x000000000102c674       0x24 ../civ_002_bsp//libhal_bsp.a(altera_nios2_gen2_irq.o)
                0x000000000102c674                altera_nios2_gen2_irq_init
 .text          0x000000000102c698        0x0 /home/efesxzc/intelFPGA_lite/19.1/nios2eds/bin/gnu/H-x86_64-pc-linux-gnu/bin/../lib/gcc/nios2-elf/8.3.1/../../../../../H-x86_64-pc-linux-gnu/nios2-elf/lib/mno-hw-mul/libc.a(lib_a-atexit.o)
 .text.atexit   0x000000000102c698       0x14 /home/efesxzc/intelFPGA_lite/19.1/nios2eds/bin/gnu/H-x86_64-pc-linux-gnu/bin/../lib/gcc/nios2-elf/8.3.1/../../../../../H-x86_64-pc-linux-gnu/nios2-elf/lib/mno-hw-mul/libc.a(lib_a-atexit.o)
                0x000000000102c698                atexit
 .text          0x000000000102c6ac        0x0 /home/efesxzc/intelFPGA_lite/19.1/nios2eds/bin/gnu/H-x86_64-pc-linux-gnu/bin/../lib/gcc/nios2-elf/8.3.1/../../../../../H-x86_64-pc-linux-gnu/nios2-elf/lib/mno-hw-mul/libc.a(lib_a-exit.o)
 .text.exit     0x000000000102c6ac       0x34 /home/efesxzc/intelFPGA_lite/19.1/nios2eds/bin/gnu/H-x86_64-pc-linux-gnu/bin/../lib/gcc/nios2-elf/8.3.1/../../../../../H-x86_64-pc-linux-gnu/nios2-elf/lib/mno-hw-mul/libc.a(lib_a-exit.o)
                0x000000000102c6ac                exit
 .text          0x000000000102c6e0        0x0 /home/efesxzc/intelFPGA_lite/19.1/nios2eds/bin/gnu/H-x86_64-pc-linux-gnu/bin/../lib/gcc/nios2-elf/8.3.1/../../../../../H-x86_64-pc-linux-gnu/nios2-elf/lib/mno-hw-mul/libc.a(lib_a-putchar.o)
 .text._putchar_r
                0x000000000102c6e0        0x8 /home/efesxzc/intelFPGA_lite/19.1/nios2eds/bin/gnu/H-x86_64-pc-linux-gnu/bin/../lib/gcc/nios2-elf/8.3.1/../../../../../H-x86_64-pc-linux-gnu/nios2-elf/lib/mno-hw-mul/libc.a(lib_a-putchar.o)
                0x000000000102c6e0                _putchar_r
 .text.putchar  0x000000000102c6e8       0x18 /home/efesxzc/intelFPGA_lite/19.1/nios2eds/bin/gnu/H-x86_64-pc-linux-gnu/bin/../lib/gcc/nios2-elf/8.3.1/../../../../../H-x86_64-pc-linux-gnu/nios2-elf/lib/mno-hw-mul/libc.a(lib_a-putchar.o)
                0x000000000102c6e8                putchar
 .text          0x000000000102c700        0x0 /home/efesxzc/intelFPGA_lite/19.1/nios2eds/bin/gnu/H-x86_64-pc-linux-gnu/bin/../lib/gcc/nios2-elf/8.3.1/../../../../../H-x86_64-pc-linux-gnu/nios2-elf/lib/mno-hw-mul/libc.a(lib_a-__atexit.o)
 .text.__register_exitproc
                0x000000000102c700       0x90 /home/efesxzc/intelFPGA_lite/19.1/nios2eds/bin/gnu/H-x86_64-pc-linux-gnu/bin/../lib/gcc/nios2-elf/8.3.1/../../../../../H-x86_64-pc-linux-gnu/nios2-elf/lib/mno-hw-mul/libc.a(lib_a-__atexit.o)
                0x000000000102c700                __register_exitproc
 .text          0x000000000102c790        0x0 /home/efesxzc/intelFPGA_lite/19.1/nios2eds/bin/gnu/H-x86_64-pc-linux-gnu/bin/../lib/gcc/nios2-elf/8.3.1/../../../../../H-x86_64-pc-linux-gnu/nios2-elf/lib/mno-hw-mul/libc.a(lib_a-__call_atexit.o)
 .text.__call_exitprocs
                0x000000000102c790      0x118 /home/efesxzc/intelFPGA_lite/19.1/nios2eds/bin/gnu/H-x86_64-pc-linux-gnu/bin/../lib/gcc/nios2-elf/8.3.1/../../../../../H-x86_64-pc-linux-gnu/nios2-elf/lib/mno-hw-mul/libc.a(lib_a-__call_atexit.o)
                0x000000000102c790                __call_exitprocs
 .text          0x000000000102c8a8        0x0 /home/efesxzc/intelFPGA_lite/19.1/nios2eds/bin/gnu/H-x86_64-pc-linux-gnu/bin/../lib/gcc/nios2-elf/8.3.1/../../../../../H-x86_64-pc-linux-gnu/nios2-elf/lib/mno-hw-mul/libc.a(lib_a-putc.o)
 .text._putc_r  0x000000000102c8a8       0xcc /home/efesxzc/intelFPGA_lite/19.1/nios2eds/bin/gnu/H-x86_64-pc-linux-gnu/bin/../lib/gcc/nios2-elf/8.3.1/../../../../../H-x86_64-pc-linux-gnu/nios2-elf/lib/mno-hw-mul/libc.a(lib_a-putc.o)
                0x000000000102c8a8                _putc_r
 .text.putc     0x000000000102c974       0xe0 /home/efesxzc/intelFPGA_lite/19.1/nios2eds/bin/gnu/H-x86_64-pc-linux-gnu/bin/../lib/gcc/nios2-elf/8.3.1/../../../../../H-x86_64-pc-linux-gnu/nios2-elf/lib/mno-hw-mul/libc.a(lib_a-putc.o)
                0x000000000102c974                putc
 .text          0x000000000102ca54       0x34 ../civ_002_bsp//libhal_bsp.a(alt_exit.o)
                0x000000000102ca54                _exit
 *(.gnu.warning.*)
 *(.fini)
                [!provide]                        PROVIDE (__etext = ABSOLUTE (.))
                [!provide]                        PROVIDE (_etext = ABSOLUTE (.))
                [!provide]                        PROVIDE (etext = ABSOLUTE (.))
 *(.eh_frame_hdr)
                0x000000000102ca88                . = ALIGN (0x4)
                [!provide]                        PROVIDE (__preinit_array_start = ABSOLUTE (.))
 *(.preinit_array)
                [!provide]                        PROVIDE (__preinit_array_end = ABSOLUTE (.))
                [!provide]                        PROVIDE (__init_array_start = ABSOLUTE (.))
 *(.init_array)
                [!provide]                        PROVIDE (__init_array_end = ABSOLUTE (.))
                [!provide]                        PROVIDE (__fini_array_start = ABSOLUTE (.))
 *(.fini_array)
                [!provide]                        PROVIDE (__fini_array_end = ABSOLUTE (.))
 *(.eh_frame)
 *(.gcc_except_table .gcc_except_table.*)
 *(.dynamic)
                0x000000000102ca88                PROVIDE (__CTOR_LIST__ = ABSOLUTE (.))
 *(.ctors)
 *(SORT_BY_NAME(.ctors.*))
                0x000000000102ca88                PROVIDE (__CTOR_END__ = ABSOLUTE (.))
                0x000000000102ca88                PROVIDE (__DTOR_LIST__ = ABSOLUTE (.))
 *(.dtors)
 *(SORT_BY_NAME(.dtors.*))
                0x000000000102ca88                PROVIDE (__DTOR_END__ = ABSOLUTE (.))
 *(.jcr)
                0x000000000102ca88                . = ALIGN (0x4)

.rodata         0x000000000102ca88     0x1b9c
                0x000000000102ca88                PROVIDE (__ram_rodata_start = ABSOLUTE (.))
                0x000000000102ca88                . = ALIGN (0x4)
 *(.rodata .rodata.* .gnu.linkonce.r.*)
 .rodata        0x000000000102ca88      0x47b obj/default/./CLI-Commands.o
 *fill*         0x000000000102cf03        0x1 
 .rodata        0x000000000102cf04       0x27 obj/default/./at24c08.o
 *fill*         0x000000000102cf2b        0x1 
 .rodata        0x000000000102cf2c       0xd8 obj/default/./http_server.o
                0x000000000102cf2c                http_header
 .rodata        0x000000000102d004       0x2d obj/default/./lm75.o
 *fill*         0x000000000102d031        0x3 
 .rodata        0x000000000102d034       0x6e obj/default/./main.o
 *fill*         0x000000000102d0a2        0x2 
 .rodata        0x000000000102d0a4       0xb1 obj/default/./telnet_server.o
 *fill*         0x000000000102d155        0x3 
 .rodata        0x000000000102d158       0x17 obj/default/FreeRTOS/FreeRTOS-Kernel/tasks.o
 *fill*         0x000000000102d16f        0x1 
 .rodata        0x000000000102d170       0xf0 obj/default/FreeRTOS/FreeRTOS-Plus-CLI/FreeRTOS_CLI.o
 .rodata        0x000000000102d260       0x26 obj/default/FreeRTOS/FreeRTOS-Plus-TCP/FreeRTOS_ARP.o
 *fill*         0x000000000102d286        0x2 
 .rodata        0x000000000102d288      0x233 obj/default/FreeRTOS/FreeRTOS-Plus-TCP/FreeRTOS_IP.o
 *fill*         0x000000000102d4bb        0x1 
 .rodata        0x000000000102d4bc      0x32b obj/default/FreeRTOS/FreeRTOS-Plus-TCP/FreeRTOS_Sockets.o
 *fill*         0x000000000102d7e7        0x1 
 .rodata        0x000000000102d7e8      0x668 obj/default/FreeRTOS/FreeRTOS-Plus-TCP/FreeRTOS_TCP_IP.o
 .rodata        0x000000000102de50       0xdd obj/default/FreeRTOS/FreeRTOS-Plus-TCP/FreeRTOS_TCP_WIN.o
 *fill*         0x000000000102df2d        0x3 
 .rodata        0x000000000102df30       0x5b obj/default/FreeRTOS/FreeRTOS-Plus-TCP/portable/NetworkInterface/ENC28J60/NetworkInterface.o
 *fill*         0x000000000102df8b        0x1 
 .rodata        0x000000000102df8c       0xbf obj/default/FreeRTOS/FreeRTOS-Plus-TCP/portable/BufferManagement/BufferAllocation_1.o
 *fill*         0x000000000102e04b        0x1 
 .rodata._puts_r.str1.4
                0x000000000102e04c        0x2 /home/efesxzc/intelFPGA_lite/19.1/nios2eds/bin/gnu/H-x86_64-pc-linux-gnu/bin/../lib/gcc/nios2-elf/8.3.1/../../../../../H-x86_64-pc-linux-gnu/nios2-elf/lib/mno-hw-mul/libc.a(lib_a-puts.o)
 *fill*         0x000000000102e04e        0x2 
 .rodata.___svfprintf_internal_r.str1.4
                0x000000000102e050       0x42 /home/efesxzc/intelFPGA_lite/19.1/nios2eds/bin/gnu/H-x86_64-pc-linux-gnu/bin/../lib/gcc/nios2-elf/8.3.1/../../../../../H-x86_64-pc-linux-gnu/nios2-elf/lib/mno-hw-mul/libc.a(lib_a-svfprintf.o)
 .rodata.zeroes.5208
                0x000000000102e092       0x10 /home/efesxzc/intelFPGA_lite/19.1/nios2eds/bin/gnu/H-x86_64-pc-linux-gnu/bin/../lib/gcc/nios2-elf/8.3.1/../../../../../H-x86_64-pc-linux-gnu/nios2-elf/lib/mno-hw-mul/libc.a(lib_a-svfprintf.o)
 .rodata.blanks.5207
                0x000000000102e0a2       0x10 /home/efesxzc/intelFPGA_lite/19.1/nios2eds/bin/gnu/H-x86_64-pc-linux-gnu/bin/../lib/gcc/nios2-elf/8.3.1/../../../../../H-x86_64-pc-linux-gnu/nios2-elf/lib/mno-hw-mul/libc.a(lib_a-svfprintf.o)
 .rodata.___vfprintf_internal_r.str1.4
                0x000000000102e0b2       0x42 /home/efesxzc/intelFPGA_lite/19.1/nios2eds/bin/gnu/H-x86_64-pc-linux-gnu/bin/../lib/gcc/nios2-elf/8.3.1/../../../../../H-x86_64-pc-linux-gnu/nios2-elf/lib/mno-hw-mul/libc.a(lib_a-vfprintf.o)
 .rodata.zeroes.5227
                0x000000000102e0b2       0x10 /home/efesxzc/intelFPGA_lite/19.1/nios2eds/bin/gnu/H-x86_64-pc-linux-gnu/bin/../lib/gcc/nios2-elf/8.3.1/../../../../../H-x86_64-pc-linux-gnu/nios2-elf/lib/mno-hw-mul/libc.a(lib_a-vfprintf.o)
 .rodata.blanks.5226
                0x000000000102e0c2       0x10 /home/efesxzc/intelFPGA_lite/19.1/nios2eds/bin/gnu/H-x86_64-pc-linux-gnu/bin/../lib/gcc/nios2-elf/8.3.1/../../../../../H-x86_64-pc-linux-gnu/nios2-elf/lib/mno-hw-mul/libc.a(lib_a-vfprintf.o)
 .rodata._ctype_
                0x000000000102e0d2      0x101 /home/efesxzc/intelFPGA_lite/19.1/nios2eds/bin/gnu/H-x86_64-pc-linux-gnu/bin/../lib/gcc/nios2-elf/8.3.1/../../../../../H-x86_64-pc-linux-gnu/nios2-elf/lib/mno-hw-mul/libc.a(lib_a-ctype_.o)
                0x000000000102e0d2                _ctype_
 .rodata._ctype_b
                0x000000000102e1d3      0x180 /home/efesxzc/intelFPGA_lite/19.1/nios2eds/bin/gnu/H-x86_64-pc-linux-gnu/bin/../lib/gcc/nios2-elf/8.3.1/../../../../../H-x86_64-pc-linux-gnu/nios2-elf/lib/mno-hw-mul/libc.a(lib_a-ctype_.o)
                0x000000000102e1d3                _ctype_b
 *fill*         0x000000000102e353        0x1 
 .rodata._dtoa_r.str1.4
                0x000000000102e354        0xd /home/efesxzc/intelFPGA_lite/19.1/nios2eds/bin/gnu/H-x86_64-pc-linux-gnu/bin/../lib/gcc/nios2-elf/8.3.1/../../../../../H-x86_64-pc-linux-gnu/nios2-elf/lib/mno-hw-mul/libc.a(lib_a-dtoa.o)
                                         0x12 (size before relaxing)
 *fill*         0x000000000102e361        0x3 
 .rodata.p05.4024
                0x000000000102e364        0xc /home/efesxzc/intelFPGA_lite/19.1/nios2eds/bin/gnu/H-x86_64-pc-linux-gnu/bin/../lib/gcc/nios2-elf/8.3.1/../../../../../H-x86_64-pc-linux-gnu/nios2-elf/lib/mno-hw-mul/libc.a(lib_a-mprec.o)
 .rodata.__mprec_tinytens
                0x000000000102e370       0x28 /home/efesxzc/intelFPGA_lite/19.1/nios2eds/bin/gnu/H-x86_64-pc-linux-gnu/bin/../lib/gcc/nios2-elf/8.3.1/../../../../../H-x86_64-pc-linux-gnu/nios2-elf/lib/mno-hw-mul/libc.a(lib_a-mprec.o)
                0x000000000102e370                __mprec_tinytens
 .rodata.__mprec_bigtens
                0x000000000102e398       0x28 /home/efesxzc/intelFPGA_lite/19.1/nios2eds/bin/gnu/H-x86_64-pc-linux-gnu/bin/../lib/gcc/nios2-elf/8.3.1/../../../../../H-x86_64-pc-linux-gnu/nios2-elf/lib/mno-hw-mul/libc.a(lib_a-mprec.o)
                0x000000000102e398                __mprec_bigtens
 .rodata.__mprec_tens
                0x000000000102e3c0       0xc8 /home/efesxzc/intelFPGA_lite/19.1/nios2eds/bin/gnu/H-x86_64-pc-linux-gnu/bin/../lib/gcc/nios2-elf/8.3.1/../../../../../H-x86_64-pc-linux-gnu/nios2-elf/lib/mno-hw-mul/libc.a(lib_a-mprec.o)
                0x000000000102e3c0                __mprec_tens
 .rodata.___svfiprintf_internal_r.str1.4
                0x000000000102e488       0x2f /home/efesxzc/intelFPGA_lite/19.1/nios2eds/bin/gnu/H-x86_64-pc-linux-gnu/bin/../lib/gcc/nios2-elf/8.3.1/../../../../../H-x86_64-pc-linux-gnu/nios2-elf/lib/mno-hw-mul/libc.a(lib_a-svfiprintf.o)
 .rodata.zeroes.5188
                0x000000000102e488       0x10 /home/efesxzc/intelFPGA_lite/19.1/nios2eds/bin/gnu/H-x86_64-pc-linux-gnu/bin/../lib/gcc/nios2-elf/8.3.1/../../../../../H-x86_64-pc-linux-gnu/nios2-elf/lib/mno-hw-mul/libc.a(lib_a-svfiprintf.o)
 .rodata.blanks.5187
                0x000000000102e498       0x10 /home/efesxzc/intelFPGA_lite/19.1/nios2eds/bin/gnu/H-x86_64-pc-linux-gnu/bin/../lib/gcc/nios2-elf/8.3.1/../../../../../H-x86_64-pc-linux-gnu/nios2-elf/lib/mno-hw-mul/libc.a(lib_a-svfiprintf.o)
 .rodata.___vfiprintf_internal_r.str1.4
                0x000000000102e4a8       0x2f /home/efesxzc/intelFPGA_lite/19.1/nios2eds/bin/gnu/H-x86_64-pc-linux-gnu/bin/../lib/gcc/nios2-elf/8.3.1/../../../../../H-x86_64-pc-linux-gnu/nios2-elf/lib/mno-hw-mul/libc.a(lib_a-vfiprintf.o)
 .rodata.zeroes.5204
                0x000000000102e4a8       0x10 /home/efesxzc/intelFPGA_lite/19.1/nios2eds/bin/gnu/H-x86_64-pc-linux-gnu/bin/../lib/gcc/nios2-elf/8.3.1/../../../../../H-x86_64-pc-linux-gnu/nios2-elf/lib/mno-hw-mul/libc.a(lib_a-vfiprintf.o)
 .rodata.blanks.5203
                0x000000000102e4b8       0x10 /home/efesxzc/intelFPGA_lite/19.1/nios2eds/bin/gnu/H-x86_64-pc-linux-gnu/bin/../lib/gcc/nios2-elf/8.3.1/../../../../../H-x86_64-pc-linux-gnu/nios2-elf/lib/mno-hw-mul/libc.a(lib_a-vfiprintf.o)
 .rodata._setlocale_r.str1.4
                0x000000000102e4c8        0xa /home/efesxzc/intelFPGA_lite/19.1/nios2eds/bin/gnu/H-x86_64-pc-linux-gnu/bin/../lib/gcc/nios2-elf/8.3.1/../../../../../H-x86_64-pc-linux-gnu/nios2-elf/lib/mno-hw-mul/libc.a(lib_a-locale.o)
 *fill*         0x000000000102e4d2        0x2 
 .rodata.str1.4
                0x000000000102e4d4        0x4 /home/efesxzc/intelFPGA_lite/19.1/nios2eds/bin/gnu/H-x86_64-pc-linux-gnu/bin/../lib/gcc/nios2-elf/8.3.1/../../../../../H-x86_64-pc-linux-gnu/nios2-elf/lib/mno-hw-mul/libc.a(lib_a-locale.o)
                                          0x5 (size before relaxing)
 .rodata        0x000000000102e4d8      0x100 /home/efesxzc/intelFPGA_lite/19.1/nios2eds/bin/gnu/H-x86_64-pc-linux-gnu/bin/../lib/gcc/nios2-elf/8.3.1/mno-hw-mul/libgcc.a(_clz.o)
                0x000000000102e4d8                __clz_tab
 .rodata        0x000000000102e5d8        0xa ../civ_002_bsp//libhal_bsp.a(alt_dev.o)
 *fill*         0x000000000102e5e2        0x2 
 .rodata        0x000000000102e5e4       0x1e ../civ_002_bsp//libhal_bsp.a(alt_sys_init.o)
 *fill*         0x000000000102e602        0x2 
 .rodata        0x000000000102e604       0x1d ../civ_002_bsp//libhal_bsp.a(altera_avalon_i2c.o)
 *(.rodata1)
                0x000000000102e624                . = ALIGN (0x4)
 *fill*         0x000000000102e621        0x3 
                0x000000000102e624                PROVIDE (__ram_rodata_end = ABSOLUTE (.))
                0x000000000102ca88                PROVIDE (__flash_rodata_start = LOADADDR (.rodata))

.rwdata         0x000000000102e624      0xc70 load address 0x000000000102f294
                0x000000000102e624                PROVIDE (__ram_rwdata_start = ABSOLUTE (.))
                0x000000000102e624                . = ALIGN (0x4)
 *(.got.plt)
 *(.got)
 *(.data1)
 *(.data .data.* .gnu.linkonce.d.*)
 .data          0x000000000102e624        0x0 ../civ_002_bsp//obj/HAL/src/crt0.o
 .data          0x000000000102e624        0x0 obj/default/./CLI-Commands.o
 .data          0x000000000102e624        0x0 obj/default/./at24c08.o
 .data          0x000000000102e624        0x0 obj/default/./http_server.o
 .data          0x000000000102e624        0x0 obj/default/./lm75.o
 .data          0x000000000102e624        0x0 obj/default/./main.o
 .data          0x000000000102e624        0x0 obj/default/./telnet_server.o
 .data          0x000000000102e624        0x0 obj/default/FreeRTOS/FreeRTOS-Kernel/croutine.o
 .data          0x000000000102e624        0x0 obj/default/FreeRTOS/FreeRTOS-Kernel/event_groups.o
 .data          0x000000000102e624        0x0 obj/default/FreeRTOS/FreeRTOS-Kernel/list.o
 .data          0x000000000102e624        0x0 obj/default/FreeRTOS/FreeRTOS-Kernel/portable/GCC/NiosII/port.o
 .data          0x000000000102e624        0x0 obj/default/FreeRTOS/FreeRTOS-Kernel/portable/portTimer.o
 .data          0x000000000102e624        0x0 obj/default/FreeRTOS/FreeRTOS-Kernel/queue.o
 .data          0x000000000102e624        0x0 obj/default/FreeRTOS/FreeRTOS-Kernel/stream_buffer.o
 .data          0x000000000102e624        0x0 obj/default/FreeRTOS/FreeRTOS-Kernel/tasks.o
 .data          0x000000000102e624        0x0 obj/default/FreeRTOS/FreeRTOS-Kernel/timers.o
 .data          0x000000000102e624        0x0 obj/default/FreeRTOS/FreeRTOS-Plus-CLI/FreeRTOS_CLI.o
 .data          0x000000000102e624        0x0 obj/default/FreeRTOS/FreeRTOS-Plus-TCP/FreeRTOS_ARP.o
 .data          0x000000000102e624        0x0 obj/default/FreeRTOS/FreeRTOS-Plus-TCP/FreeRTOS_DHCP.o
 .data          0x000000000102e624        0x0 obj/default/FreeRTOS/FreeRTOS-Plus-TCP/FreeRTOS_DNS.o
 .data          0x000000000102e624        0x0 obj/default/FreeRTOS/FreeRTOS-Plus-TCP/FreeRTOS_IP.o
 .data          0x000000000102e624        0x0 obj/default/FreeRTOS/FreeRTOS-Plus-TCP/FreeRTOS_Sockets.o
 .data          0x000000000102e624        0x0 obj/default/FreeRTOS/FreeRTOS-Plus-TCP/FreeRTOS_Stream_Buffer.o
 .data          0x000000000102e624        0x0 obj/default/FreeRTOS/FreeRTOS-Plus-TCP/FreeRTOS_TCP_IP.o
 .data          0x000000000102e624        0x0 obj/default/FreeRTOS/FreeRTOS-Plus-TCP/FreeRTOS_TCP_WIN.o
 .data          0x000000000102e624       0x18 obj/default/FreeRTOS/FreeRTOS-Plus-TCP/FreeRTOS_UDP_IP.o
                0x000000000102e624                xDefaultPartUDPPacketHeader
 .data          0x000000000102e63c        0x0 obj/default/FreeRTOS/FreeRTOS-Plus-TCP/portable/NetworkInterface/ENC28J60/NetworkInterface.o
 .data          0x000000000102e63c        0x0 obj/default/FreeRTOS/FreeRTOS-Plus-TCP/portable/NetworkInterface/ENC28J60/enc.o
 .data          0x000000000102e63c        0x0 obj/default/FreeRTOS/FreeRTOS-Kernel/portable/MemMang/heap_4.o
 .data          0x000000000102e63c        0x0 obj/default/FreeRTOS/FreeRTOS-Plus-TCP/portable/BufferManagement/BufferAllocation_1.o
 .data          0x000000000102e63c        0x0 obj/default/FreeRTOS/FreeRTOS-Kernel/portable/GCC/NiosII/port_asm.o
 .data          0x000000000102e63c        0x0 /home/efesxzc/intelFPGA_lite/19.1/nios2eds/bin/gnu/H-x86_64-pc-linux-gnu/bin/../lib/gcc/nios2-elf/8.3.1/mno-hw-mul/libgcc.a(lib2-divmod.o)
 .data          0x000000000102e63c        0x0 /home/efesxzc/intelFPGA_lite/19.1/nios2eds/bin/gnu/H-x86_64-pc-linux-gnu/bin/../lib/gcc/nios2-elf/8.3.1/mno-hw-mul/libgcc.a(lib2-mul.o)
 .data          0x000000000102e63c        0x0 /home/efesxzc/intelFPGA_lite/19.1/nios2eds/bin/gnu/H-x86_64-pc-linux-gnu/bin/../lib/gcc/nios2-elf/8.3.1/../../../../../H-x86_64-pc-linux-gnu/nios2-elf/lib/mno-hw-mul/libc.a(lib_a-memcmp.o)
 .data          0x000000000102e63c        0x0 /home/efesxzc/intelFPGA_lite/19.1/nios2eds/bin/gnu/H-x86_64-pc-linux-gnu/bin/../lib/gcc/nios2-elf/8.3.1/../../../../../H-x86_64-pc-linux-gnu/nios2-elf/lib/mno-hw-mul/libc.a(lib_a-memcpy.o)
 .data          0x000000000102e63c        0x0 /home/efesxzc/intelFPGA_lite/19.1/nios2eds/bin/gnu/H-x86_64-pc-linux-gnu/bin/../lib/gcc/nios2-elf/8.3.1/../../../../../H-x86_64-pc-linux-gnu/nios2-elf/lib/mno-hw-mul/libc.a(lib_a-memmove.o)
 .data          0x000000000102e63c        0x0 /home/efesxzc/intelFPGA_lite/19.1/nios2eds/bin/gnu/H-x86_64-pc-linux-gnu/bin/../lib/gcc/nios2-elf/8.3.1/../../../../../H-x86_64-pc-linux-gnu/nios2-elf/lib/mno-hw-mul/libc.a(lib_a-memset.o)
 .data          0x000000000102e63c        0x0 /home/efesxzc/intelFPGA_lite/19.1/nios2eds/bin/gnu/H-x86_64-pc-linux-gnu/bin/../lib/gcc/nios2-elf/8.3.1/../../../../../H-x86_64-pc-linux-gnu/nios2-elf/lib/mno-hw-mul/libc.a(lib_a-printf.o)
 .data          0x000000000102e63c        0x0 /home/efesxzc/intelFPGA_lite/19.1/nios2eds/bin/gnu/H-x86_64-pc-linux-gnu/bin/../lib/gcc/nios2-elf/8.3.1/../../../../../H-x86_64-pc-linux-gnu/nios2-elf/lib/mno-hw-mul/libc.a(lib_a-puts.o)
 .data          0x000000000102e63c        0x0 /home/efesxzc/intelFPGA_lite/19.1/nios2eds/bin/gnu/H-x86_64-pc-linux-gnu/bin/../lib/gcc/nios2-elf/8.3.1/../../../../../H-x86_64-pc-linux-gnu/nios2-elf/lib/mno-hw-mul/libc.a(lib_a-rand.o)
 .data          0x000000000102e63c        0x0 /home/efesxzc/intelFPGA_lite/19.1/nios2eds/bin/gnu/H-x86_64-pc-linux-gnu/bin/../lib/gcc/nios2-elf/8.3.1/../../../../../H-x86_64-pc-linux-gnu/nios2-elf/lib/mno-hw-mul/libc.a(lib_a-snprintf.o)
 .data          0x000000000102e63c        0x0 /home/efesxzc/intelFPGA_lite/19.1/nios2eds/bin/gnu/H-x86_64-pc-linux-gnu/bin/../lib/gcc/nios2-elf/8.3.1/../../../../../H-x86_64-pc-linux-gnu/nios2-elf/lib/mno-hw-mul/libc.a(lib_a-sprintf.o)
 .data          0x000000000102e63c        0x0 /home/efesxzc/intelFPGA_lite/19.1/nios2eds/bin/gnu/H-x86_64-pc-linux-gnu/bin/../lib/gcc/nios2-elf/8.3.1/../../../../../H-x86_64-pc-linux-gnu/nios2-elf/lib/mno-hw-mul/libc.a(lib_a-strcpy.o)
 .data          0x000000000102e63c        0x0 /home/efesxzc/intelFPGA_lite/19.1/nios2eds/bin/gnu/H-x86_64-pc-linux-gnu/bin/../lib/gcc/nios2-elf/8.3.1/../../../../../H-x86_64-pc-linux-gnu/nios2-elf/lib/mno-hw-mul/libc.a(lib_a-strlen.o)
 .data          0x000000000102e63c        0x0 /home/efesxzc/intelFPGA_lite/19.1/nios2eds/bin/gnu/H-x86_64-pc-linux-gnu/bin/../lib/gcc/nios2-elf/8.3.1/../../../../../H-x86_64-pc-linux-gnu/nios2-elf/lib/mno-hw-mul/libc.a(lib_a-strncmp.o)
 .data          0x000000000102e63c        0x0 /home/efesxzc/intelFPGA_lite/19.1/nios2eds/bin/gnu/H-x86_64-pc-linux-gnu/bin/../lib/gcc/nios2-elf/8.3.1/../../../../../H-x86_64-pc-linux-gnu/nios2-elf/lib/mno-hw-mul/libc.a(lib_a-strncpy.o)
 .data          0x000000000102e63c        0x0 /home/efesxzc/intelFPGA_lite/19.1/nios2eds/bin/gnu/H-x86_64-pc-linux-gnu/bin/../lib/gcc/nios2-elf/8.3.1/../../../../../H-x86_64-pc-linux-gnu/nios2-elf/lib/mno-hw-mul/libc.a(lib_a-strstr.o)
 .data          0x000000000102e63c        0x0 /home/efesxzc/intelFPGA_lite/19.1/nios2eds/bin/gnu/H-x86_64-pc-linux-gnu/bin/../lib/gcc/nios2-elf/8.3.1/../../../../../H-x86_64-pc-linux-gnu/nios2-elf/lib/mno-hw-mul/libc.a(lib_a-strtol.o)
 .data          0x000000000102e63c        0x0 /home/efesxzc/intelFPGA_lite/19.1/nios2eds/bin/gnu/H-x86_64-pc-linux-gnu/bin/../lib/gcc/nios2-elf/8.3.1/../../../../../H-x86_64-pc-linux-gnu/nios2-elf/lib/mno-hw-mul/libc.a(lib_a-svfprintf.o)
 .data          0x000000000102e63c        0x0 /home/efesxzc/intelFPGA_lite/19.1/nios2eds/bin/gnu/H-x86_64-pc-linux-gnu/bin/../lib/gcc/nios2-elf/8.3.1/../../../../../H-x86_64-pc-linux-gnu/nios2-elf/lib/mno-hw-mul/libc.a(lib_a-vfprintf.o)
 .data          0x000000000102e63c        0x0 /home/efesxzc/intelFPGA_lite/19.1/nios2eds/bin/gnu/H-x86_64-pc-linux-gnu/bin/../lib/gcc/nios2-elf/8.3.1/../../../../../H-x86_64-pc-linux-gnu/nios2-elf/lib/mno-hw-mul/libc.a(lib_a-wsetup.o)
 .data          0x000000000102e63c        0x0 /home/efesxzc/intelFPGA_lite/19.1/nios2eds/bin/gnu/H-x86_64-pc-linux-gnu/bin/../lib/gcc/nios2-elf/8.3.1/../../../../../H-x86_64-pc-linux-gnu/nios2-elf/lib/mno-hw-mul/libc.a(lib_a-ctype_.o)
 .data          0x000000000102e63c        0x0 /home/efesxzc/intelFPGA_lite/19.1/nios2eds/bin/gnu/H-x86_64-pc-linux-gnu/bin/../lib/gcc/nios2-elf/8.3.1/../../../../../H-x86_64-pc-linux-gnu/nios2-elf/lib/mno-hw-mul/libc.a(lib_a-dtoa.o)
 .data          0x000000000102e63c        0x0 /home/efesxzc/intelFPGA_lite/19.1/nios2eds/bin/gnu/H-x86_64-pc-linux-gnu/bin/../lib/gcc/nios2-elf/8.3.1/../../../../../H-x86_64-pc-linux-gnu/nios2-elf/lib/mno-hw-mul/libc.a(lib_a-fflush.o)
 .data          0x000000000102e63c        0x0 /home/efesxzc/intelFPGA_lite/19.1/nios2eds/bin/gnu/H-x86_64-pc-linux-gnu/bin/../lib/gcc/nios2-elf/8.3.1/../../../../../H-x86_64-pc-linux-gnu/nios2-elf/lib/mno-hw-mul/libc.a(lib_a-findfp.o)
 .data          0x000000000102e63c        0x0 /home/efesxzc/intelFPGA_lite/19.1/nios2eds/bin/gnu/H-x86_64-pc-linux-gnu/bin/../lib/gcc/nios2-elf/8.3.1/../../../../../H-x86_64-pc-linux-gnu/nios2-elf/lib/mno-hw-mul/libc.a(lib_a-freer.o)
 .data          0x000000000102e63c        0x0 /home/efesxzc/intelFPGA_lite/19.1/nios2eds/bin/gnu/H-x86_64-pc-linux-gnu/bin/../lib/gcc/nios2-elf/8.3.1/../../../../../H-x86_64-pc-linux-gnu/nios2-elf/lib/mno-hw-mul/libc.a(lib_a-fvwrite.o)
 .data          0x000000000102e63c        0x0 /home/efesxzc/intelFPGA_lite/19.1/nios2eds/bin/gnu/H-x86_64-pc-linux-gnu/bin/../lib/gcc/nios2-elf/8.3.1/../../../../../H-x86_64-pc-linux-gnu/nios2-elf/lib/mno-hw-mul/libc.a(lib_a-fwalk.o)
 .data          0x000000000102e63c        0x0 /home/efesxzc/intelFPGA_lite/19.1/nios2eds/bin/gnu/H-x86_64-pc-linux-gnu/bin/../lib/gcc/nios2-elf/8.3.1/../../../../../H-x86_64-pc-linux-gnu/nios2-elf/lib/mno-hw-mul/libc.a(lib_a-impure.o)
 .data.impure_data
                0x000000000102e63c      0x424 /home/efesxzc/intelFPGA_lite/19.1/nios2eds/bin/gnu/H-x86_64-pc-linux-gnu/bin/../lib/gcc/nios2-elf/8.3.1/../../../../../H-x86_64-pc-linux-gnu/nios2-elf/lib/mno-hw-mul/libc.a(lib_a-impure.o)
 .data          0x000000000102ea60        0x0 /home/efesxzc/intelFPGA_lite/19.1/nios2eds/bin/gnu/H-x86_64-pc-linux-gnu/bin/../lib/gcc/nios2-elf/8.3.1/../../../../../H-x86_64-pc-linux-gnu/nios2-elf/lib/mno-hw-mul/libc.a(lib_a-localeconv.o)
 .data          0x000000000102ea60        0x0 /home/efesxzc/intelFPGA_lite/19.1/nios2eds/bin/gnu/H-x86_64-pc-linux-gnu/bin/../lib/gcc/nios2-elf/8.3.1/../../../../../H-x86_64-pc-linux-gnu/nios2-elf/lib/mno-hw-mul/libc.a(lib_a-makebuf.o)
 .data          0x000000000102ea60        0x0 /home/efesxzc/intelFPGA_lite/19.1/nios2eds/bin/gnu/H-x86_64-pc-linux-gnu/bin/../lib/gcc/nios2-elf/8.3.1/../../../../../H-x86_64-pc-linux-gnu/nios2-elf/lib/mno-hw-mul/libc.a(lib_a-mallocr.o)
 .data.__malloc_av_
                0x000000000102ea60      0x408 /home/efesxzc/intelFPGA_lite/19.1/nios2eds/bin/gnu/H-x86_64-pc-linux-gnu/bin/../lib/gcc/nios2-elf/8.3.1/../../../../../H-x86_64-pc-linux-gnu/nios2-elf/lib/mno-hw-mul/libc.a(lib_a-mallocr.o)
                0x000000000102ea60                __malloc_av_
 .data          0x000000000102ee68        0x0 /home/efesxzc/intelFPGA_lite/19.1/nios2eds/bin/gnu/H-x86_64-pc-linux-gnu/bin/../lib/gcc/nios2-elf/8.3.1/../../../../../H-x86_64-pc-linux-gnu/nios2-elf/lib/mno-hw-mul/libc.a(lib_a-memchr.o)
 .data          0x000000000102ee68        0x0 /home/efesxzc/intelFPGA_lite/19.1/nios2eds/bin/gnu/H-x86_64-pc-linux-gnu/bin/../lib/gcc/nios2-elf/8.3.1/../../../../../H-x86_64-pc-linux-gnu/nios2-elf/lib/mno-hw-mul/libc.a(lib_a-mprec.o)
 .data          0x000000000102ee68        0x0 /home/efesxzc/intelFPGA_lite/19.1/nios2eds/bin/gnu/H-x86_64-pc-linux-gnu/bin/../lib/gcc/nios2-elf/8.3.1/../../../../../H-x86_64-pc-linux-gnu/nios2-elf/lib/mno-hw-mul/libc.a(lib_a-reallocr.o)
 .data          0x000000000102ee68        0x0 /home/efesxzc/intelFPGA_lite/19.1/nios2eds/bin/gnu/H-x86_64-pc-linux-gnu/bin/../lib/gcc/nios2-elf/8.3.1/../../../../../H-x86_64-pc-linux-gnu/nios2-elf/lib/mno-hw-mul/libc.a(lib_a-sbrkr.o)
 .data          0x000000000102ee68        0x0 /home/efesxzc/intelFPGA_lite/19.1/nios2eds/bin/gnu/H-x86_64-pc-linux-gnu/bin/../lib/gcc/nios2-elf/8.3.1/../../../../../H-x86_64-pc-linux-gnu/nios2-elf/lib/mno-hw-mul/libc.a(lib_a-stdio.o)
 .data          0x000000000102ee68        0x0 /home/efesxzc/intelFPGA_lite/19.1/nios2eds/bin/gnu/H-x86_64-pc-linux-gnu/bin/../lib/gcc/nios2-elf/8.3.1/../../../../../H-x86_64-pc-linux-gnu/nios2-elf/lib/mno-hw-mul/libc.a(lib_a-strchr.o)
 .data          0x000000000102ee68        0x0 /home/efesxzc/intelFPGA_lite/19.1/nios2eds/bin/gnu/H-x86_64-pc-linux-gnu/bin/../lib/gcc/nios2-elf/8.3.1/../../../../../H-x86_64-pc-linux-gnu/nios2-elf/lib/mno-hw-mul/libc.a(lib_a-strnlen.o)
 .data          0x000000000102ee68        0x0 /home/efesxzc/intelFPGA_lite/19.1/nios2eds/bin/gnu/H-x86_64-pc-linux-gnu/bin/../lib/gcc/nios2-elf/8.3.1/../../../../../H-x86_64-pc-linux-gnu/nios2-elf/lib/mno-hw-mul/libc.a(lib_a-svfiprintf.o)
 .data          0x000000000102ee68        0x0 /home/efesxzc/intelFPGA_lite/19.1/nios2eds/bin/gnu/H-x86_64-pc-linux-gnu/bin/../lib/gcc/nios2-elf/8.3.1/../../../../../H-x86_64-pc-linux-gnu/nios2-elf/lib/mno-hw-mul/libc.a(lib_a-vfiprintf.o)
 .data          0x000000000102ee68        0x0 /home/efesxzc/intelFPGA_lite/19.1/nios2eds/bin/gnu/H-x86_64-pc-linux-gnu/bin/../lib/gcc/nios2-elf/8.3.1/../../../../../H-x86_64-pc-linux-gnu/nios2-elf/lib/mno-hw-mul/libc.a(lib_a-writer.o)
 .data          0x000000000102ee68        0x0 /home/efesxzc/intelFPGA_lite/19.1/nios2eds/bin/gnu/H-x86_64-pc-linux-gnu/bin/../lib/gcc/nios2-elf/8.3.1/../../../../../H-x86_64-pc-linux-gnu/nios2-elf/lib/mno-hw-mul/libc.a(closer.o)
 .data          0x000000000102ee68        0x0 /home/efesxzc/intelFPGA_lite/19.1/nios2eds/bin/gnu/H-x86_64-pc-linux-gnu/bin/../lib/gcc/nios2-elf/8.3.1/../../../../../H-x86_64-pc-linux-gnu/nios2-elf/lib/mno-hw-mul/libc.a(lib_a-callocr.o)
 .data          0x000000000102ee68        0x0 /home/efesxzc/intelFPGA_lite/19.1/nios2eds/bin/gnu/H-x86_64-pc-linux-gnu/bin/../lib/gcc/nios2-elf/8.3.1/../../../../../H-x86_64-pc-linux-gnu/nios2-elf/lib/mno-hw-mul/libc.a(lib_a-fclose.o)
 .data          0x000000000102ee68        0x0 /home/efesxzc/intelFPGA_lite/19.1/nios2eds/bin/gnu/H-x86_64-pc-linux-gnu/bin/../lib/gcc/nios2-elf/8.3.1/../../../../../H-x86_64-pc-linux-gnu/nios2-elf/lib/mno-hw-mul/libc.a(lib_a-fputwc.o)
 .data          0x000000000102ee68        0x0 /home/efesxzc/intelFPGA_lite/19.1/nios2eds/bin/gnu/H-x86_64-pc-linux-gnu/bin/../lib/gcc/nios2-elf/8.3.1/../../../../../H-x86_64-pc-linux-gnu/nios2-elf/lib/mno-hw-mul/libc.a(lib_a-fstatr.o)
 .data          0x000000000102ee68        0x0 /home/efesxzc/intelFPGA_lite/19.1/nios2eds/bin/gnu/H-x86_64-pc-linux-gnu/bin/../lib/gcc/nios2-elf/8.3.1/../../../../../H-x86_64-pc-linux-gnu/nios2-elf/lib/mno-hw-mul/libc.a(lib_a-int_errno.o)
 .data          0x000000000102ee68        0x0 /home/efesxzc/intelFPGA_lite/19.1/nios2eds/bin/gnu/H-x86_64-pc-linux-gnu/bin/../lib/gcc/nios2-elf/8.3.1/../../../../../H-x86_64-pc-linux-gnu/nios2-elf/lib/mno-hw-mul/libc.a(lib_a-isattyr.o)
 .data          0x000000000102ee68        0x0 /home/efesxzc/intelFPGA_lite/19.1/nios2eds/bin/gnu/H-x86_64-pc-linux-gnu/bin/../lib/gcc/nios2-elf/8.3.1/../../../../../H-x86_64-pc-linux-gnu/nios2-elf/lib/mno-hw-mul/libc.a(lib_a-locale.o)
 .data.__global_locale
                0x000000000102ee68      0x16c /home/efesxzc/intelFPGA_lite/19.1/nios2eds/bin/gnu/H-x86_64-pc-linux-gnu/bin/../lib/gcc/nios2-elf/8.3.1/../../../../../H-x86_64-pc-linux-gnu/nios2-elf/lib/mno-hw-mul/libc.a(lib_a-locale.o)
                0x000000000102ee68                __global_locale
 .data          0x000000000102efd4        0x0 /home/efesxzc/intelFPGA_lite/19.1/nios2eds/bin/gnu/H-x86_64-pc-linux-gnu/bin/../lib/gcc/nios2-elf/8.3.1/../../../../../H-x86_64-pc-linux-gnu/nios2-elf/lib/mno-hw-mul/libc.a(lib_a-lseekr.o)
 .data          0x000000000102efd4        0x0 /home/efesxzc/intelFPGA_lite/19.1/nios2eds/bin/gnu/H-x86_64-pc-linux-gnu/bin/../lib/gcc/nios2-elf/8.3.1/../../../../../H-x86_64-pc-linux-gnu/nios2-elf/lib/mno-hw-mul/libc.a(lib_a-mbtowc_r.o)
 .data          0x000000000102efd4        0x0 /home/efesxzc/intelFPGA_lite/19.1/nios2eds/bin/gnu/H-x86_64-pc-linux-gnu/bin/../lib/gcc/nios2-elf/8.3.1/../../../../../H-x86_64-pc-linux-gnu/nios2-elf/lib/mno-hw-mul/libc.a(lib_a-readr.o)
 .data          0x000000000102efd4        0x0 /home/efesxzc/intelFPGA_lite/19.1/nios2eds/bin/gnu/H-x86_64-pc-linux-gnu/bin/../lib/gcc/nios2-elf/8.3.1/../../../../../H-x86_64-pc-linux-gnu/nios2-elf/lib/mno-hw-mul/libc.a(lib_a-strcmp.o)
 .data          0x000000000102efd4        0x0 /home/efesxzc/intelFPGA_lite/19.1/nios2eds/bin/gnu/H-x86_64-pc-linux-gnu/bin/../lib/gcc/nios2-elf/8.3.1/../../../../../H-x86_64-pc-linux-gnu/nios2-elf/lib/mno-hw-mul/libc.a(lib_a-wbuf.o)
 .data          0x000000000102efd4        0x0 /home/efesxzc/intelFPGA_lite/19.1/nios2eds/bin/gnu/H-x86_64-pc-linux-gnu/bin/../lib/gcc/nios2-elf/8.3.1/../../../../../H-x86_64-pc-linux-gnu/nios2-elf/lib/mno-hw-mul/libc.a(lib_a-wcrtomb.o)
 .data          0x000000000102efd4        0x0 /home/efesxzc/intelFPGA_lite/19.1/nios2eds/bin/gnu/H-x86_64-pc-linux-gnu/bin/../lib/gcc/nios2-elf/8.3.1/../../../../../H-x86_64-pc-linux-gnu/nios2-elf/lib/mno-hw-mul/libc.a(lib_a-wctomb_r.o)
 .data          0x000000000102efd4        0x0 /home/efesxzc/intelFPGA_lite/19.1/nios2eds/bin/gnu/H-x86_64-pc-linux-gnu/bin/../lib/gcc/nios2-elf/8.3.1/mno-hw-mul/libgcc.a(_muldi3.o)
 .data          0x000000000102efd4        0x0 /home/efesxzc/intelFPGA_lite/19.1/nios2eds/bin/gnu/H-x86_64-pc-linux-gnu/bin/../lib/gcc/nios2-elf/8.3.1/mno-hw-mul/libgcc.a(_udivdi3.o)
 .data          0x000000000102efd4        0x0 /home/efesxzc/intelFPGA_lite/19.1/nios2eds/bin/gnu/H-x86_64-pc-linux-gnu/bin/../lib/gcc/nios2-elf/8.3.1/mno-hw-mul/libgcc.a(_umoddi3.o)
 .data          0x000000000102efd4        0x0 /home/efesxzc/intelFPGA_lite/19.1/nios2eds/bin/gnu/H-x86_64-pc-linux-gnu/bin/../lib/gcc/nios2-elf/8.3.1/mno-hw-mul/libgcc.a(adddf3.o)
 .data          0x000000000102efd4        0x0 /home/efesxzc/intelFPGA_lite/19.1/nios2eds/bin/gnu/H-x86_64-pc-linux-gnu/bin/../lib/gcc/nios2-elf/8.3.1/mno-hw-mul/libgcc.a(divdf3.o)
 .data          0x000000000102efd4        0x0 /home/efesxzc/intelFPGA_lite/19.1/nios2eds/bin/gnu/H-x86_64-pc-linux-gnu/bin/../lib/gcc/nios2-elf/8.3.1/mno-hw-mul/libgcc.a(eqdf2.o)
 .data          0x000000000102efd4        0x0 /home/efesxzc/intelFPGA_lite/19.1/nios2eds/bin/gnu/H-x86_64-pc-linux-gnu/bin/../lib/gcc/nios2-elf/8.3.1/mno-hw-mul/libgcc.a(gedf2.o)
 .data          0x000000000102efd4        0x0 /home/efesxzc/intelFPGA_lite/19.1/nios2eds/bin/gnu/H-x86_64-pc-linux-gnu/bin/../lib/gcc/nios2-elf/8.3.1/mno-hw-mul/libgcc.a(ledf2.o)
 .data          0x000000000102efd4        0x0 /home/efesxzc/intelFPGA_lite/19.1/nios2eds/bin/gnu/H-x86_64-pc-linux-gnu/bin/../lib/gcc/nios2-elf/8.3.1/mno-hw-mul/libgcc.a(muldf3.o)
 .data          0x000000000102efd4        0x0 /home/efesxzc/intelFPGA_lite/19.1/nios2eds/bin/gnu/H-x86_64-pc-linux-gnu/bin/../lib/gcc/nios2-elf/8.3.1/mno-hw-mul/libgcc.a(subdf3.o)
 .data          0x000000000102efd4        0x0 /home/efesxzc/intelFPGA_lite/19.1/nios2eds/bin/gnu/H-x86_64-pc-linux-gnu/bin/../lib/gcc/nios2-elf/8.3.1/mno-hw-mul/libgcc.a(unorddf2.o)
 .data          0x000000000102efd4        0x0 /home/efesxzc/intelFPGA_lite/19.1/nios2eds/bin/gnu/H-x86_64-pc-linux-gnu/bin/../lib/gcc/nios2-elf/8.3.1/mno-hw-mul/libgcc.a(fixdfsi.o)
 .data          0x000000000102efd4        0x0 /home/efesxzc/intelFPGA_lite/19.1/nios2eds/bin/gnu/H-x86_64-pc-linux-gnu/bin/../lib/gcc/nios2-elf/8.3.1/mno-hw-mul/libgcc.a(floatsidf.o)
 .data          0x000000000102efd4        0x0 /home/efesxzc/intelFPGA_lite/19.1/nios2eds/bin/gnu/H-x86_64-pc-linux-gnu/bin/../lib/gcc/nios2-elf/8.3.1/mno-hw-mul/libgcc.a(floatunsidf.o)
 .data          0x000000000102efd4        0x0 /home/efesxzc/intelFPGA_lite/19.1/nios2eds/bin/gnu/H-x86_64-pc-linux-gnu/bin/../lib/gcc/nios2-elf/8.3.1/mno-hw-mul/libgcc.a(_clz.o)
 .data          0x000000000102efd4        0x0 /home/efesxzc/intelFPGA_lite/19.1/nios2eds/bin/gnu/H-x86_64-pc-linux-gnu/bin/../lib/gcc/nios2-elf/8.3.1/mno-hw-mul/libgcc.a(_clzsi2.o)
 .data          0x000000000102efd4        0x0 ../civ_002_bsp//libhal_bsp.a(alt_close.o)
 .data          0x000000000102efd4      0x1a8 ../civ_002_bsp//libhal_bsp.a(alt_dev.o)
                0x000000000102efd4                alt_dev_null
                0x000000000102effc                alt_fd_list
 .data          0x000000000102f17c        0x0 ../civ_002_bsp//libhal_bsp.a(alt_errno.o)
 .data          0x000000000102f17c        0x0 ../civ_002_bsp//libhal_bsp.a(alt_fstat.o)
 .data          0x000000000102f17c        0x0 ../civ_002_bsp//libhal_bsp.a(alt_irq_handler.o)
 .data          0x000000000102f17c        0x0 ../civ_002_bsp//libhal_bsp.a(alt_irq_vars.o)
 .data          0x000000000102f17c        0x0 ../civ_002_bsp//libhal_bsp.a(alt_isatty.o)
 .data          0x000000000102f17c        0x0 ../civ_002_bsp//libhal_bsp.a(alt_load.o)
 .data          0x000000000102f17c        0x0 ../civ_002_bsp//libhal_bsp.a(alt_lseek.o)
 .data          0x000000000102f17c        0x0 ../civ_002_bsp//libhal_bsp.a(alt_main.o)
 .data          0x000000000102f17c        0x0 ../civ_002_bsp//libhal_bsp.a(alt_malloc_lock.o)
 .data          0x000000000102f17c        0x0 ../civ_002_bsp//libhal_bsp.a(alt_read.o)
 .data          0x000000000102f17c        0x0 ../civ_002_bsp//libhal_bsp.a(alt_release_fd.o)
 .data          0x000000000102f17c        0x0 ../civ_002_bsp//libhal_bsp.a(alt_sbrk.o)
 .data          0x000000000102f17c        0x0 ../civ_002_bsp//libhal_bsp.a(alt_write.o)
 .data          0x000000000102f17c       0x70 ../civ_002_bsp//libhal_bsp.a(alt_sys_init.o)
 .data          0x000000000102f1ec        0x0 ../civ_002_bsp//libhal_bsp.a(altera_avalon_i2c.o)
 .data          0x000000000102f1ec        0x0 ../civ_002_bsp//libhal_bsp.a(altera_avalon_spi.o)
 .data          0x000000000102f1ec        0x0 ../civ_002_bsp//libhal_bsp.a(altera_avalon_timer_sc.o)
 .data          0x000000000102f1ec        0x0 ../civ_002_bsp//libhal_bsp.a(alt_busy_sleep.o)
 .data          0x000000000102f1ec        0x0 ../civ_002_bsp//libhal_bsp.a(alt_dcache_flush_all.o)
 .data          0x000000000102f1ec        0x0 ../civ_002_bsp//libhal_bsp.a(alt_dev_llist_insert.o)
 .data          0x000000000102f1ec        0x0 ../civ_002_bsp//libhal_bsp.a(alt_do_ctors.o)
 .data          0x000000000102f1ec        0x0 ../civ_002_bsp//libhal_bsp.a(alt_do_dtors.o)
 .data          0x000000000102f1ec        0x0 ../civ_002_bsp//libhal_bsp.a(alt_find_dev.o)
 .data          0x000000000102f1ec        0x0 ../civ_002_bsp//libhal_bsp.a(alt_icache_flush_all.o)
 .data          0x000000000102f1ec        0x0 ../civ_002_bsp//libhal_bsp.a(alt_printf.o)
 .data          0x000000000102f1ec        0x0 ../civ_002_bsp//libhal_bsp.a(alt_putchar.o)
 .data          0x000000000102f1ec        0x0 ../civ_002_bsp//libhal_bsp.a(alt_tick.o)
 .data          0x000000000102f1ec        0x0 ../civ_002_bsp//libhal_bsp.a(altera_nios2_gen2_irq.o)
 .data          0x000000000102f1ec        0x0 /home/efesxzc/intelFPGA_lite/19.1/nios2eds/bin/gnu/H-x86_64-pc-linux-gnu/bin/../lib/gcc/nios2-elf/8.3.1/../../../../../H-x86_64-pc-linux-gnu/nios2-elf/lib/mno-hw-mul/libc.a(lib_a-atexit.o)
 .data          0x000000000102f1ec        0x0 /home/efesxzc/intelFPGA_lite/19.1/nios2eds/bin/gnu/H-x86_64-pc-linux-gnu/bin/../lib/gcc/nios2-elf/8.3.1/../../../../../H-x86_64-pc-linux-gnu/nios2-elf/lib/mno-hw-mul/libc.a(lib_a-exit.o)
 .data          0x000000000102f1ec        0x0 /home/efesxzc/intelFPGA_lite/19.1/nios2eds/bin/gnu/H-x86_64-pc-linux-gnu/bin/../lib/gcc/nios2-elf/8.3.1/../../../../../H-x86_64-pc-linux-gnu/nios2-elf/lib/mno-hw-mul/libc.a(lib_a-putchar.o)
 .data          0x000000000102f1ec        0x0 /home/efesxzc/intelFPGA_lite/19.1/nios2eds/bin/gnu/H-x86_64-pc-linux-gnu/bin/../lib/gcc/nios2-elf/8.3.1/../../../../../H-x86_64-pc-linux-gnu/nios2-elf/lib/mno-hw-mul/libc.a(lib_a-__atexit.o)
 .data          0x000000000102f1ec        0x0 /home/efesxzc/intelFPGA_lite/19.1/nios2eds/bin/gnu/H-x86_64-pc-linux-gnu/bin/../lib/gcc/nios2-elf/8.3.1/../../../../../H-x86_64-pc-linux-gnu/nios2-elf/lib/mno-hw-mul/libc.a(lib_a-__call_atexit.o)
 .data          0x000000000102f1ec        0x0 /home/efesxzc/intelFPGA_lite/19.1/nios2eds/bin/gnu/H-x86_64-pc-linux-gnu/bin/../lib/gcc/nios2-elf/8.3.1/../../../../../H-x86_64-pc-linux-gnu/nios2-elf/lib/mno-hw-mul/libc.a(lib_a-putc.o)
 .data          0x000000000102f1ec        0x0 ../civ_002_bsp//libhal_bsp.a(alt_exit.o)
                0x00000000010371ec                _gp = ABSOLUTE ((. + 0x8000))
                [!provide]                        PROVIDE (gp = _gp)
 *(.rwdata .rwdata.*)
 *(.sdata .sdata.* .gnu.linkonce.s.*)
 .sdata         0x000000000102f1ec       0x18 obj/default/./http_server.o
 .sdata         0x000000000102f204        0x2 obj/default/./lm75.o
                0x000000000102f204                poll_period
 .sdata         0x000000000102f206       0x12 obj/default/./main.o
                0x000000000102f206                my_ip
                0x000000000102f20a                mymask
                0x000000000102f20e                mygate
                0x000000000102f212                mymac
 .sdata         0x000000000102f218        0xc obj/default/./telnet_server.o
 .sdata         0x000000000102f224        0x4 obj/default/FreeRTOS/FreeRTOS-Kernel/tasks.o
                0x000000000102f224                uxTopUsedPriority
 .sdata         0x000000000102f228        0xc obj/default/FreeRTOS/FreeRTOS-Plus-CLI/FreeRTOS_CLI.o
 .sdata         0x000000000102f234       0x18 obj/default/FreeRTOS/FreeRTOS-Plus-TCP/FreeRTOS_IP.o
                0x000000000102f234                xBroadcastMACAddress
 .sdata         0x000000000102f24c        0x4 obj/default/FreeRTOS/FreeRTOS-Kernel/portable/MemMang/heap_4.o
 .sdata         0x000000000102f250        0x4 obj/default/FreeRTOS/FreeRTOS-Plus-TCP/portable/BufferManagement/BufferAllocation_1.o
                0x000000000102f250                xBufferAllocFixedSize
 .sdata._global_impure_ptr
                0x000000000102f254        0x4 /home/efesxzc/intelFPGA_lite/19.1/nios2eds/bin/gnu/H-x86_64-pc-linux-gnu/bin/../lib/gcc/nios2-elf/8.3.1/../../../../../H-x86_64-pc-linux-gnu/nios2-elf/lib/mno-hw-mul/libc.a(lib_a-impure.o)
                0x000000000102f254                _global_impure_ptr
 .sdata._impure_ptr
                0x000000000102f258        0x4 /home/efesxzc/intelFPGA_lite/19.1/nios2eds/bin/gnu/H-x86_64-pc-linux-gnu/bin/../lib/gcc/nios2-elf/8.3.1/../../../../../H-x86_64-pc-linux-gnu/nios2-elf/lib/mno-hw-mul/libc.a(lib_a-impure.o)
                0x000000000102f258                _impure_ptr
 .sdata.__malloc_sbrk_base
                0x000000000102f25c        0x4 /home/efesxzc/intelFPGA_lite/19.1/nios2eds/bin/gnu/H-x86_64-pc-linux-gnu/bin/../lib/gcc/nios2-elf/8.3.1/../../../../../H-x86_64-pc-linux-gnu/nios2-elf/lib/mno-hw-mul/libc.a(lib_a-mallocr.o)
                0x000000000102f25c                __malloc_sbrk_base
 .sdata.__malloc_trim_threshold
                0x000000000102f260        0x4 /home/efesxzc/intelFPGA_lite/19.1/nios2eds/bin/gnu/H-x86_64-pc-linux-gnu/bin/../lib/gcc/nios2-elf/8.3.1/../../../../../H-x86_64-pc-linux-gnu/nios2-elf/lib/mno-hw-mul/libc.a(lib_a-mallocr.o)
                0x000000000102f260                __malloc_trim_threshold
 .sdata         0x000000000102f264       0x14 ../civ_002_bsp//libhal_bsp.a(alt_dev.o)
                0x000000000102f264                alt_fs_list
                0x000000000102f26c                alt_dev_list
                0x000000000102f274                alt_max_fd
 .sdata         0x000000000102f278        0x4 ../civ_002_bsp//libhal_bsp.a(alt_errno.o)
                0x000000000102f278                alt_errno
 .sdata         0x000000000102f27c        0x4 ../civ_002_bsp//libhal_bsp.a(alt_irq_vars.o)
                0x000000000102f27c                alt_priority_mask
 .sdata         0x000000000102f280        0x4 ../civ_002_bsp//libhal_bsp.a(alt_sbrk.o)
 .sdata         0x000000000102f284        0x8 ../civ_002_bsp//libhal_bsp.a(altera_avalon_i2c.o)
                0x000000000102f284                alt_avalon_i2c_list
 .sdata         0x000000000102f28c        0x8 ../civ_002_bsp//libhal_bsp.a(alt_tick.o)
                0x000000000102f28c                alt_alarm_list
 *(.sdata2 .sdata2.* .gnu.linkonce.s2.*)
                0x000000000102f294                . = ALIGN (0x4)
                0x000000000102f294                _edata = ABSOLUTE (.)
                [!provide]                        PROVIDE (edata = ABSOLUTE (.))
                0x000000000102f294                PROVIDE (__ram_rwdata_end = ABSOLUTE (.))
                0x000000000102f294                PROVIDE (__flash_rwdata_start = LOADADDR (.rwdata))

.bss            0x000000000102ff04    0x350c8
                0x000000000102ff04                __bss_start = ABSOLUTE (.)
                [!provide]                        PROVIDE (__sbss_start = ABSOLUTE (.))
                [!provide]                        PROVIDE (___sbss_start = ABSOLUTE (.))
 *(.dynsbss)
 *(.sbss .sbss.* .gnu.linkonce.sb.*)
 .sbss          0x000000000102ff04        0x4 obj/default/./at24c08.o
                0x000000000102ff04                eeprom_dev
 .sbss          0x000000000102ff08        0x8 obj/default/./http_server.o
                0x000000000102ff0c                fwInstTaskHandle
 .sbss          0x000000000102ff10       0x18 obj/default/./lm75.o
                0x000000000102ff10                txbuffer
                0x000000000102ff18                xTaskTempHandle
                0x000000000102ff1c                temperature
                0x000000000102ff20                i2c_temp
                0x000000000102ff24                status
 .sbss          0x000000000102ff28        0x4 obj/default/./main.o
                0x000000000102ff28                len
 .sbss          0x000000000102ff2c        0x4 obj/default/./telnet_server.o
                0x000000000102ff2c                close_flag
 .sbss          0x000000000102ff30       0x3c obj/default/FreeRTOS/FreeRTOS-Kernel/tasks.o
                0x000000000102ff30                pxCurrentTCB
 .sbss          0x000000000102ff6c        0xc obj/default/FreeRTOS/FreeRTOS-Plus-CLI/FreeRTOS_CLI.o
 .sbss          0x000000000102ff78        0x4 obj/default/FreeRTOS/FreeRTOS-Plus-TCP/FreeRTOS_ARP.o
 .sbss          0x000000000102ff7c       0x20 obj/default/FreeRTOS/FreeRTOS-Plus-TCP/FreeRTOS_IP.o
                0x000000000102ff7c                xNetworkEventQueue
                0x000000000102ff80                usPacketIdentifier
 .sbss          0x000000000102ff9c        0x4 obj/default/FreeRTOS/FreeRTOS-Plus-TCP/FreeRTOS_Sockets.o
 .sbss          0x000000000102ffa0        0x4 obj/default/FreeRTOS/FreeRTOS-Plus-TCP/FreeRTOS_TCP_WIN.o
                0x000000000102ffa0                xTCPWindowLoggingLevel
 .sbss          0x000000000102ffa4       0x14 obj/default/FreeRTOS/FreeRTOS-Plus-TCP/portable/NetworkInterface/ENC28J60/NetworkInterface.o
                0x000000000102ffa4                flag
                0x000000000102ffa8                piodata
                0x000000000102ffac                xRXTaskHandle
                0x000000000102ffb0                xBytesReceived
                0x000000000102ffb4                nirq_isr_context
 .sbss          0x000000000102ffb8        0x4 obj/default/FreeRTOS/FreeRTOS-Plus-TCP/portable/NetworkInterface/ENC28J60/enc.o
                0x000000000102ffb8                current_bank
 .sbss          0x000000000102ffbc       0x20 obj/default/FreeRTOS/FreeRTOS-Kernel/portable/MemMang/heap_4.o
 .sbss          0x000000000102ffdc        0x8 obj/default/FreeRTOS/FreeRTOS-Plus-TCP/portable/BufferManagement/BufferAllocation_1.o
 .sbss.__malloc_max_total_mem
                0x000000000102ffe4        0x4 /home/efesxzc/intelFPGA_lite/19.1/nios2eds/bin/gnu/H-x86_64-pc-linux-gnu/bin/../lib/gcc/nios2-elf/8.3.1/../../../../../H-x86_64-pc-linux-gnu/nios2-elf/lib/mno-hw-mul/libc.a(lib_a-mallocr.o)
                0x000000000102ffe4                __malloc_max_total_mem
 .sbss.__malloc_max_sbrked_mem
                0x000000000102ffe8        0x4 /home/efesxzc/intelFPGA_lite/19.1/nios2eds/bin/gnu/H-x86_64-pc-linux-gnu/bin/../lib/gcc/nios2-elf/8.3.1/../../../../../H-x86_64-pc-linux-gnu/nios2-elf/lib/mno-hw-mul/libc.a(lib_a-mallocr.o)
                0x000000000102ffe8                __malloc_max_sbrked_mem
 .sbss.__malloc_top_pad
                0x000000000102ffec        0x4 /home/efesxzc/intelFPGA_lite/19.1/nios2eds/bin/gnu/H-x86_64-pc-linux-gnu/bin/../lib/gcc/nios2-elf/8.3.1/../../../../../H-x86_64-pc-linux-gnu/nios2-elf/lib/mno-hw-mul/libc.a(lib_a-mallocr.o)
                0x000000000102ffec                __malloc_top_pad
 .sbss          0x000000000102fff0        0x4 /home/efesxzc/intelFPGA_lite/19.1/nios2eds/bin/gnu/H-x86_64-pc-linux-gnu/bin/../lib/gcc/nios2-elf/8.3.1/../../../../../H-x86_64-pc-linux-gnu/nios2-elf/lib/mno-hw-mul/libc.a(lib_a-int_errno.o)
                0x000000000102fff0                errno
 .sbss._PathLocale
                0x000000000102fff4        0x4 /home/efesxzc/intelFPGA_lite/19.1/nios2eds/bin/gnu/H-x86_64-pc-linux-gnu/bin/../lib/gcc/nios2-elf/8.3.1/../../../../../H-x86_64-pc-linux-gnu/nios2-elf/lib/mno-hw-mul/libc.a(lib_a-locale.o)
                0x000000000102fff4                _PathLocale
 .sbss          0x000000000102fff8        0x4 ../civ_002_bsp//libhal_bsp.a(alt_irq_vars.o)
                0x000000000102fff8                alt_irq_active
 .sbss          0x000000000102fffc        0xc ../civ_002_bsp//libhal_bsp.a(alt_main.o)
                0x000000000102fffc                alt_argc
                0x0000000001030000                alt_argv
                0x0000000001030004                alt_envp
 .sbss          0x0000000001030008        0x8 ../civ_002_bsp//libhal_bsp.a(alt_tick.o)
                0x0000000001030008                _alt_tick_rate
                0x000000000103000c                _alt_nticks
 *(.sbss2 .sbss2.* .gnu.linkonce.sb2.*)
 *(.scommon)
                [!provide]                        PROVIDE (__sbss_end = ABSOLUTE (.))
                [!provide]                        PROVIDE (___sbss_end = ABSOLUTE (.))
 *(.dynbss)
 *(.bss .bss.* .gnu.linkonce.b.*)
 .bss           0x0000000001030010        0x0 ../civ_002_bsp//obj/HAL/src/crt0.o
 .bss           0x0000000001030010       0x1c obj/default/./CLI-Commands.o
 .bss           0x000000000103002c        0x0 obj/default/./at24c08.o
 .bss           0x000000000103002c      0xb68 obj/default/./http_server.o
 .bss           0x0000000001030b94       0x20 obj/default/./lm75.o
                0x0000000001030b94                rxbuffer
 .bss           0x0000000001030bb4     0x1058 obj/default/./main.o
 .bss           0x0000000001031c0c        0x0 obj/default/./telnet_server.o
 .bss           0x0000000001031c0c        0x0 obj/default/FreeRTOS/FreeRTOS-Kernel/croutine.o
 .bss           0x0000000001031c0c        0x0 obj/default/FreeRTOS/FreeRTOS-Kernel/event_groups.o
 .bss           0x0000000001031c0c        0x0 obj/default/FreeRTOS/FreeRTOS-Kernel/list.o
 .bss           0x0000000001031c0c        0x0 obj/default/FreeRTOS/FreeRTOS-Kernel/portable/GCC/NiosII/port.o
 .bss           0x0000000001031c0c        0x0 obj/default/FreeRTOS/FreeRTOS-Kernel/portable/portTimer.o
 .bss           0x0000000001031c0c        0x0 obj/default/FreeRTOS/FreeRTOS-Kernel/queue.o
 .bss           0x0000000001031c0c        0x0 obj/default/FreeRTOS/FreeRTOS-Kernel/stream_buffer.o
 .bss           0x0000000001031c0c      0x118 obj/default/FreeRTOS/FreeRTOS-Kernel/tasks.o
 .bss           0x0000000001031d24        0x0 obj/default/FreeRTOS/FreeRTOS-Kernel/timers.o
 .bss           0x0000000001031d24        0x0 obj/default/FreeRTOS/FreeRTOS-Plus-CLI/FreeRTOS_CLI.o
 .bss           0x0000000001031d24       0x48 obj/default/FreeRTOS/FreeRTOS-Plus-TCP/FreeRTOS_ARP.o
 .bss           0x0000000001031d6c        0x0 obj/default/FreeRTOS/FreeRTOS-Plus-TCP/FreeRTOS_DHCP.o
 .bss           0x0000000001031d6c        0x0 obj/default/FreeRTOS/FreeRTOS-Plus-TCP/FreeRTOS_DNS.o
 .bss           0x0000000001031d6c       0x50 obj/default/FreeRTOS/FreeRTOS-Plus-TCP/FreeRTOS_IP.o
                0x0000000001031d6c                xNetworkAddressing
                0x0000000001031d80                xDefaultAddressing
 .bss           0x0000000001031dbc        0x0 obj/default/FreeRTOS/FreeRTOS-Plus-TCP/FreeRTOS_Sockets.o
 .bss           0x0000000001031dbc        0x0 obj/default/FreeRTOS/FreeRTOS-Plus-TCP/FreeRTOS_Stream_Buffer.o
 .bss           0x0000000001031dbc        0xa obj/default/FreeRTOS/FreeRTOS-Plus-TCP/FreeRTOS_TCP_IP.o
 .bss           0x0000000001031dc6        0x0 obj/default/FreeRTOS/FreeRTOS-Plus-TCP/FreeRTOS_TCP_WIN.o
 .bss           0x0000000001031dc6        0x0 obj/default/FreeRTOS/FreeRTOS-Plus-TCP/FreeRTOS_UDP_IP.o
 *fill*         0x0000000001031dc6        0x2 
 .bss           0x0000000001031dc8    0x17f70 obj/default/FreeRTOS/FreeRTOS-Plus-TCP/portable/NetworkInterface/ENC28J60/NetworkInterface.o
 .bss           0x0000000001049d38        0x0 obj/default/FreeRTOS/FreeRTOS-Plus-TCP/portable/NetworkInterface/ENC28J60/enc.o
 .bss           0x0000000001049d38    0x19000 obj/default/FreeRTOS/FreeRTOS-Kernel/portable/MemMang/heap_4.o
 .bss           0x0000000001062d38      0x884 obj/default/FreeRTOS/FreeRTOS-Plus-TCP/portable/BufferManagement/BufferAllocation_1.o
 .bss           0x00000000010635bc        0x0 obj/default/FreeRTOS/FreeRTOS-Kernel/portable/GCC/NiosII/port_asm.o
 .bss           0x00000000010635bc        0x0 /home/efesxzc/intelFPGA_lite/19.1/nios2eds/bin/gnu/H-x86_64-pc-linux-gnu/bin/../lib/gcc/nios2-elf/8.3.1/mno-hw-mul/libgcc.a(lib2-divmod.o)
 .bss           0x00000000010635bc        0x0 /home/efesxzc/intelFPGA_lite/19.1/nios2eds/bin/gnu/H-x86_64-pc-linux-gnu/bin/../lib/gcc/nios2-elf/8.3.1/mno-hw-mul/libgcc.a(lib2-mul.o)
 .bss           0x00000000010635bc        0x0 /home/efesxzc/intelFPGA_lite/19.1/nios2eds/bin/gnu/H-x86_64-pc-linux-gnu/bin/../lib/gcc/nios2-elf/8.3.1/../../../../../H-x86_64-pc-linux-gnu/nios2-elf/lib/mno-hw-mul/libc.a(lib_a-memcmp.o)
 .bss           0x00000000010635bc        0x0 /home/efesxzc/intelFPGA_lite/19.1/nios2eds/bin/gnu/H-x86_64-pc-linux-gnu/bin/../lib/gcc/nios2-elf/8.3.1/../../../../../H-x86_64-pc-linux-gnu/nios2-elf/lib/mno-hw-mul/libc.a(lib_a-memcpy.o)
 .bss           0x00000000010635bc        0x0 /home/efesxzc/intelFPGA_lite/19.1/nios2eds/bin/gnu/H-x86_64-pc-linux-gnu/bin/../lib/gcc/nios2-elf/8.3.1/../../../../../H-x86_64-pc-linux-gnu/nios2-elf/lib/mno-hw-mul/libc.a(lib_a-memmove.o)
 .bss           0x00000000010635bc        0x0 /home/efesxzc/intelFPGA_lite/19.1/nios2eds/bin/gnu/H-x86_64-pc-linux-gnu/bin/../lib/gcc/nios2-elf/8.3.1/../../../../../H-x86_64-pc-linux-gnu/nios2-elf/lib/mno-hw-mul/libc.a(lib_a-memset.o)
 .bss           0x00000000010635bc        0x0 /home/efesxzc/intelFPGA_lite/19.1/nios2eds/bin/gnu/H-x86_64-pc-linux-gnu/bin/../lib/gcc/nios2-elf/8.3.1/../../../../../H-x86_64-pc-linux-gnu/nios2-elf/lib/mno-hw-mul/libc.a(lib_a-printf.o)
 .bss           0x00000000010635bc        0x0 /home/efesxzc/intelFPGA_lite/19.1/nios2eds/bin/gnu/H-x86_64-pc-linux-gnu/bin/../lib/gcc/nios2-elf/8.3.1/../../../../../H-x86_64-pc-linux-gnu/nios2-elf/lib/mno-hw-mul/libc.a(lib_a-puts.o)
 .bss           0x00000000010635bc        0x0 /home/efesxzc/intelFPGA_lite/19.1/nios2eds/bin/gnu/H-x86_64-pc-linux-gnu/bin/../lib/gcc/nios2-elf/8.3.1/../../../../../H-x86_64-pc-linux-gnu/nios2-elf/lib/mno-hw-mul/libc.a(lib_a-rand.o)
 .bss           0x00000000010635bc        0x0 /home/efesxzc/intelFPGA_lite/19.1/nios2eds/bin/gnu/H-x86_64-pc-linux-gnu/bin/../lib/gcc/nios2-elf/8.3.1/../../../../../H-x86_64-pc-linux-gnu/nios2-elf/lib/mno-hw-mul/libc.a(lib_a-snprintf.o)
 .bss           0x00000000010635bc        0x0 /home/efesxzc/intelFPGA_lite/19.1/nios2eds/bin/gnu/H-x86_64-pc-linux-gnu/bin/../lib/gcc/nios2-elf/8.3.1/../../../../../H-x86_64-pc-linux-gnu/nios2-elf/lib/mno-hw-mul/libc.a(lib_a-sprintf.o)
 .bss           0x00000000010635bc        0x0 /home/efesxzc/intelFPGA_lite/19.1/nios2eds/bin/gnu/H-x86_64-pc-linux-gnu/bin/../lib/gcc/nios2-elf/8.3.1/../../../../../H-x86_64-pc-linux-gnu/nios2-elf/lib/mno-hw-mul/libc.a(lib_a-strcpy.o)
 .bss           0x00000000010635bc        0x0 /home/efesxzc/intelFPGA_lite/19.1/nios2eds/bin/gnu/H-x86_64-pc-linux-gnu/bin/../lib/gcc/nios2-elf/8.3.1/../../../../../H-x86_64-pc-linux-gnu/nios2-elf/lib/mno-hw-mul/libc.a(lib_a-strlen.o)
 .bss           0x00000000010635bc        0x0 /home/efesxzc/intelFPGA_lite/19.1/nios2eds/bin/gnu/H-x86_64-pc-linux-gnu/bin/../lib/gcc/nios2-elf/8.3.1/../../../../../H-x86_64-pc-linux-gnu/nios2-elf/lib/mno-hw-mul/libc.a(lib_a-strncmp.o)
 .bss           0x00000000010635bc        0x0 /home/efesxzc/intelFPGA_lite/19.1/nios2eds/bin/gnu/H-x86_64-pc-linux-gnu/bin/../lib/gcc/nios2-elf/8.3.1/../../../../../H-x86_64-pc-linux-gnu/nios2-elf/lib/mno-hw-mul/libc.a(lib_a-strncpy.o)
 .bss           0x00000000010635bc        0x0 /home/efesxzc/intelFPGA_lite/19.1/nios2eds/bin/gnu/H-x86_64-pc-linux-gnu/bin/../lib/gcc/nios2-elf/8.3.1/../../../../../H-x86_64-pc-linux-gnu/nios2-elf/lib/mno-hw-mul/libc.a(lib_a-strstr.o)
 .bss           0x00000000010635bc        0x0 /home/efesxzc/intelFPGA_lite/19.1/nios2eds/bin/gnu/H-x86_64-pc-linux-gnu/bin/../lib/gcc/nios2-elf/8.3.1/../../../../../H-x86_64-pc-linux-gnu/nios2-elf/lib/mno-hw-mul/libc.a(lib_a-strtol.o)
 .bss           0x00000000010635bc        0x0 /home/efesxzc/intelFPGA_lite/19.1/nios2eds/bin/gnu/H-x86_64-pc-linux-gnu/bin/../lib/gcc/nios2-elf/8.3.1/../../../../../H-x86_64-pc-linux-gnu/nios2-elf/lib/mno-hw-mul/libc.a(lib_a-svfprintf.o)
 .bss           0x00000000010635bc        0x0 /home/efesxzc/intelFPGA_lite/19.1/nios2eds/bin/gnu/H-x86_64-pc-linux-gnu/bin/../lib/gcc/nios2-elf/8.3.1/../../../../../H-x86_64-pc-linux-gnu/nios2-elf/lib/mno-hw-mul/libc.a(lib_a-vfprintf.o)
 .bss           0x00000000010635bc        0x0 /home/efesxzc/intelFPGA_lite/19.1/nios2eds/bin/gnu/H-x86_64-pc-linux-gnu/bin/../lib/gcc/nios2-elf/8.3.1/../../../../../H-x86_64-pc-linux-gnu/nios2-elf/lib/mno-hw-mul/libc.a(lib_a-wsetup.o)
 .bss           0x00000000010635bc        0x0 /home/efesxzc/intelFPGA_lite/19.1/nios2eds/bin/gnu/H-x86_64-pc-linux-gnu/bin/../lib/gcc/nios2-elf/8.3.1/../../../../../H-x86_64-pc-linux-gnu/nios2-elf/lib/mno-hw-mul/libc.a(lib_a-ctype_.o)
 .bss           0x00000000010635bc        0x0 /home/efesxzc/intelFPGA_lite/19.1/nios2eds/bin/gnu/H-x86_64-pc-linux-gnu/bin/../lib/gcc/nios2-elf/8.3.1/../../../../../H-x86_64-pc-linux-gnu/nios2-elf/lib/mno-hw-mul/libc.a(lib_a-dtoa.o)
 .bss           0x00000000010635bc        0x0 /home/efesxzc/intelFPGA_lite/19.1/nios2eds/bin/gnu/H-x86_64-pc-linux-gnu/bin/../lib/gcc/nios2-elf/8.3.1/../../../../../H-x86_64-pc-linux-gnu/nios2-elf/lib/mno-hw-mul/libc.a(lib_a-fflush.o)
 .bss           0x00000000010635bc        0x0 /home/efesxzc/intelFPGA_lite/19.1/nios2eds/bin/gnu/H-x86_64-pc-linux-gnu/bin/../lib/gcc/nios2-elf/8.3.1/../../../../../H-x86_64-pc-linux-gnu/nios2-elf/lib/mno-hw-mul/libc.a(lib_a-findfp.o)
 .bss           0x00000000010635bc        0x0 /home/efesxzc/intelFPGA_lite/19.1/nios2eds/bin/gnu/H-x86_64-pc-linux-gnu/bin/../lib/gcc/nios2-elf/8.3.1/../../../../../H-x86_64-pc-linux-gnu/nios2-elf/lib/mno-hw-mul/libc.a(lib_a-freer.o)
 .bss           0x00000000010635bc        0x0 /home/efesxzc/intelFPGA_lite/19.1/nios2eds/bin/gnu/H-x86_64-pc-linux-gnu/bin/../lib/gcc/nios2-elf/8.3.1/../../../../../H-x86_64-pc-linux-gnu/nios2-elf/lib/mno-hw-mul/libc.a(lib_a-fvwrite.o)
 .bss           0x00000000010635bc        0x0 /home/efesxzc/intelFPGA_lite/19.1/nios2eds/bin/gnu/H-x86_64-pc-linux-gnu/bin/../lib/gcc/nios2-elf/8.3.1/../../../../../H-x86_64-pc-linux-gnu/nios2-elf/lib/mno-hw-mul/libc.a(lib_a-fwalk.o)
 .bss           0x00000000010635bc        0x0 /home/efesxzc/intelFPGA_lite/19.1/nios2eds/bin/gnu/H-x86_64-pc-linux-gnu/bin/../lib/gcc/nios2-elf/8.3.1/../../../../../H-x86_64-pc-linux-gnu/nios2-elf/lib/mno-hw-mul/libc.a(lib_a-impure.o)
 .bss           0x00000000010635bc        0x0 /home/efesxzc/intelFPGA_lite/19.1/nios2eds/bin/gnu/H-x86_64-pc-linux-gnu/bin/../lib/gcc/nios2-elf/8.3.1/../../../../../H-x86_64-pc-linux-gnu/nios2-elf/lib/mno-hw-mul/libc.a(lib_a-localeconv.o)
 .bss           0x00000000010635bc        0x0 /home/efesxzc/intelFPGA_lite/19.1/nios2eds/bin/gnu/H-x86_64-pc-linux-gnu/bin/../lib/gcc/nios2-elf/8.3.1/../../../../../H-x86_64-pc-linux-gnu/nios2-elf/lib/mno-hw-mul/libc.a(lib_a-makebuf.o)
 .bss           0x00000000010635bc        0x0 /home/efesxzc/intelFPGA_lite/19.1/nios2eds/bin/gnu/H-x86_64-pc-linux-gnu/bin/../lib/gcc/nios2-elf/8.3.1/../../../../../H-x86_64-pc-linux-gnu/nios2-elf/lib/mno-hw-mul/libc.a(lib_a-mallocr.o)
 .bss.__malloc_current_mallinfo
                0x00000000010635bc       0x28 /home/efesxzc/intelFPGA_lite/19.1/nios2eds/bin/gnu/H-x86_64-pc-linux-gnu/bin/../lib/gcc/nios2-elf/8.3.1/../../../../../H-x86_64-pc-linux-gnu/nios2-elf/lib/mno-hw-mul/libc.a(lib_a-mallocr.o)
                0x00000000010635bc                __malloc_current_mallinfo
 .bss           0x00000000010635e4        0x0 /home/efesxzc/intelFPGA_lite/19.1/nios2eds/bin/gnu/H-x86_64-pc-linux-gnu/bin/../lib/gcc/nios2-elf/8.3.1/../../../../../H-x86_64-pc-linux-gnu/nios2-elf/lib/mno-hw-mul/libc.a(lib_a-memchr.o)
 .bss           0x00000000010635e4        0x0 /home/efesxzc/intelFPGA_lite/19.1/nios2eds/bin/gnu/H-x86_64-pc-linux-gnu/bin/../lib/gcc/nios2-elf/8.3.1/../../../../../H-x86_64-pc-linux-gnu/nios2-elf/lib/mno-hw-mul/libc.a(lib_a-mprec.o)
 .bss           0x00000000010635e4        0x0 /home/efesxzc/intelFPGA_lite/19.1/nios2eds/bin/gnu/H-x86_64-pc-linux-gnu/bin/../lib/gcc/nios2-elf/8.3.1/../../../../../H-x86_64-pc-linux-gnu/nios2-elf/lib/mno-hw-mul/libc.a(lib_a-reallocr.o)
 .bss           0x00000000010635e4        0x0 /home/efesxzc/intelFPGA_lite/19.1/nios2eds/bin/gnu/H-x86_64-pc-linux-gnu/bin/../lib/gcc/nios2-elf/8.3.1/../../../../../H-x86_64-pc-linux-gnu/nios2-elf/lib/mno-hw-mul/libc.a(lib_a-sbrkr.o)
 .bss           0x00000000010635e4        0x0 /home/efesxzc/intelFPGA_lite/19.1/nios2eds/bin/gnu/H-x86_64-pc-linux-gnu/bin/../lib/gcc/nios2-elf/8.3.1/../../../../../H-x86_64-pc-linux-gnu/nios2-elf/lib/mno-hw-mul/libc.a(lib_a-stdio.o)
 .bss           0x00000000010635e4        0x0 /home/efesxzc/intelFPGA_lite/19.1/nios2eds/bin/gnu/H-x86_64-pc-linux-gnu/bin/../lib/gcc/nios2-elf/8.3.1/../../../../../H-x86_64-pc-linux-gnu/nios2-elf/lib/mno-hw-mul/libc.a(lib_a-strchr.o)
 .bss           0x00000000010635e4        0x0 /home/efesxzc/intelFPGA_lite/19.1/nios2eds/bin/gnu/H-x86_64-pc-linux-gnu/bin/../lib/gcc/nios2-elf/8.3.1/../../../../../H-x86_64-pc-linux-gnu/nios2-elf/lib/mno-hw-mul/libc.a(lib_a-strnlen.o)
 .bss           0x00000000010635e4        0x0 /home/efesxzc/intelFPGA_lite/19.1/nios2eds/bin/gnu/H-x86_64-pc-linux-gnu/bin/../lib/gcc/nios2-elf/8.3.1/../../../../../H-x86_64-pc-linux-gnu/nios2-elf/lib/mno-hw-mul/libc.a(lib_a-svfiprintf.o)
 .bss           0x00000000010635e4        0x0 /home/efesxzc/intelFPGA_lite/19.1/nios2eds/bin/gnu/H-x86_64-pc-linux-gnu/bin/../lib/gcc/nios2-elf/8.3.1/../../../../../H-x86_64-pc-linux-gnu/nios2-elf/lib/mno-hw-mul/libc.a(lib_a-vfiprintf.o)
 .bss           0x00000000010635e4        0x0 /home/efesxzc/intelFPGA_lite/19.1/nios2eds/bin/gnu/H-x86_64-pc-linux-gnu/bin/../lib/gcc/nios2-elf/8.3.1/../../../../../H-x86_64-pc-linux-gnu/nios2-elf/lib/mno-hw-mul/libc.a(lib_a-writer.o)
 .bss           0x00000000010635e4        0x0 /home/efesxzc/intelFPGA_lite/19.1/nios2eds/bin/gnu/H-x86_64-pc-linux-gnu/bin/../lib/gcc/nios2-elf/8.3.1/../../../../../H-x86_64-pc-linux-gnu/nios2-elf/lib/mno-hw-mul/libc.a(closer.o)
 .bss           0x00000000010635e4        0x0 /home/efesxzc/intelFPGA_lite/19.1/nios2eds/bin/gnu/H-x86_64-pc-linux-gnu/bin/../lib/gcc/nios2-elf/8.3.1/../../../../../H-x86_64-pc-linux-gnu/nios2-elf/lib/mno-hw-mul/libc.a(lib_a-callocr.o)
 .bss           0x00000000010635e4        0x0 /home/efesxzc/intelFPGA_lite/19.1/nios2eds/bin/gnu/H-x86_64-pc-linux-gnu/bin/../lib/gcc/nios2-elf/8.3.1/../../../../../H-x86_64-pc-linux-gnu/nios2-elf/lib/mno-hw-mul/libc.a(lib_a-fclose.o)
 .bss           0x00000000010635e4        0x0 /home/efesxzc/intelFPGA_lite/19.1/nios2eds/bin/gnu/H-x86_64-pc-linux-gnu/bin/../lib/gcc/nios2-elf/8.3.1/../../../../../H-x86_64-pc-linux-gnu/nios2-elf/lib/mno-hw-mul/libc.a(lib_a-fputwc.o)
 .bss           0x00000000010635e4        0x0 /home/efesxzc/intelFPGA_lite/19.1/nios2eds/bin/gnu/H-x86_64-pc-linux-gnu/bin/../lib/gcc/nios2-elf/8.3.1/../../../../../H-x86_64-pc-linux-gnu/nios2-elf/lib/mno-hw-mul/libc.a(lib_a-fstatr.o)
 .bss           0x00000000010635e4        0x0 /home/efesxzc/intelFPGA_lite/19.1/nios2eds/bin/gnu/H-x86_64-pc-linux-gnu/bin/../lib/gcc/nios2-elf/8.3.1/../../../../../H-x86_64-pc-linux-gnu/nios2-elf/lib/mno-hw-mul/libc.a(lib_a-int_errno.o)
 .bss           0x00000000010635e4        0x0 /home/efesxzc/intelFPGA_lite/19.1/nios2eds/bin/gnu/H-x86_64-pc-linux-gnu/bin/../lib/gcc/nios2-elf/8.3.1/../../../../../H-x86_64-pc-linux-gnu/nios2-elf/lib/mno-hw-mul/libc.a(lib_a-isattyr.o)
 .bss           0x00000000010635e4        0x0 /home/efesxzc/intelFPGA_lite/19.1/nios2eds/bin/gnu/H-x86_64-pc-linux-gnu/bin/../lib/gcc/nios2-elf/8.3.1/../../../../../H-x86_64-pc-linux-gnu/nios2-elf/lib/mno-hw-mul/libc.a(lib_a-locale.o)
 .bss           0x00000000010635e4        0x0 /home/efesxzc/intelFPGA_lite/19.1/nios2eds/bin/gnu/H-x86_64-pc-linux-gnu/bin/../lib/gcc/nios2-elf/8.3.1/../../../../../H-x86_64-pc-linux-gnu/nios2-elf/lib/mno-hw-mul/libc.a(lib_a-lseekr.o)
 .bss           0x00000000010635e4        0x0 /home/efesxzc/intelFPGA_lite/19.1/nios2eds/bin/gnu/H-x86_64-pc-linux-gnu/bin/../lib/gcc/nios2-elf/8.3.1/../../../../../H-x86_64-pc-linux-gnu/nios2-elf/lib/mno-hw-mul/libc.a(lib_a-mbtowc_r.o)
 .bss           0x00000000010635e4        0x0 /home/efesxzc/intelFPGA_lite/19.1/nios2eds/bin/gnu/H-x86_64-pc-linux-gnu/bin/../lib/gcc/nios2-elf/8.3.1/../../../../../H-x86_64-pc-linux-gnu/nios2-elf/lib/mno-hw-mul/libc.a(lib_a-readr.o)
 .bss           0x00000000010635e4        0x0 /home/efesxzc/intelFPGA_lite/19.1/nios2eds/bin/gnu/H-x86_64-pc-linux-gnu/bin/../lib/gcc/nios2-elf/8.3.1/../../../../../H-x86_64-pc-linux-gnu/nios2-elf/lib/mno-hw-mul/libc.a(lib_a-strcmp.o)
 .bss           0x00000000010635e4        0x0 /home/efesxzc/intelFPGA_lite/19.1/nios2eds/bin/gnu/H-x86_64-pc-linux-gnu/bin/../lib/gcc/nios2-elf/8.3.1/../../../../../H-x86_64-pc-linux-gnu/nios2-elf/lib/mno-hw-mul/libc.a(lib_a-wbuf.o)
 .bss           0x00000000010635e4        0x0 /home/efesxzc/intelFPGA_lite/19.1/nios2eds/bin/gnu/H-x86_64-pc-linux-gnu/bin/../lib/gcc/nios2-elf/8.3.1/../../../../../H-x86_64-pc-linux-gnu/nios2-elf/lib/mno-hw-mul/libc.a(lib_a-wcrtomb.o)
 .bss           0x00000000010635e4        0x0 /home/efesxzc/intelFPGA_lite/19.1/nios2eds/bin/gnu/H-x86_64-pc-linux-gnu/bin/../lib/gcc/nios2-elf/8.3.1/../../../../../H-x86_64-pc-linux-gnu/nios2-elf/lib/mno-hw-mul/libc.a(lib_a-wctomb_r.o)
 .bss           0x00000000010635e4        0x0 /home/efesxzc/intelFPGA_lite/19.1/nios2eds/bin/gnu/H-x86_64-pc-linux-gnu/bin/../lib/gcc/nios2-elf/8.3.1/mno-hw-mul/libgcc.a(_muldi3.o)
 .bss           0x00000000010635e4        0x0 /home/efesxzc/intelFPGA_lite/19.1/nios2eds/bin/gnu/H-x86_64-pc-linux-gnu/bin/../lib/gcc/nios2-elf/8.3.1/mno-hw-mul/libgcc.a(_udivdi3.o)
 .bss           0x00000000010635e4        0x0 /home/efesxzc/intelFPGA_lite/19.1/nios2eds/bin/gnu/H-x86_64-pc-linux-gnu/bin/../lib/gcc/nios2-elf/8.3.1/mno-hw-mul/libgcc.a(_umoddi3.o)
 .bss           0x00000000010635e4        0x0 /home/efesxzc/intelFPGA_lite/19.1/nios2eds/bin/gnu/H-x86_64-pc-linux-gnu/bin/../lib/gcc/nios2-elf/8.3.1/mno-hw-mul/libgcc.a(adddf3.o)
 .bss           0x00000000010635e4        0x0 /home/efesxzc/intelFPGA_lite/19.1/nios2eds/bin/gnu/H-x86_64-pc-linux-gnu/bin/../lib/gcc/nios2-elf/8.3.1/mno-hw-mul/libgcc.a(divdf3.o)
 .bss           0x00000000010635e4        0x0 /home/efesxzc/intelFPGA_lite/19.1/nios2eds/bin/gnu/H-x86_64-pc-linux-gnu/bin/../lib/gcc/nios2-elf/8.3.1/mno-hw-mul/libgcc.a(eqdf2.o)
 .bss           0x00000000010635e4        0x0 /home/efesxzc/intelFPGA_lite/19.1/nios2eds/bin/gnu/H-x86_64-pc-linux-gnu/bin/../lib/gcc/nios2-elf/8.3.1/mno-hw-mul/libgcc.a(gedf2.o)
 .bss           0x00000000010635e4        0x0 /home/efesxzc/intelFPGA_lite/19.1/nios2eds/bin/gnu/H-x86_64-pc-linux-gnu/bin/../lib/gcc/nios2-elf/8.3.1/mno-hw-mul/libgcc.a(ledf2.o)
 .bss           0x00000000010635e4        0x0 /home/efesxzc/intelFPGA_lite/19.1/nios2eds/bin/gnu/H-x86_64-pc-linux-gnu/bin/../lib/gcc/nios2-elf/8.3.1/mno-hw-mul/libgcc.a(muldf3.o)
 .bss           0x00000000010635e4        0x0 /home/efesxzc/intelFPGA_lite/19.1/nios2eds/bin/gnu/H-x86_64-pc-linux-gnu/bin/../lib/gcc/nios2-elf/8.3.1/mno-hw-mul/libgcc.a(subdf3.o)
 .bss           0x00000000010635e4        0x0 /home/efesxzc/intelFPGA_lite/19.1/nios2eds/bin/gnu/H-x86_64-pc-linux-gnu/bin/../lib/gcc/nios2-elf/8.3.1/mno-hw-mul/libgcc.a(unorddf2.o)
 .bss           0x00000000010635e4        0x0 /home/efesxzc/intelFPGA_lite/19.1/nios2eds/bin/gnu/H-x86_64-pc-linux-gnu/bin/../lib/gcc/nios2-elf/8.3.1/mno-hw-mul/libgcc.a(fixdfsi.o)
 .bss           0x00000000010635e4        0x0 /home/efesxzc/intelFPGA_lite/19.1/nios2eds/bin/gnu/H-x86_64-pc-linux-gnu/bin/../lib/gcc/nios2-elf/8.3.1/mno-hw-mul/libgcc.a(floatsidf.o)
 .bss           0x00000000010635e4        0x0 /home/efesxzc/intelFPGA_lite/19.1/nios2eds/bin/gnu/H-x86_64-pc-linux-gnu/bin/../lib/gcc/nios2-elf/8.3.1/mno-hw-mul/libgcc.a(floatunsidf.o)
 .bss           0x00000000010635e4        0x0 /home/efesxzc/intelFPGA_lite/19.1/nios2eds/bin/gnu/H-x86_64-pc-linux-gnu/bin/../lib/gcc/nios2-elf/8.3.1/mno-hw-mul/libgcc.a(_clz.o)
 .bss           0x00000000010635e4        0x0 /home/efesxzc/intelFPGA_lite/19.1/nios2eds/bin/gnu/H-x86_64-pc-linux-gnu/bin/../lib/gcc/nios2-elf/8.3.1/mno-hw-mul/libgcc.a(_clzsi2.o)
 .bss           0x00000000010635e4        0x0 ../civ_002_bsp//libhal_bsp.a(alt_close.o)
 .bss           0x00000000010635e4        0x0 ../civ_002_bsp//libhal_bsp.a(alt_dev.o)
 .bss           0x00000000010635e4        0x0 ../civ_002_bsp//libhal_bsp.a(alt_errno.o)
 .bss           0x00000000010635e4        0x0 ../civ_002_bsp//libhal_bsp.a(alt_fstat.o)
 .bss           0x00000000010635e4        0x0 ../civ_002_bsp//libhal_bsp.a(alt_irq_handler.o)
 .bss           0x00000000010635e4        0x0 ../civ_002_bsp//libhal_bsp.a(alt_irq_vars.o)
 .bss           0x00000000010635e4        0x0 ../civ_002_bsp//libhal_bsp.a(alt_isatty.o)
 .bss           0x00000000010635e4        0x0 ../civ_002_bsp//libhal_bsp.a(alt_load.o)
 .bss           0x00000000010635e4        0x0 ../civ_002_bsp//libhal_bsp.a(alt_lseek.o)
 .bss           0x00000000010635e4        0x0 ../civ_002_bsp//libhal_bsp.a(alt_main.o)
 .bss           0x00000000010635e4        0x0 ../civ_002_bsp//libhal_bsp.a(alt_malloc_lock.o)
 .bss           0x00000000010635e4        0x0 ../civ_002_bsp//libhal_bsp.a(alt_read.o)
 .bss           0x00000000010635e4        0x0 ../civ_002_bsp//libhal_bsp.a(alt_release_fd.o)
 .bss           0x00000000010635e4        0x0 ../civ_002_bsp//libhal_bsp.a(alt_sbrk.o)
 .bss           0x00000000010635e4        0x0 ../civ_002_bsp//libhal_bsp.a(alt_write.o)
 .bss           0x00000000010635e4        0x0 ../civ_002_bsp//libhal_bsp.a(alt_sys_init.o)
 .bss           0x00000000010635e4        0x0 ../civ_002_bsp//libhal_bsp.a(altera_avalon_i2c.o)
 .bss           0x00000000010635e4        0x0 ../civ_002_bsp//libhal_bsp.a(altera_avalon_spi.o)
 .bss           0x00000000010635e4        0x0 ../civ_002_bsp//libhal_bsp.a(altera_avalon_timer_sc.o)
 .bss           0x00000000010635e4        0x0 ../civ_002_bsp//libhal_bsp.a(alt_busy_sleep.o)
 .bss           0x00000000010635e4        0x0 ../civ_002_bsp//libhal_bsp.a(alt_dcache_flush_all.o)
 .bss           0x00000000010635e4        0x0 ../civ_002_bsp//libhal_bsp.a(alt_dev_llist_insert.o)
 .bss           0x00000000010635e4        0x0 ../civ_002_bsp//libhal_bsp.a(alt_do_ctors.o)
 .bss           0x00000000010635e4        0x0 ../civ_002_bsp//libhal_bsp.a(alt_do_dtors.o)
 .bss           0x00000000010635e4        0x0 ../civ_002_bsp//libhal_bsp.a(alt_find_dev.o)
 .bss           0x00000000010635e4        0x0 ../civ_002_bsp//libhal_bsp.a(alt_icache_flush_all.o)
 .bss           0x00000000010635e4        0x0 ../civ_002_bsp//libhal_bsp.a(alt_printf.o)
 .bss           0x00000000010635e4        0x0 ../civ_002_bsp//libhal_bsp.a(alt_putchar.o)
 .bss           0x00000000010635e4        0x0 ../civ_002_bsp//libhal_bsp.a(alt_tick.o)
 .bss           0x00000000010635e4        0x0 ../civ_002_bsp//libhal_bsp.a(altera_nios2_gen2_irq.o)
 .bss           0x00000000010635e4        0x0 /home/efesxzc/intelFPGA_lite/19.1/nios2eds/bin/gnu/H-x86_64-pc-linux-gnu/bin/../lib/gcc/nios2-elf/8.3.1/../../../../../H-x86_64-pc-linux-gnu/nios2-elf/lib/mno-hw-mul/libc.a(lib_a-atexit.o)
 .bss           0x00000000010635e4        0x0 /home/efesxzc/intelFPGA_lite/19.1/nios2eds/bin/gnu/H-x86_64-pc-linux-gnu/bin/../lib/gcc/nios2-elf/8.3.1/../../../../../H-x86_64-pc-linux-gnu/nios2-elf/lib/mno-hw-mul/libc.a(lib_a-exit.o)
 .bss           0x00000000010635e4        0x0 /home/efesxzc/intelFPGA_lite/19.1/nios2eds/bin/gnu/H-x86_64-pc-linux-gnu/bin/../lib/gcc/nios2-elf/8.3.1/../../../../../H-x86_64-pc-linux-gnu/nios2-elf/lib/mno-hw-mul/libc.a(lib_a-putchar.o)
 .bss           0x00000000010635e4        0x0 /home/efesxzc/intelFPGA_lite/19.1/nios2eds/bin/gnu/H-x86_64-pc-linux-gnu/bin/../lib/gcc/nios2-elf/8.3.1/../../../../../H-x86_64-pc-linux-gnu/nios2-elf/lib/mno-hw-mul/libc.a(lib_a-__atexit.o)
 .bss           0x00000000010635e4        0x0 /home/efesxzc/intelFPGA_lite/19.1/nios2eds/bin/gnu/H-x86_64-pc-linux-gnu/bin/../lib/gcc/nios2-elf/8.3.1/../../../../../H-x86_64-pc-linux-gnu/nios2-elf/lib/mno-hw-mul/libc.a(lib_a-__call_atexit.o)
 .bss           0x00000000010635e4        0x0 /home/efesxzc/intelFPGA_lite/19.1/nios2eds/bin/gnu/H-x86_64-pc-linux-gnu/bin/../lib/gcc/nios2-elf/8.3.1/../../../../../H-x86_64-pc-linux-gnu/nios2-elf/lib/mno-hw-mul/libc.a(lib_a-putc.o)
 .bss           0x00000000010635e4        0x0 ../civ_002_bsp//libhal_bsp.a(alt_exit.o)
 *(COMMON)
 COMMON         0x00000000010635e4      0xd55 obj/default/./http_server.o
                0x00000000010635e4                test
 COMMON         0x0000000001064339      0xb68 obj/default/./telnet_server.o
                0x0000000001064339                rx_buf
                0x00000000010648ed                tx_buf
 *fill*         0x0000000001064ea1        0x3 
 COMMON         0x0000000001064ea4       0x28 obj/default/FreeRTOS/FreeRTOS-Plus-TCP/FreeRTOS_Sockets.o
                0x0000000001064ea4                xBoundTCPSocketsList
                0x0000000001064eb8                xBoundUDPSocketsList
 COMMON         0x0000000001064ecc      0x100 ../civ_002_bsp//libhal_bsp.a(alt_irq_handler.o)
                0x0000000001064ecc                alt_irq
                0x0000000001064fcc                . = ALIGN (0x4)
                0x0000000001064fcc                __bss_end = ABSOLUTE (.)

.RAM            0x0000000001064fcc        0x0
                [!provide]                        PROVIDE (_alt_partition_RAM_start = ABSOLUTE (.))
 *(.RAM .RAM. RAM.*)
                0x0000000001064fcc                . = ALIGN (0x4)
                [!provide]                        PROVIDE (_alt_partition_RAM_end = ABSOLUTE (.))
                0x0000000001064fcc                _end = ABSOLUTE (.)
                0x0000000001064fcc                end = ABSOLUTE (.)
                0x0000000001064fcc                __alt_stack_base = ABSOLUTE (.)
                [!provide]                        PROVIDE (_alt_partition_RAM_load_addr = LOADADDR (.RAM))

.stab
 *(.stab)

.stabstr
 *(.stabstr)

.stab.excl
 *(.stab.excl)

.stab.exclstr
 *(.stab.exclstr)

.stab.index
 *(.stab.index)

.stab.indexstr
 *(.stab.indexstr)

.comment        0x0000000000000000       0x2c
 *(.comment)
 .comment       0x0000000000000000       0x2c obj/default/./CLI-Commands.o
                                         0x2d (size before relaxing)
 .comment       0x000000000000002c       0x2d obj/default/./at24c08.o
 .comment       0x000000000000002c       0x2d obj/default/./http_server.o
 .comment       0x000000000000002c       0x2d obj/default/./lm75.o
 .comment       0x000000000000002c       0x2d obj/default/./main.o
 .comment       0x000000000000002c       0x2d obj/default/./telnet_server.o
 .comment       0x000000000000002c       0x2d obj/default/FreeRTOS/FreeRTOS-Kernel/croutine.o
 .comment       0x000000000000002c       0x2d obj/default/FreeRTOS/FreeRTOS-Kernel/event_groups.o
 .comment       0x000000000000002c       0x2d obj/default/FreeRTOS/FreeRTOS-Kernel/list.o
 .comment       0x000000000000002c       0x2d obj/default/FreeRTOS/FreeRTOS-Kernel/portable/GCC/NiosII/port.o
 .comment       0x000000000000002c       0x2d obj/default/FreeRTOS/FreeRTOS-Kernel/portable/portTimer.o
 .comment       0x000000000000002c       0x2d obj/default/FreeRTOS/FreeRTOS-Kernel/queue.o
 .comment       0x000000000000002c       0x2d obj/default/FreeRTOS/FreeRTOS-Kernel/stream_buffer.o
 .comment       0x000000000000002c       0x2d obj/default/FreeRTOS/FreeRTOS-Kernel/tasks.o
 .comment       0x000000000000002c       0x2d obj/default/FreeRTOS/FreeRTOS-Kernel/timers.o
 .comment       0x000000000000002c       0x2d obj/default/FreeRTOS/FreeRTOS-Plus-CLI/FreeRTOS_CLI.o
 .comment       0x000000000000002c       0x2d obj/default/FreeRTOS/FreeRTOS-Plus-TCP/FreeRTOS_ARP.o
 .comment       0x000000000000002c       0x2d obj/default/FreeRTOS/FreeRTOS-Plus-TCP/FreeRTOS_DHCP.o
 .comment       0x000000000000002c       0x2d obj/default/FreeRTOS/FreeRTOS-Plus-TCP/FreeRTOS_DNS.o
 .comment       0x000000000000002c       0x2d obj/default/FreeRTOS/FreeRTOS-Plus-TCP/FreeRTOS_IP.o
 .comment       0x000000000000002c       0x2d obj/default/FreeRTOS/FreeRTOS-Plus-TCP/FreeRTOS_Sockets.o
 .comment       0x000000000000002c       0x2d obj/default/FreeRTOS/FreeRTOS-Plus-TCP/FreeRTOS_Stream_Buffer.o
 .comment       0x000000000000002c       0x2d obj/default/FreeRTOS/FreeRTOS-Plus-TCP/FreeRTOS_TCP_IP.o
 .comment       0x000000000000002c       0x2d obj/default/FreeRTOS/FreeRTOS-Plus-TCP/FreeRTOS_TCP_WIN.o
 .comment       0x000000000000002c       0x2d obj/default/FreeRTOS/FreeRTOS-Plus-TCP/FreeRTOS_UDP_IP.o
 .comment       0x000000000000002c       0x2d obj/default/FreeRTOS/FreeRTOS-Plus-TCP/portable/NetworkInterface/ENC28J60/NetworkInterface.o
 .comment       0x000000000000002c       0x2d obj/default/FreeRTOS/FreeRTOS-Plus-TCP/portable/NetworkInterface/ENC28J60/enc.o
 .comment       0x000000000000002c       0x2d obj/default/FreeRTOS/FreeRTOS-Kernel/portable/MemMang/heap_4.o
 .comment       0x000000000000002c       0x2d obj/default/FreeRTOS/FreeRTOS-Plus-TCP/portable/BufferManagement/BufferAllocation_1.o
 .comment       0x000000000000002c       0x2d /home/efesxzc/intelFPGA_lite/19.1/nios2eds/bin/gnu/H-x86_64-pc-linux-gnu/bin/../lib/gcc/nios2-elf/8.3.1/mno-hw-mul/libgcc.a(lib2-divmod.o)
 .comment       0x000000000000002c       0x2d /home/efesxzc/intelFPGA_lite/19.1/nios2eds/bin/gnu/H-x86_64-pc-linux-gnu/bin/../lib/gcc/nios2-elf/8.3.1/mno-hw-mul/libgcc.a(lib2-mul.o)
 .comment       0x000000000000002c       0x2d /home/efesxzc/intelFPGA_lite/19.1/nios2eds/bin/gnu/H-x86_64-pc-linux-gnu/bin/../lib/gcc/nios2-elf/8.3.1/../../../../../H-x86_64-pc-linux-gnu/nios2-elf/lib/mno-hw-mul/libc.a(lib_a-memcmp.o)
 .comment       0x000000000000002c       0x2d /home/efesxzc/intelFPGA_lite/19.1/nios2eds/bin/gnu/H-x86_64-pc-linux-gnu/bin/../lib/gcc/nios2-elf/8.3.1/../../../../../H-x86_64-pc-linux-gnu/nios2-elf/lib/mno-hw-mul/libc.a(lib_a-memcpy.o)
 .comment       0x000000000000002c       0x2d /home/efesxzc/intelFPGA_lite/19.1/nios2eds/bin/gnu/H-x86_64-pc-linux-gnu/bin/../lib/gcc/nios2-elf/8.3.1/../../../../../H-x86_64-pc-linux-gnu/nios2-elf/lib/mno-hw-mul/libc.a(lib_a-memmove.o)
 .comment       0x000000000000002c       0x2d /home/efesxzc/intelFPGA_lite/19.1/nios2eds/bin/gnu/H-x86_64-pc-linux-gnu/bin/../lib/gcc/nios2-elf/8.3.1/../../../../../H-x86_64-pc-linux-gnu/nios2-elf/lib/mno-hw-mul/libc.a(lib_a-memset.o)
 .comment       0x000000000000002c       0x2d /home/efesxzc/intelFPGA_lite/19.1/nios2eds/bin/gnu/H-x86_64-pc-linux-gnu/bin/../lib/gcc/nios2-elf/8.3.1/../../../../../H-x86_64-pc-linux-gnu/nios2-elf/lib/mno-hw-mul/libc.a(lib_a-printf.o)
 .comment       0x000000000000002c       0x2d /home/efesxzc/intelFPGA_lite/19.1/nios2eds/bin/gnu/H-x86_64-pc-linux-gnu/bin/../lib/gcc/nios2-elf/8.3.1/../../../../../H-x86_64-pc-linux-gnu/nios2-elf/lib/mno-hw-mul/libc.a(lib_a-puts.o)
 .comment       0x000000000000002c       0x2d /home/efesxzc/intelFPGA_lite/19.1/nios2eds/bin/gnu/H-x86_64-pc-linux-gnu/bin/../lib/gcc/nios2-elf/8.3.1/../../../../../H-x86_64-pc-linux-gnu/nios2-elf/lib/mno-hw-mul/libc.a(lib_a-rand.o)
 .comment       0x000000000000002c       0x2d /home/efesxzc/intelFPGA_lite/19.1/nios2eds/bin/gnu/H-x86_64-pc-linux-gnu/bin/../lib/gcc/nios2-elf/8.3.1/../../../../../H-x86_64-pc-linux-gnu/nios2-elf/lib/mno-hw-mul/libc.a(lib_a-snprintf.o)
 .comment       0x000000000000002c       0x2d /home/efesxzc/intelFPGA_lite/19.1/nios2eds/bin/gnu/H-x86_64-pc-linux-gnu/bin/../lib/gcc/nios2-elf/8.3.1/../../../../../H-x86_64-pc-linux-gnu/nios2-elf/lib/mno-hw-mul/libc.a(lib_a-sprintf.o)
 .comment       0x000000000000002c       0x2d /home/efesxzc/intelFPGA_lite/19.1/nios2eds/bin/gnu/H-x86_64-pc-linux-gnu/bin/../lib/gcc/nios2-elf/8.3.1/../../../../../H-x86_64-pc-linux-gnu/nios2-elf/lib/mno-hw-mul/libc.a(lib_a-strcpy.o)
 .comment       0x000000000000002c       0x2d /home/efesxzc/intelFPGA_lite/19.1/nios2eds/bin/gnu/H-x86_64-pc-linux-gnu/bin/../lib/gcc/nios2-elf/8.3.1/../../../../../H-x86_64-pc-linux-gnu/nios2-elf/lib/mno-hw-mul/libc.a(lib_a-strlen.o)
 .comment       0x000000000000002c       0x2d /home/efesxzc/intelFPGA_lite/19.1/nios2eds/bin/gnu/H-x86_64-pc-linux-gnu/bin/../lib/gcc/nios2-elf/8.3.1/../../../../../H-x86_64-pc-linux-gnu/nios2-elf/lib/mno-hw-mul/libc.a(lib_a-strncmp.o)
 .comment       0x000000000000002c       0x2d /home/efesxzc/intelFPGA_lite/19.1/nios2eds/bin/gnu/H-x86_64-pc-linux-gnu/bin/../lib/gcc/nios2-elf/8.3.1/../../../../../H-x86_64-pc-linux-gnu/nios2-elf/lib/mno-hw-mul/libc.a(lib_a-strncpy.o)
 .comment       0x000000000000002c       0x2d /home/efesxzc/intelFPGA_lite/19.1/nios2eds/bin/gnu/H-x86_64-pc-linux-gnu/bin/../lib/gcc/nios2-elf/8.3.1/../../../../../H-x86_64-pc-linux-gnu/nios2-elf/lib/mno-hw-mul/libc.a(lib_a-strstr.o)
 .comment       0x000000000000002c       0x2d /home/efesxzc/intelFPGA_lite/19.1/nios2eds/bin/gnu/H-x86_64-pc-linux-gnu/bin/../lib/gcc/nios2-elf/8.3.1/../../../../../H-x86_64-pc-linux-gnu/nios2-elf/lib/mno-hw-mul/libc.a(lib_a-strtol.o)
 .comment       0x000000000000002c       0x2d /home/efesxzc/intelFPGA_lite/19.1/nios2eds/bin/gnu/H-x86_64-pc-linux-gnu/bin/../lib/gcc/nios2-elf/8.3.1/../../../../../H-x86_64-pc-linux-gnu/nios2-elf/lib/mno-hw-mul/libc.a(lib_a-svfprintf.o)
 .comment       0x000000000000002c       0x2d /home/efesxzc/intelFPGA_lite/19.1/nios2eds/bin/gnu/H-x86_64-pc-linux-gnu/bin/../lib/gcc/nios2-elf/8.3.1/../../../../../H-x86_64-pc-linux-gnu/nios2-elf/lib/mno-hw-mul/libc.a(lib_a-vfprintf.o)
 .comment       0x000000000000002c       0x2d /home/efesxzc/intelFPGA_lite/19.1/nios2eds/bin/gnu/H-x86_64-pc-linux-gnu/bin/../lib/gcc/nios2-elf/8.3.1/../../../../../H-x86_64-pc-linux-gnu/nios2-elf/lib/mno-hw-mul/libc.a(lib_a-wsetup.o)
 .comment       0x000000000000002c       0x2d /home/efesxzc/intelFPGA_lite/19.1/nios2eds/bin/gnu/H-x86_64-pc-linux-gnu/bin/../lib/gcc/nios2-elf/8.3.1/../../../../../H-x86_64-pc-linux-gnu/nios2-elf/lib/mno-hw-mul/libc.a(lib_a-ctype_.o)
 .comment       0x000000000000002c       0x2d /home/efesxzc/intelFPGA_lite/19.1/nios2eds/bin/gnu/H-x86_64-pc-linux-gnu/bin/../lib/gcc/nios2-elf/8.3.1/../../../../../H-x86_64-pc-linux-gnu/nios2-elf/lib/mno-hw-mul/libc.a(lib_a-dtoa.o)
 .comment       0x000000000000002c       0x2d /home/efesxzc/intelFPGA_lite/19.1/nios2eds/bin/gnu/H-x86_64-pc-linux-gnu/bin/../lib/gcc/nios2-elf/8.3.1/../../../../../H-x86_64-pc-linux-gnu/nios2-elf/lib/mno-hw-mul/libc.a(lib_a-fflush.o)
 .comment       0x000000000000002c       0x2d /home/efesxzc/intelFPGA_lite/19.1/nios2eds/bin/gnu/H-x86_64-pc-linux-gnu/bin/../lib/gcc/nios2-elf/8.3.1/../../../../../H-x86_64-pc-linux-gnu/nios2-elf/lib/mno-hw-mul/libc.a(lib_a-findfp.o)
 .comment       0x000000000000002c       0x2d /home/efesxzc/intelFPGA_lite/19.1/nios2eds/bin/gnu/H-x86_64-pc-linux-gnu/bin/../lib/gcc/nios2-elf/8.3.1/../../../../../H-x86_64-pc-linux-gnu/nios2-elf/lib/mno-hw-mul/libc.a(lib_a-freer.o)
 .comment       0x000000000000002c       0x2d /home/efesxzc/intelFPGA_lite/19.1/nios2eds/bin/gnu/H-x86_64-pc-linux-gnu/bin/../lib/gcc/nios2-elf/8.3.1/../../../../../H-x86_64-pc-linux-gnu/nios2-elf/lib/mno-hw-mul/libc.a(lib_a-fvwrite.o)
 .comment       0x000000000000002c       0x2d /home/efesxzc/intelFPGA_lite/19.1/nios2eds/bin/gnu/H-x86_64-pc-linux-gnu/bin/../lib/gcc/nios2-elf/8.3.1/../../../../../H-x86_64-pc-linux-gnu/nios2-elf/lib/mno-hw-mul/libc.a(lib_a-fwalk.o)
 .comment       0x000000000000002c       0x2d /home/efesxzc/intelFPGA_lite/19.1/nios2eds/bin/gnu/H-x86_64-pc-linux-gnu/bin/../lib/gcc/nios2-elf/8.3.1/../../../../../H-x86_64-pc-linux-gnu/nios2-elf/lib/mno-hw-mul/libc.a(lib_a-impure.o)
 .comment       0x000000000000002c       0x2d /home/efesxzc/intelFPGA_lite/19.1/nios2eds/bin/gnu/H-x86_64-pc-linux-gnu/bin/../lib/gcc/nios2-elf/8.3.1/../../../../../H-x86_64-pc-linux-gnu/nios2-elf/lib/mno-hw-mul/libc.a(lib_a-localeconv.o)
 .comment       0x000000000000002c       0x2d /home/efesxzc/intelFPGA_lite/19.1/nios2eds/bin/gnu/H-x86_64-pc-linux-gnu/bin/../lib/gcc/nios2-elf/8.3.1/../../../../../H-x86_64-pc-linux-gnu/nios2-elf/lib/mno-hw-mul/libc.a(lib_a-makebuf.o)
 .comment       0x000000000000002c       0x2d /home/efesxzc/intelFPGA_lite/19.1/nios2eds/bin/gnu/H-x86_64-pc-linux-gnu/bin/../lib/gcc/nios2-elf/8.3.1/../../../../../H-x86_64-pc-linux-gnu/nios2-elf/lib/mno-hw-mul/libc.a(lib_a-mallocr.o)
 .comment       0x000000000000002c       0x2d /home/efesxzc/intelFPGA_lite/19.1/nios2eds/bin/gnu/H-x86_64-pc-linux-gnu/bin/../lib/gcc/nios2-elf/8.3.1/../../../../../H-x86_64-pc-linux-gnu/nios2-elf/lib/mno-hw-mul/libc.a(lib_a-memchr.o)
 .comment       0x000000000000002c       0x2d /home/efesxzc/intelFPGA_lite/19.1/nios2eds/bin/gnu/H-x86_64-pc-linux-gnu/bin/../lib/gcc/nios2-elf/8.3.1/../../../../../H-x86_64-pc-linux-gnu/nios2-elf/lib/mno-hw-mul/libc.a(lib_a-mprec.o)
 .comment       0x000000000000002c       0x2d /home/efesxzc/intelFPGA_lite/19.1/nios2eds/bin/gnu/H-x86_64-pc-linux-gnu/bin/../lib/gcc/nios2-elf/8.3.1/../../../../../H-x86_64-pc-linux-gnu/nios2-elf/lib/mno-hw-mul/libc.a(lib_a-reallocr.o)
 .comment       0x000000000000002c       0x2d /home/efesxzc/intelFPGA_lite/19.1/nios2eds/bin/gnu/H-x86_64-pc-linux-gnu/bin/../lib/gcc/nios2-elf/8.3.1/../../../../../H-x86_64-pc-linux-gnu/nios2-elf/lib/mno-hw-mul/libc.a(lib_a-sbrkr.o)
 .comment       0x000000000000002c       0x2d /home/efesxzc/intelFPGA_lite/19.1/nios2eds/bin/gnu/H-x86_64-pc-linux-gnu/bin/../lib/gcc/nios2-elf/8.3.1/../../../../../H-x86_64-pc-linux-gnu/nios2-elf/lib/mno-hw-mul/libc.a(lib_a-stdio.o)
 .comment       0x000000000000002c       0x2d /home/efesxzc/intelFPGA_lite/19.1/nios2eds/bin/gnu/H-x86_64-pc-linux-gnu/bin/../lib/gcc/nios2-elf/8.3.1/../../../../../H-x86_64-pc-linux-gnu/nios2-elf/lib/mno-hw-mul/libc.a(lib_a-strchr.o)
 .comment       0x000000000000002c       0x2d /home/efesxzc/intelFPGA_lite/19.1/nios2eds/bin/gnu/H-x86_64-pc-linux-gnu/bin/../lib/gcc/nios2-elf/8.3.1/../../../../../H-x86_64-pc-linux-gnu/nios2-elf/lib/mno-hw-mul/libc.a(lib_a-strnlen.o)
 .comment       0x000000000000002c       0x2d /home/efesxzc/intelFPGA_lite/19.1/nios2eds/bin/gnu/H-x86_64-pc-linux-gnu/bin/../lib/gcc/nios2-elf/8.3.1/../../../../../H-x86_64-pc-linux-gnu/nios2-elf/lib/mno-hw-mul/libc.a(lib_a-svfiprintf.o)
 .comment       0x000000000000002c       0x2d /home/efesxzc/intelFPGA_lite/19.1/nios2eds/bin/gnu/H-x86_64-pc-linux-gnu/bin/../lib/gcc/nios2-elf/8.3.1/../../../../../H-x86_64-pc-linux-gnu/nios2-elf/lib/mno-hw-mul/libc.a(lib_a-vfiprintf.o)
 .comment       0x000000000000002c       0x2d /home/efesxzc/intelFPGA_lite/19.1/nios2eds/bin/gnu/H-x86_64-pc-linux-gnu/bin/../lib/gcc/nios2-elf/8.3.1/../../../../../H-x86_64-pc-linux-gnu/nios2-elf/lib/mno-hw-mul/libc.a(lib_a-writer.o)
 .comment       0x000000000000002c       0x2d /home/efesxzc/intelFPGA_lite/19.1/nios2eds/bin/gnu/H-x86_64-pc-linux-gnu/bin/../lib/gcc/nios2-elf/8.3.1/../../../../../H-x86_64-pc-linux-gnu/nios2-elf/lib/mno-hw-mul/libc.a(closer.o)
 .comment       0x000000000000002c       0x2d /home/efesxzc/intelFPGA_lite/19.1/nios2eds/bin/gnu/H-x86_64-pc-linux-gnu/bin/../lib/gcc/nios2-elf/8.3.1/../../../../../H-x86_64-pc-linux-gnu/nios2-elf/lib/mno-hw-mul/libc.a(lib_a-callocr.o)
 .comment       0x000000000000002c       0x2d /home/efesxzc/intelFPGA_lite/19.1/nios2eds/bin/gnu/H-x86_64-pc-linux-gnu/bin/../lib/gcc/nios2-elf/8.3.1/../../../../../H-x86_64-pc-linux-gnu/nios2-elf/lib/mno-hw-mul/libc.a(lib_a-fclose.o)
 .comment       0x000000000000002c       0x2d /home/efesxzc/intelFPGA_lite/19.1/nios2eds/bin/gnu/H-x86_64-pc-linux-gnu/bin/../lib/gcc/nios2-elf/8.3.1/../../../../../H-x86_64-pc-linux-gnu/nios2-elf/lib/mno-hw-mul/libc.a(lib_a-fputwc.o)
 .comment       0x000000000000002c       0x2d /home/efesxzc/intelFPGA_lite/19.1/nios2eds/bin/gnu/H-x86_64-pc-linux-gnu/bin/../lib/gcc/nios2-elf/8.3.1/../../../../../H-x86_64-pc-linux-gnu/nios2-elf/lib/mno-hw-mul/libc.a(lib_a-fstatr.o)
 .comment       0x000000000000002c       0x2d /home/efesxzc/intelFPGA_lite/19.1/nios2eds/bin/gnu/H-x86_64-pc-linux-gnu/bin/../lib/gcc/nios2-elf/8.3.1/../../../../../H-x86_64-pc-linux-gnu/nios2-elf/lib/mno-hw-mul/libc.a(lib_a-int_errno.o)
 .comment       0x000000000000002c       0x2d /home/efesxzc/intelFPGA_lite/19.1/nios2eds/bin/gnu/H-x86_64-pc-linux-gnu/bin/../lib/gcc/nios2-elf/8.3.1/../../../../../H-x86_64-pc-linux-gnu/nios2-elf/lib/mno-hw-mul/libc.a(lib_a-isattyr.o)
 .comment       0x000000000000002c       0x2d /home/efesxzc/intelFPGA_lite/19.1/nios2eds/bin/gnu/H-x86_64-pc-linux-gnu/bin/../lib/gcc/nios2-elf/8.3.1/../../../../../H-x86_64-pc-linux-gnu/nios2-elf/lib/mno-hw-mul/libc.a(lib_a-locale.o)
 .comment       0x000000000000002c       0x2d /home/efesxzc/intelFPGA_lite/19.1/nios2eds/bin/gnu/H-x86_64-pc-linux-gnu/bin/../lib/gcc/nios2-elf/8.3.1/../../../../../H-x86_64-pc-linux-gnu/nios2-elf/lib/mno-hw-mul/libc.a(lib_a-lseekr.o)
 .comment       0x000000000000002c       0x2d /home/efesxzc/intelFPGA_lite/19.1/nios2eds/bin/gnu/H-x86_64-pc-linux-gnu/bin/../lib/gcc/nios2-elf/8.3.1/../../../../../H-x86_64-pc-linux-gnu/nios2-elf/lib/mno-hw-mul/libc.a(lib_a-mbtowc_r.o)
 .comment       0x000000000000002c       0x2d /home/efesxzc/intelFPGA_lite/19.1/nios2eds/bin/gnu/H-x86_64-pc-linux-gnu/bin/../lib/gcc/nios2-elf/8.3.1/../../../../../H-x86_64-pc-linux-gnu/nios2-elf/lib/mno-hw-mul/libc.a(lib_a-readr.o)
 .comment       0x000000000000002c       0x2d /home/efesxzc/intelFPGA_lite/19.1/nios2eds/bin/gnu/H-x86_64-pc-linux-gnu/bin/../lib/gcc/nios2-elf/8.3.1/../../../../../H-x86_64-pc-linux-gnu/nios2-elf/lib/mno-hw-mul/libc.a(lib_a-strcmp.o)
 .comment       0x000000000000002c       0x2d /home/efesxzc/intelFPGA_lite/19.1/nios2eds/bin/gnu/H-x86_64-pc-linux-gnu/bin/../lib/gcc/nios2-elf/8.3.1/../../../../../H-x86_64-pc-linux-gnu/nios2-elf/lib/mno-hw-mul/libc.a(lib_a-wbuf.o)
 .comment       0x000000000000002c       0x2d /home/efesxzc/intelFPGA_lite/19.1/nios2eds/bin/gnu/H-x86_64-pc-linux-gnu/bin/../lib/gcc/nios2-elf/8.3.1/../../../../../H-x86_64-pc-linux-gnu/nios2-elf/lib/mno-hw-mul/libc.a(lib_a-wcrtomb.o)
 .comment       0x000000000000002c       0x2d /home/efesxzc/intelFPGA_lite/19.1/nios2eds/bin/gnu/H-x86_64-pc-linux-gnu/bin/../lib/gcc/nios2-elf/8.3.1/../../../../../H-x86_64-pc-linux-gnu/nios2-elf/lib/mno-hw-mul/libc.a(lib_a-wctomb_r.o)
 .comment       0x000000000000002c       0x2d /home/efesxzc/intelFPGA_lite/19.1/nios2eds/bin/gnu/H-x86_64-pc-linux-gnu/bin/../lib/gcc/nios2-elf/8.3.1/mno-hw-mul/libgcc.a(_muldi3.o)
 .comment       0x000000000000002c       0x2d /home/efesxzc/intelFPGA_lite/19.1/nios2eds/bin/gnu/H-x86_64-pc-linux-gnu/bin/../lib/gcc/nios2-elf/8.3.1/mno-hw-mul/libgcc.a(_udivdi3.o)
 .comment       0x000000000000002c       0x2d /home/efesxzc/intelFPGA_lite/19.1/nios2eds/bin/gnu/H-x86_64-pc-linux-gnu/bin/../lib/gcc/nios2-elf/8.3.1/mno-hw-mul/libgcc.a(_umoddi3.o)
 .comment       0x000000000000002c       0x2d /home/efesxzc/intelFPGA_lite/19.1/nios2eds/bin/gnu/H-x86_64-pc-linux-gnu/bin/../lib/gcc/nios2-elf/8.3.1/mno-hw-mul/libgcc.a(adddf3.o)
 .comment       0x000000000000002c       0x2d /home/efesxzc/intelFPGA_lite/19.1/nios2eds/bin/gnu/H-x86_64-pc-linux-gnu/bin/../lib/gcc/nios2-elf/8.3.1/mno-hw-mul/libgcc.a(divdf3.o)
 .comment       0x000000000000002c       0x2d /home/efesxzc/intelFPGA_lite/19.1/nios2eds/bin/gnu/H-x86_64-pc-linux-gnu/bin/../lib/gcc/nios2-elf/8.3.1/mno-hw-mul/libgcc.a(eqdf2.o)
 .comment       0x000000000000002c       0x2d /home/efesxzc/intelFPGA_lite/19.1/nios2eds/bin/gnu/H-x86_64-pc-linux-gnu/bin/../lib/gcc/nios2-elf/8.3.1/mno-hw-mul/libgcc.a(gedf2.o)
 .comment       0x000000000000002c       0x2d /home/efesxzc/intelFPGA_lite/19.1/nios2eds/bin/gnu/H-x86_64-pc-linux-gnu/bin/../lib/gcc/nios2-elf/8.3.1/mno-hw-mul/libgcc.a(ledf2.o)
 .comment       0x000000000000002c       0x2d /home/efesxzc/intelFPGA_lite/19.1/nios2eds/bin/gnu/H-x86_64-pc-linux-gnu/bin/../lib/gcc/nios2-elf/8.3.1/mno-hw-mul/libgcc.a(muldf3.o)
 .comment       0x000000000000002c       0x2d /home/efesxzc/intelFPGA_lite/19.1/nios2eds/bin/gnu/H-x86_64-pc-linux-gnu/bin/../lib/gcc/nios2-elf/8.3.1/mno-hw-mul/libgcc.a(subdf3.o)
 .comment       0x000000000000002c       0x2d /home/efesxzc/intelFPGA_lite/19.1/nios2eds/bin/gnu/H-x86_64-pc-linux-gnu/bin/../lib/gcc/nios2-elf/8.3.1/mno-hw-mul/libgcc.a(unorddf2.o)
 .comment       0x000000000000002c       0x2d /home/efesxzc/intelFPGA_lite/19.1/nios2eds/bin/gnu/H-x86_64-pc-linux-gnu/bin/../lib/gcc/nios2-elf/8.3.1/mno-hw-mul/libgcc.a(fixdfsi.o)
 .comment       0x000000000000002c       0x2d /home/efesxzc/intelFPGA_lite/19.1/nios2eds/bin/gnu/H-x86_64-pc-linux-gnu/bin/../lib/gcc/nios2-elf/8.3.1/mno-hw-mul/libgcc.a(floatsidf.o)
 .comment       0x000000000000002c       0x2d /home/efesxzc/intelFPGA_lite/19.1/nios2eds/bin/gnu/H-x86_64-pc-linux-gnu/bin/../lib/gcc/nios2-elf/8.3.1/mno-hw-mul/libgcc.a(floatunsidf.o)
 .comment       0x000000000000002c       0x2d /home/efesxzc/intelFPGA_lite/19.1/nios2eds/bin/gnu/H-x86_64-pc-linux-gnu/bin/../lib/gcc/nios2-elf/8.3.1/mno-hw-mul/libgcc.a(_clz.o)
 .comment       0x000000000000002c       0x2d /home/efesxzc/intelFPGA_lite/19.1/nios2eds/bin/gnu/H-x86_64-pc-linux-gnu/bin/../lib/gcc/nios2-elf/8.3.1/mno-hw-mul/libgcc.a(_clzsi2.o)
 .comment       0x000000000000002c       0x2d ../civ_002_bsp//libhal_bsp.a(alt_close.o)
 .comment       0x000000000000002c       0x2d ../civ_002_bsp//libhal_bsp.a(alt_dev.o)
 .comment       0x000000000000002c       0x2d ../civ_002_bsp//libhal_bsp.a(alt_errno.o)
 .comment       0x000000000000002c       0x2d ../civ_002_bsp//libhal_bsp.a(alt_fstat.o)
 .comment       0x000000000000002c       0x2d ../civ_002_bsp//libhal_bsp.a(alt_irq_handler.o)
 .comment       0x000000000000002c       0x2d ../civ_002_bsp//libhal_bsp.a(alt_irq_vars.o)
 .comment       0x000000000000002c       0x2d ../civ_002_bsp//libhal_bsp.a(alt_isatty.o)
 .comment       0x000000000000002c       0x2d ../civ_002_bsp//libhal_bsp.a(alt_load.o)
 .comment       0x000000000000002c       0x2d ../civ_002_bsp//libhal_bsp.a(alt_lseek.o)
 .comment       0x000000000000002c       0x2d ../civ_002_bsp//libhal_bsp.a(alt_main.o)
 .comment       0x000000000000002c       0x2d ../civ_002_bsp//libhal_bsp.a(alt_malloc_lock.o)
 .comment       0x000000000000002c       0x2d ../civ_002_bsp//libhal_bsp.a(alt_read.o)
 .comment       0x000000000000002c       0x2d ../civ_002_bsp//libhal_bsp.a(alt_release_fd.o)
 .comment       0x000000000000002c       0x2d ../civ_002_bsp//libhal_bsp.a(alt_sbrk.o)
 .comment       0x000000000000002c       0x2d ../civ_002_bsp//libhal_bsp.a(alt_write.o)
 .comment       0x000000000000002c       0x2d ../civ_002_bsp//libhal_bsp.a(alt_sys_init.o)
 .comment       0x000000000000002c       0x2d ../civ_002_bsp//libhal_bsp.a(altera_avalon_i2c.o)
 .comment       0x000000000000002c       0x2d ../civ_002_bsp//libhal_bsp.a(altera_avalon_spi.o)
 .comment       0x000000000000002c       0x2d ../civ_002_bsp//libhal_bsp.a(altera_avalon_timer_sc.o)
 .comment       0x000000000000002c       0x2d ../civ_002_bsp//libhal_bsp.a(alt_busy_sleep.o)
 .comment       0x000000000000002c       0x2d ../civ_002_bsp//libhal_bsp.a(alt_dcache_flush_all.o)
 .comment       0x000000000000002c       0x2d ../civ_002_bsp//libhal_bsp.a(alt_dev_llist_insert.o)
 .comment       0x000000000000002c       0x2d ../civ_002_bsp//libhal_bsp.a(alt_do_ctors.o)
 .comment       0x000000000000002c       0x2d ../civ_002_bsp//libhal_bsp.a(alt_do_dtors.o)
 .comment       0x000000000000002c       0x2d ../civ_002_bsp//libhal_bsp.a(alt_find_dev.o)
 .comment       0x000000000000002c       0x2d ../civ_002_bsp//libhal_bsp.a(alt_icache_flush_all.o)
 .comment       0x000000000000002c       0x2d ../civ_002_bsp//libhal_bsp.a(alt_printf.o)
 .comment       0x000000000000002c       0x2d ../civ_002_bsp//libhal_bsp.a(alt_putchar.o)
 .comment       0x000000000000002c       0x2d ../civ_002_bsp//libhal_bsp.a(alt_tick.o)
 .comment       0x000000000000002c       0x2d ../civ_002_bsp//libhal_bsp.a(altera_nios2_gen2_irq.o)
 .comment       0x000000000000002c       0x2d /home/efesxzc/intelFPGA_lite/19.1/nios2eds/bin/gnu/H-x86_64-pc-linux-gnu/bin/../lib/gcc/nios2-elf/8.3.1/../../../../../H-x86_64-pc-linux-gnu/nios2-elf/lib/mno-hw-mul/libc.a(lib_a-atexit.o)
 .comment       0x000000000000002c       0x2d /home/efesxzc/intelFPGA_lite/19.1/nios2eds/bin/gnu/H-x86_64-pc-linux-gnu/bin/../lib/gcc/nios2-elf/8.3.1/../../../../../H-x86_64-pc-linux-gnu/nios2-elf/lib/mno-hw-mul/libc.a(lib_a-exit.o)
 .comment       0x000000000000002c       0x2d /home/efesxzc/intelFPGA_lite/19.1/nios2eds/bin/gnu/H-x86_64-pc-linux-gnu/bin/../lib/gcc/nios2-elf/8.3.1/../../../../../H-x86_64-pc-linux-gnu/nios2-elf/lib/mno-hw-mul/libc.a(lib_a-putchar.o)
 .comment       0x000000000000002c       0x2d /home/efesxzc/intelFPGA_lite/19.1/nios2eds/bin/gnu/H-x86_64-pc-linux-gnu/bin/../lib/gcc/nios2-elf/8.3.1/../../../../../H-x86_64-pc-linux-gnu/nios2-elf/lib/mno-hw-mul/libc.a(lib_a-__atexit.o)
 .comment       0x000000000000002c       0x2d /home/efesxzc/intelFPGA_lite/19.1/nios2eds/bin/gnu/H-x86_64-pc-linux-gnu/bin/../lib/gcc/nios2-elf/8.3.1/../../../../../H-x86_64-pc-linux-gnu/nios2-elf/lib/mno-hw-mul/libc.a(lib_a-__call_atexit.o)
 .comment       0x000000000000002c       0x2d /home/efesxzc/intelFPGA_lite/19.1/nios2eds/bin/gnu/H-x86_64-pc-linux-gnu/bin/../lib/gcc/nios2-elf/8.3.1/../../../../../H-x86_64-pc-linux-gnu/nios2-elf/lib/mno-hw-mul/libc.a(lib_a-putc.o)
 .comment       0x000000000000002c       0x2d ../civ_002_bsp//libhal_bsp.a(alt_exit.o)

.debug
 *(.debug)

.line
 *(.line)

.debug_srcinfo
 *(.debug_srcinfo)

.debug_sfnames
 *(.debug_sfnames)

.debug_aranges  0x0000000000000000     0x1368
 *(.debug_aranges)
 .debug_aranges
                0x0000000000000000       0x28 ../civ_002_bsp//obj/HAL/src/crt0.o
 .debug_aranges
                0x0000000000000028       0x20 obj/default/./CLI-Commands.o
 .debug_aranges
                0x0000000000000048       0x20 obj/default/./at24c08.o
 .debug_aranges
                0x0000000000000068       0x20 obj/default/./http_server.o
 .debug_aranges
                0x0000000000000088       0x20 obj/default/./lm75.o
 .debug_aranges
                0x00000000000000a8       0x20 obj/default/./main.o
 .debug_aranges
                0x00000000000000c8       0x20 obj/default/./telnet_server.o
 .debug_aranges
                0x00000000000000e8       0x18 obj/default/FreeRTOS/FreeRTOS-Kernel/croutine.o
 .debug_aranges
                0x0000000000000100       0x20 obj/default/FreeRTOS/FreeRTOS-Kernel/event_groups.o
 .debug_aranges
                0x0000000000000120       0x20 obj/default/FreeRTOS/FreeRTOS-Kernel/list.o
 .debug_aranges
                0x0000000000000140       0x20 obj/default/FreeRTOS/FreeRTOS-Kernel/portable/GCC/NiosII/port.o
 .debug_aranges
                0x0000000000000160       0x20 obj/default/FreeRTOS/FreeRTOS-Kernel/portable/portTimer.o
 .debug_aranges
                0x0000000000000180       0x20 obj/default/FreeRTOS/FreeRTOS-Kernel/queue.o
 .debug_aranges
                0x00000000000001a0       0x20 obj/default/FreeRTOS/FreeRTOS-Kernel/stream_buffer.o
 .debug_aranges
                0x00000000000001c0       0x20 obj/default/FreeRTOS/FreeRTOS-Kernel/tasks.o
 .debug_aranges
                0x00000000000001e0       0x18 obj/default/FreeRTOS/FreeRTOS-Kernel/timers.o
 .debug_aranges
                0x00000000000001f8       0x20 obj/default/FreeRTOS/FreeRTOS-Plus-CLI/FreeRTOS_CLI.o
 .debug_aranges
                0x0000000000000218       0x20 obj/default/FreeRTOS/FreeRTOS-Plus-TCP/FreeRTOS_ARP.o
 .debug_aranges
                0x0000000000000238       0x18 obj/default/FreeRTOS/FreeRTOS-Plus-TCP/FreeRTOS_DHCP.o
 .debug_aranges
                0x0000000000000250       0x18 obj/default/FreeRTOS/FreeRTOS-Plus-TCP/FreeRTOS_DNS.o
 .debug_aranges
                0x0000000000000268       0x20 obj/default/FreeRTOS/FreeRTOS-Plus-TCP/FreeRTOS_IP.o
 .debug_aranges
                0x0000000000000288       0x20 obj/default/FreeRTOS/FreeRTOS-Plus-TCP/FreeRTOS_Sockets.o
 .debug_aranges
                0x00000000000002a8       0x20 obj/default/FreeRTOS/FreeRTOS-Plus-TCP/FreeRTOS_Stream_Buffer.o
 .debug_aranges
                0x00000000000002c8       0x20 obj/default/FreeRTOS/FreeRTOS-Plus-TCP/FreeRTOS_TCP_IP.o
 .debug_aranges
                0x00000000000002e8       0x20 obj/default/FreeRTOS/FreeRTOS-Plus-TCP/FreeRTOS_TCP_WIN.o
 .debug_aranges
                0x0000000000000308       0x20 obj/default/FreeRTOS/FreeRTOS-Plus-TCP/FreeRTOS_UDP_IP.o
 .debug_aranges
                0x0000000000000328       0x20 obj/default/FreeRTOS/FreeRTOS-Plus-TCP/portable/NetworkInterface/ENC28J60/NetworkInterface.o
 .debug_aranges
                0x0000000000000348       0x20 obj/default/FreeRTOS/FreeRTOS-Plus-TCP/portable/NetworkInterface/ENC28J60/enc.o
 .debug_aranges
                0x0000000000000368       0x20 obj/default/FreeRTOS/FreeRTOS-Kernel/portable/MemMang/heap_4.o
 .debug_aranges
                0x0000000000000388       0x20 obj/default/FreeRTOS/FreeRTOS-Plus-TCP/portable/BufferManagement/BufferAllocation_1.o
 .debug_aranges
                0x00000000000003a8       0x40 obj/default/FreeRTOS/FreeRTOS-Kernel/portable/GCC/NiosII/port_asm.o
 .debug_aranges
                0x00000000000003e8       0x20 /home/efesxzc/intelFPGA_lite/19.1/nios2eds/bin/gnu/H-x86_64-pc-linux-gnu/bin/../lib/gcc/nios2-elf/8.3.1/mno-hw-mul/libgcc.a(lib2-divmod.o)
 .debug_aranges
                0x0000000000000408       0x20 /home/efesxzc/intelFPGA_lite/19.1/nios2eds/bin/gnu/H-x86_64-pc-linux-gnu/bin/../lib/gcc/nios2-elf/8.3.1/mno-hw-mul/libgcc.a(lib2-mul.o)
 .debug_aranges
                0x0000000000000428       0x20 /home/efesxzc/intelFPGA_lite/19.1/nios2eds/bin/gnu/H-x86_64-pc-linux-gnu/bin/../lib/gcc/nios2-elf/8.3.1/../../../../../H-x86_64-pc-linux-gnu/nios2-elf/lib/mno-hw-mul/libc.a(lib_a-memcmp.o)
 .debug_aranges
                0x0000000000000448       0x20 /home/efesxzc/intelFPGA_lite/19.1/nios2eds/bin/gnu/H-x86_64-pc-linux-gnu/bin/../lib/gcc/nios2-elf/8.3.1/../../../../../H-x86_64-pc-linux-gnu/nios2-elf/lib/mno-hw-mul/libc.a(lib_a-memcpy.o)
 .debug_aranges
                0x0000000000000468       0x20 /home/efesxzc/intelFPGA_lite/19.1/nios2eds/bin/gnu/H-x86_64-pc-linux-gnu/bin/../lib/gcc/nios2-elf/8.3.1/../../../../../H-x86_64-pc-linux-gnu/nios2-elf/lib/mno-hw-mul/libc.a(lib_a-memmove.o)
 .debug_aranges
                0x0000000000000488       0x20 /home/efesxzc/intelFPGA_lite/19.1/nios2eds/bin/gnu/H-x86_64-pc-linux-gnu/bin/../lib/gcc/nios2-elf/8.3.1/../../../../../H-x86_64-pc-linux-gnu/nios2-elf/lib/mno-hw-mul/libc.a(lib_a-memset.o)
 .debug_aranges
                0x00000000000004a8       0x28 /home/efesxzc/intelFPGA_lite/19.1/nios2eds/bin/gnu/H-x86_64-pc-linux-gnu/bin/../lib/gcc/nios2-elf/8.3.1/../../../../../H-x86_64-pc-linux-gnu/nios2-elf/lib/mno-hw-mul/libc.a(lib_a-printf.o)
 .debug_aranges
                0x00000000000004d0       0x28 /home/efesxzc/intelFPGA_lite/19.1/nios2eds/bin/gnu/H-x86_64-pc-linux-gnu/bin/../lib/gcc/nios2-elf/8.3.1/../../../../../H-x86_64-pc-linux-gnu/nios2-elf/lib/mno-hw-mul/libc.a(lib_a-puts.o)
 .debug_aranges
                0x00000000000004f8       0x28 /home/efesxzc/intelFPGA_lite/19.1/nios2eds/bin/gnu/H-x86_64-pc-linux-gnu/bin/../lib/gcc/nios2-elf/8.3.1/../../../../../H-x86_64-pc-linux-gnu/nios2-elf/lib/mno-hw-mul/libc.a(lib_a-rand.o)
 .debug_aranges
                0x0000000000000520       0x28 /home/efesxzc/intelFPGA_lite/19.1/nios2eds/bin/gnu/H-x86_64-pc-linux-gnu/bin/../lib/gcc/nios2-elf/8.3.1/../../../../../H-x86_64-pc-linux-gnu/nios2-elf/lib/mno-hw-mul/libc.a(lib_a-snprintf.o)
 .debug_aranges
                0x0000000000000548       0x28 /home/efesxzc/intelFPGA_lite/19.1/nios2eds/bin/gnu/H-x86_64-pc-linux-gnu/bin/../lib/gcc/nios2-elf/8.3.1/../../../../../H-x86_64-pc-linux-gnu/nios2-elf/lib/mno-hw-mul/libc.a(lib_a-sprintf.o)
 .debug_aranges
                0x0000000000000570       0x20 /home/efesxzc/intelFPGA_lite/19.1/nios2eds/bin/gnu/H-x86_64-pc-linux-gnu/bin/../lib/gcc/nios2-elf/8.3.1/../../../../../H-x86_64-pc-linux-gnu/nios2-elf/lib/mno-hw-mul/libc.a(lib_a-strcpy.o)
 .debug_aranges
                0x0000000000000590       0x20 /home/efesxzc/intelFPGA_lite/19.1/nios2eds/bin/gnu/H-x86_64-pc-linux-gnu/bin/../lib/gcc/nios2-elf/8.3.1/../../../../../H-x86_64-pc-linux-gnu/nios2-elf/lib/mno-hw-mul/libc.a(lib_a-strlen.o)
 .debug_aranges
                0x00000000000005b0       0x20 /home/efesxzc/intelFPGA_lite/19.1/nios2eds/bin/gnu/H-x86_64-pc-linux-gnu/bin/../lib/gcc/nios2-elf/8.3.1/../../../../../H-x86_64-pc-linux-gnu/nios2-elf/lib/mno-hw-mul/libc.a(lib_a-strncmp.o)
 .debug_aranges
                0x00000000000005d0       0x20 /home/efesxzc/intelFPGA_lite/19.1/nios2eds/bin/gnu/H-x86_64-pc-linux-gnu/bin/../lib/gcc/nios2-elf/8.3.1/../../../../../H-x86_64-pc-linux-gnu/nios2-elf/lib/mno-hw-mul/libc.a(lib_a-strncpy.o)
 .debug_aranges
                0x00000000000005f0       0x28 /home/efesxzc/intelFPGA_lite/19.1/nios2eds/bin/gnu/H-x86_64-pc-linux-gnu/bin/../lib/gcc/nios2-elf/8.3.1/../../../../../H-x86_64-pc-linux-gnu/nios2-elf/lib/mno-hw-mul/libc.a(lib_a-strstr.o)
 .debug_aranges
                0x0000000000000618       0x38 /home/efesxzc/intelFPGA_lite/19.1/nios2eds/bin/gnu/H-x86_64-pc-linux-gnu/bin/../lib/gcc/nios2-elf/8.3.1/../../../../../H-x86_64-pc-linux-gnu/nios2-elf/lib/mno-hw-mul/libc.a(lib_a-strtol.o)
 .debug_aranges
                0x0000000000000650       0x20 /home/efesxzc/intelFPGA_lite/19.1/nios2eds/bin/gnu/H-x86_64-pc-linux-gnu/bin/../lib/gcc/nios2-elf/8.3.1/../../../../../H-x86_64-pc-linux-gnu/nios2-elf/lib/mno-hw-mul/libc.a(lib_a-svfprintf.o)
 .debug_aranges
                0x0000000000000670       0x30 /home/efesxzc/intelFPGA_lite/19.1/nios2eds/bin/gnu/H-x86_64-pc-linux-gnu/bin/../lib/gcc/nios2-elf/8.3.1/../../../../../H-x86_64-pc-linux-gnu/nios2-elf/lib/mno-hw-mul/libc.a(lib_a-vfprintf.o)
 .debug_aranges
                0x00000000000006a0       0x20 /home/efesxzc/intelFPGA_lite/19.1/nios2eds/bin/gnu/H-x86_64-pc-linux-gnu/bin/../lib/gcc/nios2-elf/8.3.1/../../../../../H-x86_64-pc-linux-gnu/nios2-elf/lib/mno-hw-mul/libc.a(lib_a-wsetup.o)
 .debug_aranges
                0x00000000000006c0       0x18 /home/efesxzc/intelFPGA_lite/19.1/nios2eds/bin/gnu/H-x86_64-pc-linux-gnu/bin/../lib/gcc/nios2-elf/8.3.1/../../../../../H-x86_64-pc-linux-gnu/nios2-elf/lib/mno-hw-mul/libc.a(lib_a-ctype_.o)
 .debug_aranges
                0x00000000000006d8       0x28 /home/efesxzc/intelFPGA_lite/19.1/nios2eds/bin/gnu/H-x86_64-pc-linux-gnu/bin/../lib/gcc/nios2-elf/8.3.1/../../../../../H-x86_64-pc-linux-gnu/nios2-elf/lib/mno-hw-mul/libc.a(lib_a-dtoa.o)
 .debug_aranges
                0x0000000000000700       0x30 /home/efesxzc/intelFPGA_lite/19.1/nios2eds/bin/gnu/H-x86_64-pc-linux-gnu/bin/../lib/gcc/nios2-elf/8.3.1/../../../../../H-x86_64-pc-linux-gnu/nios2-elf/lib/mno-hw-mul/libc.a(lib_a-fflush.o)
 .debug_aranges
                0x0000000000000730       0x68 /home/efesxzc/intelFPGA_lite/19.1/nios2eds/bin/gnu/H-x86_64-pc-linux-gnu/bin/../lib/gcc/nios2-elf/8.3.1/../../../../../H-x86_64-pc-linux-gnu/nios2-elf/lib/mno-hw-mul/libc.a(lib_a-findfp.o)
 .debug_aranges
                0x0000000000000798       0x28 /home/efesxzc/intelFPGA_lite/19.1/nios2eds/bin/gnu/H-x86_64-pc-linux-gnu/bin/../lib/gcc/nios2-elf/8.3.1/../../../../../H-x86_64-pc-linux-gnu/nios2-elf/lib/mno-hw-mul/libc.a(lib_a-freer.o)
 .debug_aranges
                0x00000000000007c0       0x20 /home/efesxzc/intelFPGA_lite/19.1/nios2eds/bin/gnu/H-x86_64-pc-linux-gnu/bin/../lib/gcc/nios2-elf/8.3.1/../../../../../H-x86_64-pc-linux-gnu/nios2-elf/lib/mno-hw-mul/libc.a(lib_a-fvwrite.o)
 .debug_aranges
                0x00000000000007e0       0x28 /home/efesxzc/intelFPGA_lite/19.1/nios2eds/bin/gnu/H-x86_64-pc-linux-gnu/bin/../lib/gcc/nios2-elf/8.3.1/../../../../../H-x86_64-pc-linux-gnu/nios2-elf/lib/mno-hw-mul/libc.a(lib_a-fwalk.o)
 .debug_aranges
                0x0000000000000808       0x18 /home/efesxzc/intelFPGA_lite/19.1/nios2eds/bin/gnu/H-x86_64-pc-linux-gnu/bin/../lib/gcc/nios2-elf/8.3.1/../../../../../H-x86_64-pc-linux-gnu/nios2-elf/lib/mno-hw-mul/libc.a(lib_a-impure.o)
 .debug_aranges
                0x0000000000000820       0x30 /home/efesxzc/intelFPGA_lite/19.1/nios2eds/bin/gnu/H-x86_64-pc-linux-gnu/bin/../lib/gcc/nios2-elf/8.3.1/../../../../../H-x86_64-pc-linux-gnu/nios2-elf/lib/mno-hw-mul/libc.a(lib_a-localeconv.o)
 .debug_aranges
                0x0000000000000850       0x28 /home/efesxzc/intelFPGA_lite/19.1/nios2eds/bin/gnu/H-x86_64-pc-linux-gnu/bin/../lib/gcc/nios2-elf/8.3.1/../../../../../H-x86_64-pc-linux-gnu/nios2-elf/lib/mno-hw-mul/libc.a(lib_a-makebuf.o)
 .debug_aranges
                0x0000000000000878       0x20 /home/efesxzc/intelFPGA_lite/19.1/nios2eds/bin/gnu/H-x86_64-pc-linux-gnu/bin/../lib/gcc/nios2-elf/8.3.1/../../../../../H-x86_64-pc-linux-gnu/nios2-elf/lib/mno-hw-mul/libc.a(lib_a-mallocr.o)
 .debug_aranges
                0x0000000000000898       0x20 /home/efesxzc/intelFPGA_lite/19.1/nios2eds/bin/gnu/H-x86_64-pc-linux-gnu/bin/../lib/gcc/nios2-elf/8.3.1/../../../../../H-x86_64-pc-linux-gnu/nios2-elf/lib/mno-hw-mul/libc.a(lib_a-memchr.o)
 .debug_aranges
                0x00000000000008b8       0xb0 /home/efesxzc/intelFPGA_lite/19.1/nios2eds/bin/gnu/H-x86_64-pc-linux-gnu/bin/../lib/gcc/nios2-elf/8.3.1/../../../../../H-x86_64-pc-linux-gnu/nios2-elf/lib/mno-hw-mul/libc.a(lib_a-mprec.o)
 .debug_aranges
                0x0000000000000968       0x20 /home/efesxzc/intelFPGA_lite/19.1/nios2eds/bin/gnu/H-x86_64-pc-linux-gnu/bin/../lib/gcc/nios2-elf/8.3.1/../../../../../H-x86_64-pc-linux-gnu/nios2-elf/lib/mno-hw-mul/libc.a(lib_a-reallocr.o)
 .debug_aranges
                0x0000000000000988       0x20 /home/efesxzc/intelFPGA_lite/19.1/nios2eds/bin/gnu/H-x86_64-pc-linux-gnu/bin/../lib/gcc/nios2-elf/8.3.1/../../../../../H-x86_64-pc-linux-gnu/nios2-elf/lib/mno-hw-mul/libc.a(lib_a-sbrkr.o)
 .debug_aranges
                0x00000000000009a8       0x40 /home/efesxzc/intelFPGA_lite/19.1/nios2eds/bin/gnu/H-x86_64-pc-linux-gnu/bin/../lib/gcc/nios2-elf/8.3.1/../../../../../H-x86_64-pc-linux-gnu/nios2-elf/lib/mno-hw-mul/libc.a(lib_a-stdio.o)
 .debug_aranges
                0x00000000000009e8       0x20 /home/efesxzc/intelFPGA_lite/19.1/nios2eds/bin/gnu/H-x86_64-pc-linux-gnu/bin/../lib/gcc/nios2-elf/8.3.1/../../../../../H-x86_64-pc-linux-gnu/nios2-elf/lib/mno-hw-mul/libc.a(lib_a-strchr.o)
 .debug_aranges
                0x0000000000000a08       0x20 /home/efesxzc/intelFPGA_lite/19.1/nios2eds/bin/gnu/H-x86_64-pc-linux-gnu/bin/../lib/gcc/nios2-elf/8.3.1/../../../../../H-x86_64-pc-linux-gnu/nios2-elf/lib/mno-hw-mul/libc.a(lib_a-strnlen.o)
 .debug_aranges
                0x0000000000000a28       0x28 /home/efesxzc/intelFPGA_lite/19.1/nios2eds/bin/gnu/H-x86_64-pc-linux-gnu/bin/../lib/gcc/nios2-elf/8.3.1/../../../../../H-x86_64-pc-linux-gnu/nios2-elf/lib/mno-hw-mul/libc.a(lib_a-svfiprintf.o)
 .debug_aranges
                0x0000000000000a50       0x40 /home/efesxzc/intelFPGA_lite/19.1/nios2eds/bin/gnu/H-x86_64-pc-linux-gnu/bin/../lib/gcc/nios2-elf/8.3.1/../../../../../H-x86_64-pc-linux-gnu/nios2-elf/lib/mno-hw-mul/libc.a(lib_a-vfiprintf.o)
 .debug_aranges
                0x0000000000000a90       0x20 /home/efesxzc/intelFPGA_lite/19.1/nios2eds/bin/gnu/H-x86_64-pc-linux-gnu/bin/../lib/gcc/nios2-elf/8.3.1/../../../../../H-x86_64-pc-linux-gnu/nios2-elf/lib/mno-hw-mul/libc.a(lib_a-writer.o)
 .debug_aranges
                0x0000000000000ab0       0x20 /home/efesxzc/intelFPGA_lite/19.1/nios2eds/bin/gnu/H-x86_64-pc-linux-gnu/bin/../lib/gcc/nios2-elf/8.3.1/../../../../../H-x86_64-pc-linux-gnu/nios2-elf/lib/mno-hw-mul/libc.a(closer.o)
 .debug_aranges
                0x0000000000000ad0       0x20 /home/efesxzc/intelFPGA_lite/19.1/nios2eds/bin/gnu/H-x86_64-pc-linux-gnu/bin/../lib/gcc/nios2-elf/8.3.1/../../../../../H-x86_64-pc-linux-gnu/nios2-elf/lib/mno-hw-mul/libc.a(lib_a-callocr.o)
 .debug_aranges
                0x0000000000000af0       0x28 /home/efesxzc/intelFPGA_lite/19.1/nios2eds/bin/gnu/H-x86_64-pc-linux-gnu/bin/../lib/gcc/nios2-elf/8.3.1/../../../../../H-x86_64-pc-linux-gnu/nios2-elf/lib/mno-hw-mul/libc.a(lib_a-fclose.o)
 .debug_aranges
                0x0000000000000b18       0x30 /home/efesxzc/intelFPGA_lite/19.1/nios2eds/bin/gnu/H-x86_64-pc-linux-gnu/bin/../lib/gcc/nios2-elf/8.3.1/../../../../../H-x86_64-pc-linux-gnu/nios2-elf/lib/mno-hw-mul/libc.a(lib_a-fputwc.o)
 .debug_aranges
                0x0000000000000b48       0x20 /home/efesxzc/intelFPGA_lite/19.1/nios2eds/bin/gnu/H-x86_64-pc-linux-gnu/bin/../lib/gcc/nios2-elf/8.3.1/../../../../../H-x86_64-pc-linux-gnu/nios2-elf/lib/mno-hw-mul/libc.a(lib_a-fstatr.o)
 .debug_aranges
                0x0000000000000b68       0x18 /home/efesxzc/intelFPGA_lite/19.1/nios2eds/bin/gnu/H-x86_64-pc-linux-gnu/bin/../lib/gcc/nios2-elf/8.3.1/../../../../../H-x86_64-pc-linux-gnu/nios2-elf/lib/mno-hw-mul/libc.a(lib_a-int_errno.o)
 .debug_aranges
                0x0000000000000b80       0x20 /home/efesxzc/intelFPGA_lite/19.1/nios2eds/bin/gnu/H-x86_64-pc-linux-gnu/bin/../lib/gcc/nios2-elf/8.3.1/../../../../../H-x86_64-pc-linux-gnu/nios2-elf/lib/mno-hw-mul/libc.a(lib_a-isattyr.o)
 .debug_aranges
                0x0000000000000ba0       0x30 /home/efesxzc/intelFPGA_lite/19.1/nios2eds/bin/gnu/H-x86_64-pc-linux-gnu/bin/../lib/gcc/nios2-elf/8.3.1/../../../../../H-x86_64-pc-linux-gnu/nios2-elf/lib/mno-hw-mul/libc.a(lib_a-locale.o)
 .debug_aranges
                0x0000000000000bd0       0x20 /home/efesxzc/intelFPGA_lite/19.1/nios2eds/bin/gnu/H-x86_64-pc-linux-gnu/bin/../lib/gcc/nios2-elf/8.3.1/../../../../../H-x86_64-pc-linux-gnu/nios2-elf/lib/mno-hw-mul/libc.a(lib_a-lseekr.o)
 .debug_aranges
                0x0000000000000bf0       0x28 /home/efesxzc/intelFPGA_lite/19.1/nios2eds/bin/gnu/H-x86_64-pc-linux-gnu/bin/../lib/gcc/nios2-elf/8.3.1/../../../../../H-x86_64-pc-linux-gnu/nios2-elf/lib/mno-hw-mul/libc.a(lib_a-mbtowc_r.o)
 .debug_aranges
                0x0000000000000c18       0x20 /home/efesxzc/intelFPGA_lite/19.1/nios2eds/bin/gnu/H-x86_64-pc-linux-gnu/bin/../lib/gcc/nios2-elf/8.3.1/../../../../../H-x86_64-pc-linux-gnu/nios2-elf/lib/mno-hw-mul/libc.a(lib_a-readr.o)
 .debug_aranges
                0x0000000000000c38       0x20 /home/efesxzc/intelFPGA_lite/19.1/nios2eds/bin/gnu/H-x86_64-pc-linux-gnu/bin/../lib/gcc/nios2-elf/8.3.1/../../../../../H-x86_64-pc-linux-gnu/nios2-elf/lib/mno-hw-mul/libc.a(lib_a-strcmp.o)
 .debug_aranges
                0x0000000000000c58       0x28 /home/efesxzc/intelFPGA_lite/19.1/nios2eds/bin/gnu/H-x86_64-pc-linux-gnu/bin/../lib/gcc/nios2-elf/8.3.1/../../../../../H-x86_64-pc-linux-gnu/nios2-elf/lib/mno-hw-mul/libc.a(lib_a-wbuf.o)
 .debug_aranges
                0x0000000000000c80       0x28 /home/efesxzc/intelFPGA_lite/19.1/nios2eds/bin/gnu/H-x86_64-pc-linux-gnu/bin/../lib/gcc/nios2-elf/8.3.1/../../../../../H-x86_64-pc-linux-gnu/nios2-elf/lib/mno-hw-mul/libc.a(lib_a-wcrtomb.o)
 .debug_aranges
                0x0000000000000ca8       0x28 /home/efesxzc/intelFPGA_lite/19.1/nios2eds/bin/gnu/H-x86_64-pc-linux-gnu/bin/../lib/gcc/nios2-elf/8.3.1/../../../../../H-x86_64-pc-linux-gnu/nios2-elf/lib/mno-hw-mul/libc.a(lib_a-wctomb_r.o)
 .debug_aranges
                0x0000000000000cd0       0x20 /home/efesxzc/intelFPGA_lite/19.1/nios2eds/bin/gnu/H-x86_64-pc-linux-gnu/bin/../lib/gcc/nios2-elf/8.3.1/mno-hw-mul/libgcc.a(_muldi3.o)
 .debug_aranges
                0x0000000000000cf0       0x20 /home/efesxzc/intelFPGA_lite/19.1/nios2eds/bin/gnu/H-x86_64-pc-linux-gnu/bin/../lib/gcc/nios2-elf/8.3.1/mno-hw-mul/libgcc.a(_udivdi3.o)
 .debug_aranges
                0x0000000000000d10       0x20 /home/efesxzc/intelFPGA_lite/19.1/nios2eds/bin/gnu/H-x86_64-pc-linux-gnu/bin/../lib/gcc/nios2-elf/8.3.1/mno-hw-mul/libgcc.a(_umoddi3.o)
 .debug_aranges
                0x0000000000000d30       0x20 /home/efesxzc/intelFPGA_lite/19.1/nios2eds/bin/gnu/H-x86_64-pc-linux-gnu/bin/../lib/gcc/nios2-elf/8.3.1/mno-hw-mul/libgcc.a(adddf3.o)
 .debug_aranges
                0x0000000000000d50       0x20 /home/efesxzc/intelFPGA_lite/19.1/nios2eds/bin/gnu/H-x86_64-pc-linux-gnu/bin/../lib/gcc/nios2-elf/8.3.1/mno-hw-mul/libgcc.a(divdf3.o)
 .debug_aranges
                0x0000000000000d70       0x20 /home/efesxzc/intelFPGA_lite/19.1/nios2eds/bin/gnu/H-x86_64-pc-linux-gnu/bin/../lib/gcc/nios2-elf/8.3.1/mno-hw-mul/libgcc.a(eqdf2.o)
 .debug_aranges
                0x0000000000000d90       0x20 /home/efesxzc/intelFPGA_lite/19.1/nios2eds/bin/gnu/H-x86_64-pc-linux-gnu/bin/../lib/gcc/nios2-elf/8.3.1/mno-hw-mul/libgcc.a(gedf2.o)
 .debug_aranges
                0x0000000000000db0       0x20 /home/efesxzc/intelFPGA_lite/19.1/nios2eds/bin/gnu/H-x86_64-pc-linux-gnu/bin/../lib/gcc/nios2-elf/8.3.1/mno-hw-mul/libgcc.a(ledf2.o)
 .debug_aranges
                0x0000000000000dd0       0x20 /home/efesxzc/intelFPGA_lite/19.1/nios2eds/bin/gnu/H-x86_64-pc-linux-gnu/bin/../lib/gcc/nios2-elf/8.3.1/mno-hw-mul/libgcc.a(muldf3.o)
 .debug_aranges
                0x0000000000000df0       0x20 /home/efesxzc/intelFPGA_lite/19.1/nios2eds/bin/gnu/H-x86_64-pc-linux-gnu/bin/../lib/gcc/nios2-elf/8.3.1/mno-hw-mul/libgcc.a(subdf3.o)
 .debug_aranges
                0x0000000000000e10       0x20 /home/efesxzc/intelFPGA_lite/19.1/nios2eds/bin/gnu/H-x86_64-pc-linux-gnu/bin/../lib/gcc/nios2-elf/8.3.1/mno-hw-mul/libgcc.a(unorddf2.o)
 .debug_aranges
                0x0000000000000e30       0x20 /home/efesxzc/intelFPGA_lite/19.1/nios2eds/bin/gnu/H-x86_64-pc-linux-gnu/bin/../lib/gcc/nios2-elf/8.3.1/mno-hw-mul/libgcc.a(fixdfsi.o)
 .debug_aranges
                0x0000000000000e50       0x20 /home/efesxzc/intelFPGA_lite/19.1/nios2eds/bin/gnu/H-x86_64-pc-linux-gnu/bin/../lib/gcc/nios2-elf/8.3.1/mno-hw-mul/libgcc.a(floatsidf.o)
 .debug_aranges
                0x0000000000000e70       0x20 /home/efesxzc/intelFPGA_lite/19.1/nios2eds/bin/gnu/H-x86_64-pc-linux-gnu/bin/../lib/gcc/nios2-elf/8.3.1/mno-hw-mul/libgcc.a(floatunsidf.o)
 .debug_aranges
                0x0000000000000e90       0x18 /home/efesxzc/intelFPGA_lite/19.1/nios2eds/bin/gnu/H-x86_64-pc-linux-gnu/bin/../lib/gcc/nios2-elf/8.3.1/mno-hw-mul/libgcc.a(_clz.o)
 .debug_aranges
                0x0000000000000ea8       0x20 /home/efesxzc/intelFPGA_lite/19.1/nios2eds/bin/gnu/H-x86_64-pc-linux-gnu/bin/../lib/gcc/nios2-elf/8.3.1/mno-hw-mul/libgcc.a(_clzsi2.o)
 .debug_aranges
                0x0000000000000ec8       0x20 ../civ_002_bsp//libhal_bsp.a(alt_close.o)
 .debug_aranges
                0x0000000000000ee8       0x20 ../civ_002_bsp//libhal_bsp.a(alt_dev.o)
 .debug_aranges
                0x0000000000000f08       0x18 ../civ_002_bsp//libhal_bsp.a(alt_errno.o)
 .debug_aranges
                0x0000000000000f20       0x20 ../civ_002_bsp//libhal_bsp.a(alt_fstat.o)
 .debug_aranges
                0x0000000000000f40       0x20 ../civ_002_bsp//libhal_bsp.a(alt_irq_handler.o)
 .debug_aranges
                0x0000000000000f60       0x18 ../civ_002_bsp//libhal_bsp.a(alt_irq_vars.o)
 .debug_aranges
                0x0000000000000f78       0x20 ../civ_002_bsp//libhal_bsp.a(alt_isatty.o)
 .debug_aranges
                0x0000000000000f98       0x20 ../civ_002_bsp//libhal_bsp.a(alt_load.o)
 .debug_aranges
                0x0000000000000fb8       0x20 ../civ_002_bsp//libhal_bsp.a(alt_lseek.o)
 .debug_aranges
                0x0000000000000fd8       0x20 ../civ_002_bsp//libhal_bsp.a(alt_main.o)
 .debug_aranges
                0x0000000000000ff8       0x20 ../civ_002_bsp//libhal_bsp.a(alt_malloc_lock.o)
 .debug_aranges
                0x0000000000001018       0x20 ../civ_002_bsp//libhal_bsp.a(alt_read.o)
 .debug_aranges
                0x0000000000001038       0x20 ../civ_002_bsp//libhal_bsp.a(alt_release_fd.o)
 .debug_aranges
                0x0000000000001058       0x20 ../civ_002_bsp//libhal_bsp.a(alt_sbrk.o)
 .debug_aranges
                0x0000000000001078       0x20 ../civ_002_bsp//libhal_bsp.a(alt_write.o)
 .debug_aranges
                0x0000000000001098       0x20 ../civ_002_bsp//libhal_bsp.a(alt_sys_init.o)
 .debug_aranges
                0x00000000000010b8       0x20 ../civ_002_bsp//libhal_bsp.a(altera_avalon_i2c.o)
 .debug_aranges
                0x00000000000010d8       0x20 ../civ_002_bsp//libhal_bsp.a(altera_avalon_spi.o)
 .debug_aranges
                0x00000000000010f8       0x20 ../civ_002_bsp//libhal_bsp.a(altera_avalon_timer_sc.o)
 .debug_aranges
                0x0000000000001118       0x20 ../civ_002_bsp//libhal_bsp.a(alt_busy_sleep.o)
 .debug_aranges
                0x0000000000001138       0x20 ../civ_002_bsp//libhal_bsp.a(alt_dcache_flush_all.o)
 .debug_aranges
                0x0000000000001158       0x20 ../civ_002_bsp//libhal_bsp.a(alt_dev_llist_insert.o)
 .debug_aranges
                0x0000000000001178       0x20 ../civ_002_bsp//libhal_bsp.a(alt_do_ctors.o)
 .debug_aranges
                0x0000000000001198       0x20 ../civ_002_bsp//libhal_bsp.a(alt_do_dtors.o)
 .debug_aranges
                0x00000000000011b8       0x20 ../civ_002_bsp//libhal_bsp.a(alt_find_dev.o)
 .debug_aranges
                0x00000000000011d8       0x20 ../civ_002_bsp//libhal_bsp.a(alt_icache_flush_all.o)
 .debug_aranges
                0x00000000000011f8       0x20 ../civ_002_bsp//libhal_bsp.a(alt_printf.o)
 .debug_aranges
                0x0000000000001218       0x20 ../civ_002_bsp//libhal_bsp.a(alt_putchar.o)
 .debug_aranges
                0x0000000000001238       0x20 ../civ_002_bsp//libhal_bsp.a(alt_tick.o)
 .debug_aranges
                0x0000000000001258       0x20 ../civ_002_bsp//libhal_bsp.a(altera_nios2_gen2_irq.o)
 .debug_aranges
                0x0000000000001278       0x20 /home/efesxzc/intelFPGA_lite/19.1/nios2eds/bin/gnu/H-x86_64-pc-linux-gnu/bin/../lib/gcc/nios2-elf/8.3.1/../../../../../H-x86_64-pc-linux-gnu/nios2-elf/lib/mno-hw-mul/libc.a(lib_a-atexit.o)
 .debug_aranges
                0x0000000000001298       0x20 /home/efesxzc/intelFPGA_lite/19.1/nios2eds/bin/gnu/H-x86_64-pc-linux-gnu/bin/../lib/gcc/nios2-elf/8.3.1/../../../../../H-x86_64-pc-linux-gnu/nios2-elf/lib/mno-hw-mul/libc.a(lib_a-exit.o)
 .debug_aranges
                0x00000000000012b8       0x28 /home/efesxzc/intelFPGA_lite/19.1/nios2eds/bin/gnu/H-x86_64-pc-linux-gnu/bin/../lib/gcc/nios2-elf/8.3.1/../../../../../H-x86_64-pc-linux-gnu/nios2-elf/lib/mno-hw-mul/libc.a(lib_a-putchar.o)
 .debug_aranges
                0x00000000000012e0       0x20 /home/efesxzc/intelFPGA_lite/19.1/nios2eds/bin/gnu/H-x86_64-pc-linux-gnu/bin/../lib/gcc/nios2-elf/8.3.1/../../../../../H-x86_64-pc-linux-gnu/nios2-elf/lib/mno-hw-mul/libc.a(lib_a-__atexit.o)
 .debug_aranges
                0x0000000000001300       0x20 /home/efesxzc/intelFPGA_lite/19.1/nios2eds/bin/gnu/H-x86_64-pc-linux-gnu/bin/../lib/gcc/nios2-elf/8.3.1/../../../../../H-x86_64-pc-linux-gnu/nios2-elf/lib/mno-hw-mul/libc.a(lib_a-__call_atexit.o)
 .debug_aranges
                0x0000000000001320       0x28 /home/efesxzc/intelFPGA_lite/19.1/nios2eds/bin/gnu/H-x86_64-pc-linux-gnu/bin/../lib/gcc/nios2-elf/8.3.1/../../../../../H-x86_64-pc-linux-gnu/nios2-elf/lib/mno-hw-mul/libc.a(lib_a-putc.o)
 .debug_aranges
                0x0000000000001348       0x20 ../civ_002_bsp//libhal_bsp.a(alt_exit.o)

.debug_pubnames
 *(.debug_pubnames)

.debug_info     0x0000000000000000    0x701b7
 *(.debug_info .gnu.linkonce.wi.*)
 .debug_info    0x0000000000000000       0x22 ../civ_002_bsp//obj/HAL/src/crt0.o
 .debug_info    0x0000000000000022      0xdaa obj/default/./CLI-Commands.o
 .debug_info    0x0000000000000dcc      0xea9 obj/default/./at24c08.o
 .debug_info    0x0000000000001c75      0xe7b obj/default/./http_server.o
 .debug_info    0x0000000000002af0      0xc89 obj/default/./lm75.o
 .debug_info    0x0000000000003779      0xfe2 obj/default/./main.o
 .debug_info    0x000000000000475b      0xbca obj/default/./telnet_server.o
 .debug_info    0x0000000000005325      0x938 obj/default/FreeRTOS/FreeRTOS-Kernel/croutine.o
 .debug_info    0x0000000000005c5d      0xfe0 obj/default/FreeRTOS/FreeRTOS-Kernel/event_groups.o
 .debug_info    0x0000000000006c3d      0xb9d obj/default/FreeRTOS/FreeRTOS-Kernel/list.o
 .debug_info    0x00000000000077da      0xd2f obj/default/FreeRTOS/FreeRTOS-Kernel/portable/GCC/NiosII/port.o
 .debug_info    0x0000000000008509      0x9c3 obj/default/FreeRTOS/FreeRTOS-Kernel/portable/portTimer.o
 .debug_info    0x0000000000008ecc     0x185e obj/default/FreeRTOS/FreeRTOS-Kernel/queue.o
 .debug_info    0x000000000000a72a     0x1529 obj/default/FreeRTOS/FreeRTOS-Kernel/stream_buffer.o
 .debug_info    0x000000000000bc53     0x2438 obj/default/FreeRTOS/FreeRTOS-Kernel/tasks.o
 .debug_info    0x000000000000e08b      0x944 obj/default/FreeRTOS/FreeRTOS-Kernel/timers.o
 .debug_info    0x000000000000e9cf      0xcb9 obj/default/FreeRTOS/FreeRTOS-Plus-CLI/FreeRTOS_CLI.o
 .debug_info    0x000000000000f688     0x1470 obj/default/FreeRTOS/FreeRTOS-Plus-TCP/FreeRTOS_ARP.o
 .debug_info    0x0000000000010af8      0xc14 obj/default/FreeRTOS/FreeRTOS-Plus-TCP/FreeRTOS_DHCP.o
 .debug_info    0x000000000001170c      0xc14 obj/default/FreeRTOS/FreeRTOS-Plus-TCP/FreeRTOS_DNS.o
 .debug_info    0x0000000000012320     0x2d17 obj/default/FreeRTOS/FreeRTOS-Plus-TCP/FreeRTOS_IP.o
 .debug_info    0x0000000000015037     0x35a3 obj/default/FreeRTOS/FreeRTOS-Plus-TCP/FreeRTOS_Sockets.o
 .debug_info    0x00000000000185da      0xfd6 obj/default/FreeRTOS/FreeRTOS-Plus-TCP/FreeRTOS_Stream_Buffer.o
 .debug_info    0x00000000000195b0     0x3215 obj/default/FreeRTOS/FreeRTOS-Plus-TCP/FreeRTOS_TCP_IP.o
 .debug_info    0x000000000001c7c5     0x142c obj/default/FreeRTOS/FreeRTOS-Plus-TCP/FreeRTOS_TCP_WIN.o
 .debug_info    0x000000000001dbf1     0x18c9 obj/default/FreeRTOS/FreeRTOS-Plus-TCP/FreeRTOS_UDP_IP.o
 .debug_info    0x000000000001f4ba      0xfda obj/default/FreeRTOS/FreeRTOS-Plus-TCP/portable/NetworkInterface/ENC28J60/NetworkInterface.o
 .debug_info    0x0000000000020494      0xe7e obj/default/FreeRTOS/FreeRTOS-Plus-TCP/portable/NetworkInterface/ENC28J60/enc.o
 .debug_info    0x0000000000021312      0xd14 obj/default/FreeRTOS/FreeRTOS-Kernel/portable/MemMang/heap_4.o
 .debug_info    0x0000000000022026      0xf3b obj/default/FreeRTOS/FreeRTOS-Plus-TCP/portable/BufferManagement/BufferAllocation_1.o
 .debug_info    0x0000000000022f61       0x22 obj/default/FreeRTOS/FreeRTOS-Kernel/portable/GCC/NiosII/port_asm.o
 .debug_info    0x0000000000022f83      0x368 /home/efesxzc/intelFPGA_lite/19.1/nios2eds/bin/gnu/H-x86_64-pc-linux-gnu/bin/../lib/gcc/nios2-elf/8.3.1/mno-hw-mul/libgcc.a(lib2-divmod.o)
 .debug_info    0x00000000000232eb       0xcb /home/efesxzc/intelFPGA_lite/19.1/nios2eds/bin/gnu/H-x86_64-pc-linux-gnu/bin/../lib/gcc/nios2-elf/8.3.1/mno-hw-mul/libgcc.a(lib2-mul.o)
 .debug_info    0x00000000000233b6      0x9cb /home/efesxzc/intelFPGA_lite/19.1/nios2eds/bin/gnu/H-x86_64-pc-linux-gnu/bin/../lib/gcc/nios2-elf/8.3.1/../../../../../H-x86_64-pc-linux-gnu/nios2-elf/lib/mno-hw-mul/libc.a(lib_a-memcmp.o)
 .debug_info    0x0000000000023d81      0xf44 /home/efesxzc/intelFPGA_lite/19.1/nios2eds/bin/gnu/H-x86_64-pc-linux-gnu/bin/../lib/gcc/nios2-elf/8.3.1/../../../../../H-x86_64-pc-linux-gnu/nios2-elf/lib/mno-hw-mul/libc.a(lib_a-memcpy.o)
 .debug_info    0x0000000000024cc5      0xf3a /home/efesxzc/intelFPGA_lite/19.1/nios2eds/bin/gnu/H-x86_64-pc-linux-gnu/bin/../lib/gcc/nios2-elf/8.3.1/../../../../../H-x86_64-pc-linux-gnu/nios2-elf/lib/mno-hw-mul/libc.a(lib_a-memmove.o)
 .debug_info    0x0000000000025bff      0xf2a /home/efesxzc/intelFPGA_lite/19.1/nios2eds/bin/gnu/H-x86_64-pc-linux-gnu/bin/../lib/gcc/nios2-elf/8.3.1/../../../../../H-x86_64-pc-linux-gnu/nios2-elf/lib/mno-hw-mul/libc.a(lib_a-memset.o)
 .debug_info    0x0000000000026b29      0xc44 /home/efesxzc/intelFPGA_lite/19.1/nios2eds/bin/gnu/H-x86_64-pc-linux-gnu/bin/../lib/gcc/nios2-elf/8.3.1/../../../../../H-x86_64-pc-linux-gnu/nios2-elf/lib/mno-hw-mul/libc.a(lib_a-printf.o)
 .debug_info    0x000000000002776d      0xcea /home/efesxzc/intelFPGA_lite/19.1/nios2eds/bin/gnu/H-x86_64-pc-linux-gnu/bin/../lib/gcc/nios2-elf/8.3.1/../../../../../H-x86_64-pc-linux-gnu/nios2-elf/lib/mno-hw-mul/libc.a(lib_a-puts.o)
 .debug_info    0x0000000000028457      0x97b /home/efesxzc/intelFPGA_lite/19.1/nios2eds/bin/gnu/H-x86_64-pc-linux-gnu/bin/../lib/gcc/nios2-elf/8.3.1/../../../../../H-x86_64-pc-linux-gnu/nios2-elf/lib/mno-hw-mul/libc.a(lib_a-rand.o)
 .debug_info    0x0000000000028dd2      0xd66 /home/efesxzc/intelFPGA_lite/19.1/nios2eds/bin/gnu/H-x86_64-pc-linux-gnu/bin/../lib/gcc/nios2-elf/8.3.1/../../../../../H-x86_64-pc-linux-gnu/nios2-elf/lib/mno-hw-mul/libc.a(lib_a-snprintf.o)
 .debug_info    0x0000000000029b38      0xcc0 /home/efesxzc/intelFPGA_lite/19.1/nios2eds/bin/gnu/H-x86_64-pc-linux-gnu/bin/../lib/gcc/nios2-elf/8.3.1/../../../../../H-x86_64-pc-linux-gnu/nios2-elf/lib/mno-hw-mul/libc.a(lib_a-sprintf.o)
 .debug_info    0x000000000002a7f8      0x9b7 /home/efesxzc/intelFPGA_lite/19.1/nios2eds/bin/gnu/H-x86_64-pc-linux-gnu/bin/../lib/gcc/nios2-elf/8.3.1/../../../../../H-x86_64-pc-linux-gnu/nios2-elf/lib/mno-hw-mul/libc.a(lib_a-strcpy.o)
 .debug_info    0x000000000002b1af      0x97c /home/efesxzc/intelFPGA_lite/19.1/nios2eds/bin/gnu/H-x86_64-pc-linux-gnu/bin/../lib/gcc/nios2-elf/8.3.1/../../../../../H-x86_64-pc-linux-gnu/nios2-elf/lib/mno-hw-mul/libc.a(lib_a-strlen.o)
 .debug_info    0x000000000002bb2b      0x99e /home/efesxzc/intelFPGA_lite/19.1/nios2eds/bin/gnu/H-x86_64-pc-linux-gnu/bin/../lib/gcc/nios2-elf/8.3.1/../../../../../H-x86_64-pc-linux-gnu/nios2-elf/lib/mno-hw-mul/libc.a(lib_a-strncmp.o)
 .debug_info    0x000000000002c4c9      0x9d9 /home/efesxzc/intelFPGA_lite/19.1/nios2eds/bin/gnu/H-x86_64-pc-linux-gnu/bin/../lib/gcc/nios2-elf/8.3.1/../../../../../H-x86_64-pc-linux-gnu/nios2-elf/lib/mno-hw-mul/libc.a(lib_a-strncpy.o)
 .debug_info    0x000000000002cea2     0x102d /home/efesxzc/intelFPGA_lite/19.1/nios2eds/bin/gnu/H-x86_64-pc-linux-gnu/bin/../lib/gcc/nios2-elf/8.3.1/../../../../../H-x86_64-pc-linux-gnu/nios2-elf/lib/mno-hw-mul/libc.a(lib_a-strstr.o)
 .debug_info    0x000000000002decf     0x11f7 /home/efesxzc/intelFPGA_lite/19.1/nios2eds/bin/gnu/H-x86_64-pc-linux-gnu/bin/../lib/gcc/nios2-elf/8.3.1/../../../../../H-x86_64-pc-linux-gnu/nios2-elf/lib/mno-hw-mul/libc.a(lib_a-strtol.o)
 .debug_info    0x000000000002f0c6     0x1e67 /home/efesxzc/intelFPGA_lite/19.1/nios2eds/bin/gnu/H-x86_64-pc-linux-gnu/bin/../lib/gcc/nios2-elf/8.3.1/../../../../../H-x86_64-pc-linux-gnu/nios2-elf/lib/mno-hw-mul/libc.a(lib_a-svfprintf.o)
 .debug_info    0x0000000000030f2d     0x2051 /home/efesxzc/intelFPGA_lite/19.1/nios2eds/bin/gnu/H-x86_64-pc-linux-gnu/bin/../lib/gcc/nios2-elf/8.3.1/../../../../../H-x86_64-pc-linux-gnu/nios2-elf/lib/mno-hw-mul/libc.a(lib_a-vfprintf.o)
 .debug_info    0x0000000000032f7e      0xbfc /home/efesxzc/intelFPGA_lite/19.1/nios2eds/bin/gnu/H-x86_64-pc-linux-gnu/bin/../lib/gcc/nios2-elf/8.3.1/../../../../../H-x86_64-pc-linux-gnu/nios2-elf/lib/mno-hw-mul/libc.a(lib_a-wsetup.o)
 .debug_info    0x0000000000033b7a      0xeb4 /home/efesxzc/intelFPGA_lite/19.1/nios2eds/bin/gnu/H-x86_64-pc-linux-gnu/bin/../lib/gcc/nios2-elf/8.3.1/../../../../../H-x86_64-pc-linux-gnu/nios2-elf/lib/mno-hw-mul/libc.a(lib_a-ctype_.o)
 .debug_info    0x0000000000034a2e     0x1a06 /home/efesxzc/intelFPGA_lite/19.1/nios2eds/bin/gnu/H-x86_64-pc-linux-gnu/bin/../lib/gcc/nios2-elf/8.3.1/../../../../../H-x86_64-pc-linux-gnu/nios2-elf/lib/mno-hw-mul/libc.a(lib_a-dtoa.o)
 .debug_info    0x0000000000036434      0xd7e /home/efesxzc/intelFPGA_lite/19.1/nios2eds/bin/gnu/H-x86_64-pc-linux-gnu/bin/../lib/gcc/nios2-elf/8.3.1/../../../../../H-x86_64-pc-linux-gnu/nios2-elf/lib/mno-hw-mul/libc.a(lib_a-fflush.o)
 .debug_info    0x00000000000371b2     0x10c2 /home/efesxzc/intelFPGA_lite/19.1/nios2eds/bin/gnu/H-x86_64-pc-linux-gnu/bin/../lib/gcc/nios2-elf/8.3.1/../../../../../H-x86_64-pc-linux-gnu/nios2-elf/lib/mno-hw-mul/libc.a(lib_a-findfp.o)
 .debug_info    0x0000000000038274      0xda3 /home/efesxzc/intelFPGA_lite/19.1/nios2eds/bin/gnu/H-x86_64-pc-linux-gnu/bin/../lib/gcc/nios2-elf/8.3.1/../../../../../H-x86_64-pc-linux-gnu/nios2-elf/lib/mno-hw-mul/libc.a(lib_a-freer.o)
 .debug_info    0x0000000000039017      0xeee /home/efesxzc/intelFPGA_lite/19.1/nios2eds/bin/gnu/H-x86_64-pc-linux-gnu/bin/../lib/gcc/nios2-elf/8.3.1/../../../../../H-x86_64-pc-linux-gnu/nios2-elf/lib/mno-hw-mul/libc.a(lib_a-fvwrite.o)
 .debug_info    0x0000000000039f05      0xcad /home/efesxzc/intelFPGA_lite/19.1/nios2eds/bin/gnu/H-x86_64-pc-linux-gnu/bin/../lib/gcc/nios2-elf/8.3.1/../../../../../H-x86_64-pc-linux-gnu/nios2-elf/lib/mno-hw-mul/libc.a(lib_a-fwalk.o)
 .debug_info    0x000000000003abb2      0x933 /home/efesxzc/intelFPGA_lite/19.1/nios2eds/bin/gnu/H-x86_64-pc-linux-gnu/bin/../lib/gcc/nios2-elf/8.3.1/../../../../../H-x86_64-pc-linux-gnu/nios2-elf/lib/mno-hw-mul/libc.a(lib_a-impure.o)
 .debug_info    0x000000000003b4e5      0xf46 /home/efesxzc/intelFPGA_lite/19.1/nios2eds/bin/gnu/H-x86_64-pc-linux-gnu/bin/../lib/gcc/nios2-elf/8.3.1/../../../../../H-x86_64-pc-linux-gnu/nios2-elf/lib/mno-hw-mul/libc.a(lib_a-localeconv.o)
 .debug_info    0x000000000003c42b      0xf87 /home/efesxzc/intelFPGA_lite/19.1/nios2eds/bin/gnu/H-x86_64-pc-linux-gnu/bin/../lib/gcc/nios2-elf/8.3.1/../../../../../H-x86_64-pc-linux-gnu/nios2-elf/lib/mno-hw-mul/libc.a(lib_a-makebuf.o)
 .debug_info    0x000000000003d3b2      0xf22 /home/efesxzc/intelFPGA_lite/19.1/nios2eds/bin/gnu/H-x86_64-pc-linux-gnu/bin/../lib/gcc/nios2-elf/8.3.1/../../../../../H-x86_64-pc-linux-gnu/nios2-elf/lib/mno-hw-mul/libc.a(lib_a-mallocr.o)
 .debug_info    0x000000000003e2d4      0x9ec /home/efesxzc/intelFPGA_lite/19.1/nios2eds/bin/gnu/H-x86_64-pc-linux-gnu/bin/../lib/gcc/nios2-elf/8.3.1/../../../../../H-x86_64-pc-linux-gnu/nios2-elf/lib/mno-hw-mul/libc.a(lib_a-memchr.o)
 .debug_info    0x000000000003ecc0     0x205d /home/efesxzc/intelFPGA_lite/19.1/nios2eds/bin/gnu/H-x86_64-pc-linux-gnu/bin/../lib/gcc/nios2-elf/8.3.1/../../../../../H-x86_64-pc-linux-gnu/nios2-elf/lib/mno-hw-mul/libc.a(lib_a-mprec.o)
 .debug_info    0x0000000000040d1d      0xf4c /home/efesxzc/intelFPGA_lite/19.1/nios2eds/bin/gnu/H-x86_64-pc-linux-gnu/bin/../lib/gcc/nios2-elf/8.3.1/../../../../../H-x86_64-pc-linux-gnu/nios2-elf/lib/mno-hw-mul/libc.a(lib_a-reallocr.o)
 .debug_info    0x0000000000041c69      0xa03 /home/efesxzc/intelFPGA_lite/19.1/nios2eds/bin/gnu/H-x86_64-pc-linux-gnu/bin/../lib/gcc/nios2-elf/8.3.1/../../../../../H-x86_64-pc-linux-gnu/nios2-elf/lib/mno-hw-mul/libc.a(lib_a-sbrkr.o)
 .debug_info    0x000000000004266c      0xe6a /home/efesxzc/intelFPGA_lite/19.1/nios2eds/bin/gnu/H-x86_64-pc-linux-gnu/bin/../lib/gcc/nios2-elf/8.3.1/../../../../../H-x86_64-pc-linux-gnu/nios2-elf/lib/mno-hw-mul/libc.a(lib_a-stdio.o)
 .debug_info    0x00000000000434d6      0x9c2 /home/efesxzc/intelFPGA_lite/19.1/nios2eds/bin/gnu/H-x86_64-pc-linux-gnu/bin/../lib/gcc/nios2-elf/8.3.1/../../../../../H-x86_64-pc-linux-gnu/nios2-elf/lib/mno-hw-mul/libc.a(lib_a-strchr.o)
 .debug_info    0x0000000000043e98      0x970 /home/efesxzc/intelFPGA_lite/19.1/nios2eds/bin/gnu/H-x86_64-pc-linux-gnu/bin/../lib/gcc/nios2-elf/8.3.1/../../../../../H-x86_64-pc-linux-gnu/nios2-elf/lib/mno-hw-mul/libc.a(lib_a-strnlen.o)
 .debug_info    0x0000000000044808     0x18ce /home/efesxzc/intelFPGA_lite/19.1/nios2eds/bin/gnu/H-x86_64-pc-linux-gnu/bin/../lib/gcc/nios2-elf/8.3.1/../../../../../H-x86_64-pc-linux-gnu/nios2-elf/lib/mno-hw-mul/libc.a(lib_a-svfiprintf.o)
 .debug_info    0x00000000000460d6     0x1f7c /home/efesxzc/intelFPGA_lite/19.1/nios2eds/bin/gnu/H-x86_64-pc-linux-gnu/bin/../lib/gcc/nios2-elf/8.3.1/../../../../../H-x86_64-pc-linux-gnu/nios2-elf/lib/mno-hw-mul/libc.a(lib_a-vfiprintf.o)
 .debug_info    0x0000000000048052      0xa35 /home/efesxzc/intelFPGA_lite/19.1/nios2eds/bin/gnu/H-x86_64-pc-linux-gnu/bin/../lib/gcc/nios2-elf/8.3.1/../../../../../H-x86_64-pc-linux-gnu/nios2-elf/lib/mno-hw-mul/libc.a(lib_a-writer.o)
 .debug_info    0x0000000000048a87      0x9e0 /home/efesxzc/intelFPGA_lite/19.1/nios2eds/bin/gnu/H-x86_64-pc-linux-gnu/bin/../lib/gcc/nios2-elf/8.3.1/../../../../../H-x86_64-pc-linux-gnu/nios2-elf/lib/mno-hw-mul/libc.a(closer.o)
 .debug_info    0x0000000000049467      0xc2a /home/efesxzc/intelFPGA_lite/19.1/nios2eds/bin/gnu/H-x86_64-pc-linux-gnu/bin/../lib/gcc/nios2-elf/8.3.1/../../../../../H-x86_64-pc-linux-gnu/nios2-elf/lib/mno-hw-mul/libc.a(lib_a-callocr.o)
 .debug_info    0x000000000004a091      0xcde /home/efesxzc/intelFPGA_lite/19.1/nios2eds/bin/gnu/H-x86_64-pc-linux-gnu/bin/../lib/gcc/nios2-elf/8.3.1/../../../../../H-x86_64-pc-linux-gnu/nios2-elf/lib/mno-hw-mul/libc.a(lib_a-fclose.o)
 .debug_info    0x000000000004ad6f      0xdec /home/efesxzc/intelFPGA_lite/19.1/nios2eds/bin/gnu/H-x86_64-pc-linux-gnu/bin/../lib/gcc/nios2-elf/8.3.1/../../../../../H-x86_64-pc-linux-gnu/nios2-elf/lib/mno-hw-mul/libc.a(lib_a-fputwc.o)
 .debug_info    0x000000000004bb5b      0xc2c /home/efesxzc/intelFPGA_lite/19.1/nios2eds/bin/gnu/H-x86_64-pc-linux-gnu/bin/../lib/gcc/nios2-elf/8.3.1/../../../../../H-x86_64-pc-linux-gnu/nios2-elf/lib/mno-hw-mul/libc.a(lib_a-fstatr.o)
 .debug_info    0x000000000004c787      0x929 /home/efesxzc/intelFPGA_lite/19.1/nios2eds/bin/gnu/H-x86_64-pc-linux-gnu/bin/../lib/gcc/nios2-elf/8.3.1/../../../../../H-x86_64-pc-linux-gnu/nios2-elf/lib/mno-hw-mul/libc.a(lib_a-int_errno.o)
 .debug_info    0x000000000004d0b0      0x9e0 /home/efesxzc/intelFPGA_lite/19.1/nios2eds/bin/gnu/H-x86_64-pc-linux-gnu/bin/../lib/gcc/nios2-elf/8.3.1/../../../../../H-x86_64-pc-linux-gnu/nios2-elf/lib/mno-hw-mul/libc.a(lib_a-isattyr.o)
 .debug_info    0x000000000004da90     0x10c4 /home/efesxzc/intelFPGA_lite/19.1/nios2eds/bin/gnu/H-x86_64-pc-linux-gnu/bin/../lib/gcc/nios2-elf/8.3.1/../../../../../H-x86_64-pc-linux-gnu/nios2-elf/lib/mno-hw-mul/libc.a(lib_a-locale.o)
 .debug_info    0x000000000004eb54      0xa16 /home/efesxzc/intelFPGA_lite/19.1/nios2eds/bin/gnu/H-x86_64-pc-linux-gnu/bin/../lib/gcc/nios2-elf/8.3.1/../../../../../H-x86_64-pc-linux-gnu/nios2-elf/lib/mno-hw-mul/libc.a(lib_a-lseekr.o)
 .debug_info    0x000000000004f56a     0x103e /home/efesxzc/intelFPGA_lite/19.1/nios2eds/bin/gnu/H-x86_64-pc-linux-gnu/bin/../lib/gcc/nios2-elf/8.3.1/../../../../../H-x86_64-pc-linux-gnu/nios2-elf/lib/mno-hw-mul/libc.a(lib_a-mbtowc_r.o)
 .debug_info    0x00000000000505a8      0xa2e /home/efesxzc/intelFPGA_lite/19.1/nios2eds/bin/gnu/H-x86_64-pc-linux-gnu/bin/../lib/gcc/nios2-elf/8.3.1/../../../../../H-x86_64-pc-linux-gnu/nios2-elf/lib/mno-hw-mul/libc.a(lib_a-readr.o)
 .debug_info    0x0000000000050fd6      0x980 /home/efesxzc/intelFPGA_lite/19.1/nios2eds/bin/gnu/H-x86_64-pc-linux-gnu/bin/../lib/gcc/nios2-elf/8.3.1/../../../../../H-x86_64-pc-linux-gnu/nios2-elf/lib/mno-hw-mul/libc.a(lib_a-strcmp.o)
 .debug_info    0x0000000000051956      0xc99 /home/efesxzc/intelFPGA_lite/19.1/nios2eds/bin/gnu/H-x86_64-pc-linux-gnu/bin/../lib/gcc/nios2-elf/8.3.1/../../../../../H-x86_64-pc-linux-gnu/nios2-elf/lib/mno-hw-mul/libc.a(lib_a-wbuf.o)
 .debug_info    0x00000000000525ef     0x10ac /home/efesxzc/intelFPGA_lite/19.1/nios2eds/bin/gnu/H-x86_64-pc-linux-gnu/bin/../lib/gcc/nios2-elf/8.3.1/../../../../../H-x86_64-pc-linux-gnu/nios2-elf/lib/mno-hw-mul/libc.a(lib_a-wcrtomb.o)
 .debug_info    0x000000000005369b      0xffa /home/efesxzc/intelFPGA_lite/19.1/nios2eds/bin/gnu/H-x86_64-pc-linux-gnu/bin/../lib/gcc/nios2-elf/8.3.1/../../../../../H-x86_64-pc-linux-gnu/nios2-elf/lib/mno-hw-mul/libc.a(lib_a-wctomb_r.o)
 .debug_info    0x0000000000054695      0x317 /home/efesxzc/intelFPGA_lite/19.1/nios2eds/bin/gnu/H-x86_64-pc-linux-gnu/bin/../lib/gcc/nios2-elf/8.3.1/mno-hw-mul/libgcc.a(_muldi3.o)
 .debug_info    0x00000000000549ac      0x926 /home/efesxzc/intelFPGA_lite/19.1/nios2eds/bin/gnu/H-x86_64-pc-linux-gnu/bin/../lib/gcc/nios2-elf/8.3.1/mno-hw-mul/libgcc.a(_udivdi3.o)
 .debug_info    0x00000000000552d2      0x998 /home/efesxzc/intelFPGA_lite/19.1/nios2eds/bin/gnu/H-x86_64-pc-linux-gnu/bin/../lib/gcc/nios2-elf/8.3.1/mno-hw-mul/libgcc.a(_umoddi3.o)
 .debug_info    0x0000000000055c6a      0x641 /home/efesxzc/intelFPGA_lite/19.1/nios2eds/bin/gnu/H-x86_64-pc-linux-gnu/bin/../lib/gcc/nios2-elf/8.3.1/mno-hw-mul/libgcc.a(adddf3.o)
 .debug_info    0x00000000000562ab      0x824 /home/efesxzc/intelFPGA_lite/19.1/nios2eds/bin/gnu/H-x86_64-pc-linux-gnu/bin/../lib/gcc/nios2-elf/8.3.1/mno-hw-mul/libgcc.a(divdf3.o)
 .debug_info    0x0000000000056acf      0x29f /home/efesxzc/intelFPGA_lite/19.1/nios2eds/bin/gnu/H-x86_64-pc-linux-gnu/bin/../lib/gcc/nios2-elf/8.3.1/mno-hw-mul/libgcc.a(eqdf2.o)
 .debug_info    0x0000000000056d6e      0x2a7 /home/efesxzc/intelFPGA_lite/19.1/nios2eds/bin/gnu/H-x86_64-pc-linux-gnu/bin/../lib/gcc/nios2-elf/8.3.1/mno-hw-mul/libgcc.a(gedf2.o)
 .debug_info    0x0000000000057015      0x2a7 /home/efesxzc/intelFPGA_lite/19.1/nios2eds/bin/gnu/H-x86_64-pc-linux-gnu/bin/../lib/gcc/nios2-elf/8.3.1/mno-hw-mul/libgcc.a(ledf2.o)
 .debug_info    0x00000000000572bc      0x850 /home/efesxzc/intelFPGA_lite/19.1/nios2eds/bin/gnu/H-x86_64-pc-linux-gnu/bin/../lib/gcc/nios2-elf/8.3.1/mno-hw-mul/libgcc.a(muldf3.o)
 .debug_info    0x0000000000057b0c      0x641 /home/efesxzc/intelFPGA_lite/19.1/nios2eds/bin/gnu/H-x86_64-pc-linux-gnu/bin/../lib/gcc/nios2-elf/8.3.1/mno-hw-mul/libgcc.a(subdf3.o)
 .debug_info    0x000000000005814d      0x277 /home/efesxzc/intelFPGA_lite/19.1/nios2eds/bin/gnu/H-x86_64-pc-linux-gnu/bin/../lib/gcc/nios2-elf/8.3.1/mno-hw-mul/libgcc.a(unorddf2.o)
 .debug_info    0x00000000000583c4      0x222 /home/efesxzc/intelFPGA_lite/19.1/nios2eds/bin/gnu/H-x86_64-pc-linux-gnu/bin/../lib/gcc/nios2-elf/8.3.1/mno-hw-mul/libgcc.a(fixdfsi.o)
 .debug_info    0x00000000000585e6      0x2e4 /home/efesxzc/intelFPGA_lite/19.1/nios2eds/bin/gnu/H-x86_64-pc-linux-gnu/bin/../lib/gcc/nios2-elf/8.3.1/mno-hw-mul/libgcc.a(floatsidf.o)
 .debug_info    0x00000000000588ca      0x2d7 /home/efesxzc/intelFPGA_lite/19.1/nios2eds/bin/gnu/H-x86_64-pc-linux-gnu/bin/../lib/gcc/nios2-elf/8.3.1/mno-hw-mul/libgcc.a(floatunsidf.o)
 .debug_info    0x0000000000058ba1      0x179 /home/efesxzc/intelFPGA_lite/19.1/nios2eds/bin/gnu/H-x86_64-pc-linux-gnu/bin/../lib/gcc/nios2-elf/8.3.1/mno-hw-mul/libgcc.a(_clz.o)
 .debug_info    0x0000000000058d1a      0x1ea /home/efesxzc/intelFPGA_lite/19.1/nios2eds/bin/gnu/H-x86_64-pc-linux-gnu/bin/../lib/gcc/nios2-elf/8.3.1/mno-hw-mul/libgcc.a(_clzsi2.o)
 .debug_info    0x0000000000058f04      0xc5d ../civ_002_bsp//libhal_bsp.a(alt_close.o)
 .debug_info    0x0000000000059b61      0xe91 ../civ_002_bsp//libhal_bsp.a(alt_dev.o)
 .debug_info    0x000000000005a9f2      0x96f ../civ_002_bsp//libhal_bsp.a(alt_errno.o)
 .debug_info    0x000000000005b361      0xe34 ../civ_002_bsp//libhal_bsp.a(alt_fstat.o)
 .debug_info    0x000000000005c195      0xa52 ../civ_002_bsp//libhal_bsp.a(alt_irq_handler.o)
 .debug_info    0x000000000005cbe7       0x8b ../civ_002_bsp//libhal_bsp.a(alt_irq_vars.o)
 .debug_info    0x000000000005cc72      0xe37 ../civ_002_bsp//libhal_bsp.a(alt_isatty.o)
 .debug_info    0x000000000005daa9      0x9f2 ../civ_002_bsp//libhal_bsp.a(alt_load.o)
 .debug_info    0x000000000005e49b      0xc92 ../civ_002_bsp//libhal_bsp.a(alt_lseek.o)
 .debug_info    0x000000000005f12d      0xe72 ../civ_002_bsp//libhal_bsp.a(alt_main.o)
 .debug_info    0x000000000005ff9f      0x959 ../civ_002_bsp//libhal_bsp.a(alt_malloc_lock.o)
 .debug_info    0x00000000000608f8      0xead ../civ_002_bsp//libhal_bsp.a(alt_read.o)
 .debug_info    0x00000000000617a5      0x2e9 ../civ_002_bsp//libhal_bsp.a(alt_release_fd.o)
 .debug_info    0x0000000000061a8e      0xa72 ../civ_002_bsp//libhal_bsp.a(alt_sbrk.o)
 .debug_info    0x0000000000062500      0xeb4 ../civ_002_bsp//libhal_bsp.a(alt_write.o)
 .debug_info    0x00000000000633b4      0xb37 ../civ_002_bsp//libhal_bsp.a(alt_sys_init.o)
 .debug_info    0x0000000000063eeb     0x1a95 ../civ_002_bsp//libhal_bsp.a(altera_avalon_i2c.o)
 .debug_info    0x0000000000065980      0x19f ../civ_002_bsp//libhal_bsp.a(altera_avalon_spi.o)
 .debug_info    0x0000000000065b1f      0xb20 ../civ_002_bsp//libhal_bsp.a(altera_avalon_timer_sc.o)
 .debug_info    0x000000000006663f      0x96f ../civ_002_bsp//libhal_bsp.a(alt_busy_sleep.o)
 .debug_info    0x0000000000066fae      0x931 ../civ_002_bsp//libhal_bsp.a(alt_dcache_flush_all.o)
 .debug_info    0x00000000000678df      0xa6b ../civ_002_bsp//libhal_bsp.a(alt_dev_llist_insert.o)
 .debug_info    0x000000000006834a       0x88 ../civ_002_bsp//libhal_bsp.a(alt_do_ctors.o)
 .debug_info    0x00000000000683d2       0x88 ../civ_002_bsp//libhal_bsp.a(alt_do_dtors.o)
 .debug_info    0x000000000006845a      0xbaf ../civ_002_bsp//libhal_bsp.a(alt_find_dev.o)
 .debug_info    0x0000000000069009      0x931 ../civ_002_bsp//libhal_bsp.a(alt_icache_flush_all.o)
 .debug_info    0x000000000006993a      0x125 ../civ_002_bsp//libhal_bsp.a(alt_printf.o)
 .debug_info    0x0000000000069a5f      0x937 ../civ_002_bsp//libhal_bsp.a(alt_putchar.o)
 .debug_info    0x000000000006a396      0xb8b ../civ_002_bsp//libhal_bsp.a(alt_tick.o)
 .debug_info    0x000000000006af21      0x952 ../civ_002_bsp//libhal_bsp.a(altera_nios2_gen2_irq.o)
 .debug_info    0x000000000006b873      0x99e /home/efesxzc/intelFPGA_lite/19.1/nios2eds/bin/gnu/H-x86_64-pc-linux-gnu/bin/../lib/gcc/nios2-elf/8.3.1/../../../../../H-x86_64-pc-linux-gnu/nios2-elf/lib/mno-hw-mul/libc.a(lib_a-atexit.o)
 .debug_info    0x000000000006c211      0x9d9 /home/efesxzc/intelFPGA_lite/19.1/nios2eds/bin/gnu/H-x86_64-pc-linux-gnu/bin/../lib/gcc/nios2-elf/8.3.1/../../../../../H-x86_64-pc-linux-gnu/nios2-elf/lib/mno-hw-mul/libc.a(lib_a-exit.o)
 .debug_info    0x000000000006cbea      0xbbf /home/efesxzc/intelFPGA_lite/19.1/nios2eds/bin/gnu/H-x86_64-pc-linux-gnu/bin/../lib/gcc/nios2-elf/8.3.1/../../../../../H-x86_64-pc-linux-gnu/nios2-elf/lib/mno-hw-mul/libc.a(lib_a-putchar.o)
 .debug_info    0x000000000006d7a9      0x9d8 /home/efesxzc/intelFPGA_lite/19.1/nios2eds/bin/gnu/H-x86_64-pc-linux-gnu/bin/../lib/gcc/nios2-elf/8.3.1/../../../../../H-x86_64-pc-linux-gnu/nios2-elf/lib/mno-hw-mul/libc.a(lib_a-__atexit.o)
 .debug_info    0x000000000006e181      0xa14 /home/efesxzc/intelFPGA_lite/19.1/nios2eds/bin/gnu/H-x86_64-pc-linux-gnu/bin/../lib/gcc/nios2-elf/8.3.1/../../../../../H-x86_64-pc-linux-gnu/nios2-elf/lib/mno-hw-mul/libc.a(lib_a-__call_atexit.o)
 .debug_info    0x000000000006eb95      0xc71 /home/efesxzc/intelFPGA_lite/19.1/nios2eds/bin/gnu/H-x86_64-pc-linux-gnu/bin/../lib/gcc/nios2-elf/8.3.1/../../../../../H-x86_64-pc-linux-gnu/nios2-elf/lib/mno-hw-mul/libc.a(lib_a-putc.o)
 .debug_info    0x000000000006f806      0x9b1 ../civ_002_bsp//libhal_bsp.a(alt_exit.o)

.debug_abbrev   0x0000000000000000    0x147d7
 *(.debug_abbrev)
 .debug_abbrev  0x0000000000000000       0x12 ../civ_002_bsp//obj/HAL/src/crt0.o
 .debug_abbrev  0x0000000000000012      0x2a3 obj/default/./CLI-Commands.o
 .debug_abbrev  0x00000000000002b5      0x269 obj/default/./at24c08.o
 .debug_abbrev  0x000000000000051e      0x2b8 obj/default/./http_server.o
 .debug_abbrev  0x00000000000007d6      0x270 obj/default/./lm75.o
 .debug_abbrev  0x0000000000000a46      0x336 obj/default/./main.o
 .debug_abbrev  0x0000000000000d7c      0x25e obj/default/./telnet_server.o
 .debug_abbrev  0x0000000000000fda      0x1c7 obj/default/FreeRTOS/FreeRTOS-Kernel/croutine.o
 .debug_abbrev  0x00000000000011a1      0x2e9 obj/default/FreeRTOS/FreeRTOS-Kernel/event_groups.o
 .debug_abbrev  0x000000000000148a      0x248 obj/default/FreeRTOS/FreeRTOS-Kernel/list.o
 .debug_abbrev  0x00000000000016d2      0x386 obj/default/FreeRTOS/FreeRTOS-Kernel/portable/GCC/NiosII/port.o
 .debug_abbrev  0x0000000000001a58      0x214 obj/default/FreeRTOS/FreeRTOS-Kernel/portable/portTimer.o
 .debug_abbrev  0x0000000000001c6c      0x2ef obj/default/FreeRTOS/FreeRTOS-Kernel/queue.o
 .debug_abbrev  0x0000000000001f5b      0x322 obj/default/FreeRTOS/FreeRTOS-Kernel/stream_buffer.o
 .debug_abbrev  0x000000000000227d      0x3c3 obj/default/FreeRTOS/FreeRTOS-Kernel/tasks.o
 .debug_abbrev  0x0000000000002640      0x1c7 obj/default/FreeRTOS/FreeRTOS-Kernel/timers.o
 .debug_abbrev  0x0000000000002807      0x29f obj/default/FreeRTOS/FreeRTOS-Plus-CLI/FreeRTOS_CLI.o
 .debug_abbrev  0x0000000000002aa6      0x35e obj/default/FreeRTOS/FreeRTOS-Plus-TCP/FreeRTOS_ARP.o
 .debug_abbrev  0x0000000000002e04      0x1df obj/default/FreeRTOS/FreeRTOS-Plus-TCP/FreeRTOS_DHCP.o
 .debug_abbrev  0x0000000000002fe3      0x1df obj/default/FreeRTOS/FreeRTOS-Plus-TCP/FreeRTOS_DNS.o
 .debug_abbrev  0x00000000000031c2      0x423 obj/default/FreeRTOS/FreeRTOS-Plus-TCP/FreeRTOS_IP.o
 .debug_abbrev  0x00000000000035e5      0x463 obj/default/FreeRTOS/FreeRTOS-Plus-TCP/FreeRTOS_Sockets.o
 .debug_abbrev  0x0000000000003a48      0x286 obj/default/FreeRTOS/FreeRTOS-Plus-TCP/FreeRTOS_Stream_Buffer.o
 .debug_abbrev  0x0000000000003cce      0x40a obj/default/FreeRTOS/FreeRTOS-Plus-TCP/FreeRTOS_TCP_IP.o
 .debug_abbrev  0x00000000000040d8      0x336 obj/default/FreeRTOS/FreeRTOS-Plus-TCP/FreeRTOS_TCP_WIN.o
 .debug_abbrev  0x000000000000440e      0x322 obj/default/FreeRTOS/FreeRTOS-Plus-TCP/FreeRTOS_UDP_IP.o
 .debug_abbrev  0x0000000000004730      0x33a obj/default/FreeRTOS/FreeRTOS-Plus-TCP/portable/NetworkInterface/ENC28J60/NetworkInterface.o
 .debug_abbrev  0x0000000000004a6a      0x2b7 obj/default/FreeRTOS/FreeRTOS-Plus-TCP/portable/NetworkInterface/ENC28J60/enc.o
 .debug_abbrev  0x0000000000004d21      0x2de obj/default/FreeRTOS/FreeRTOS-Kernel/portable/MemMang/heap_4.o
 .debug_abbrev  0x0000000000004fff      0x316 obj/default/FreeRTOS/FreeRTOS-Plus-TCP/portable/BufferManagement/BufferAllocation_1.o
 .debug_abbrev  0x0000000000005315       0x12 obj/default/FreeRTOS/FreeRTOS-Kernel/portable/GCC/NiosII/port_asm.o
 .debug_abbrev  0x0000000000005327      0x103 /home/efesxzc/intelFPGA_lite/19.1/nios2eds/bin/gnu/H-x86_64-pc-linux-gnu/bin/../lib/gcc/nios2-elf/8.3.1/mno-hw-mul/libgcc.a(lib2-divmod.o)
 .debug_abbrev  0x000000000000542a       0x7d /home/efesxzc/intelFPGA_lite/19.1/nios2eds/bin/gnu/H-x86_64-pc-linux-gnu/bin/../lib/gcc/nios2-elf/8.3.1/mno-hw-mul/libgcc.a(lib2-mul.o)
 .debug_abbrev  0x00000000000054a7      0x1fe /home/efesxzc/intelFPGA_lite/19.1/nios2eds/bin/gnu/H-x86_64-pc-linux-gnu/bin/../lib/gcc/nios2-elf/8.3.1/../../../../../H-x86_64-pc-linux-gnu/nios2-elf/lib/mno-hw-mul/libc.a(lib_a-memcmp.o)
 .debug_abbrev  0x00000000000056a5      0x223 /home/efesxzc/intelFPGA_lite/19.1/nios2eds/bin/gnu/H-x86_64-pc-linux-gnu/bin/../lib/gcc/nios2-elf/8.3.1/../../../../../H-x86_64-pc-linux-gnu/nios2-elf/lib/mno-hw-mul/libc.a(lib_a-memcpy.o)
 .debug_abbrev  0x00000000000058c8      0x21c /home/efesxzc/intelFPGA_lite/19.1/nios2eds/bin/gnu/H-x86_64-pc-linux-gnu/bin/../lib/gcc/nios2-elf/8.3.1/../../../../../H-x86_64-pc-linux-gnu/nios2-elf/lib/mno-hw-mul/libc.a(lib_a-memmove.o)
 .debug_abbrev  0x0000000000005ae4      0x228 /home/efesxzc/intelFPGA_lite/19.1/nios2eds/bin/gnu/H-x86_64-pc-linux-gnu/bin/../lib/gcc/nios2-elf/8.3.1/../../../../../H-x86_64-pc-linux-gnu/nios2-elf/lib/mno-hw-mul/libc.a(lib_a-memset.o)
 .debug_abbrev  0x0000000000005d0c      0x29d /home/efesxzc/intelFPGA_lite/19.1/nios2eds/bin/gnu/H-x86_64-pc-linux-gnu/bin/../lib/gcc/nios2-elf/8.3.1/../../../../../H-x86_64-pc-linux-gnu/nios2-elf/lib/mno-hw-mul/libc.a(lib_a-printf.o)
 .debug_abbrev  0x0000000000005fa9      0x2ba /home/efesxzc/intelFPGA_lite/19.1/nios2eds/bin/gnu/H-x86_64-pc-linux-gnu/bin/../lib/gcc/nios2-elf/8.3.1/../../../../../H-x86_64-pc-linux-gnu/nios2-elf/lib/mno-hw-mul/libc.a(lib_a-puts.o)
 .debug_abbrev  0x0000000000006263      0x232 /home/efesxzc/intelFPGA_lite/19.1/nios2eds/bin/gnu/H-x86_64-pc-linux-gnu/bin/../lib/gcc/nios2-elf/8.3.1/../../../../../H-x86_64-pc-linux-gnu/nios2-elf/lib/mno-hw-mul/libc.a(lib_a-rand.o)
 .debug_abbrev  0x0000000000006495      0x2bc /home/efesxzc/intelFPGA_lite/19.1/nios2eds/bin/gnu/H-x86_64-pc-linux-gnu/bin/../lib/gcc/nios2-elf/8.3.1/../../../../../H-x86_64-pc-linux-gnu/nios2-elf/lib/mno-hw-mul/libc.a(lib_a-snprintf.o)
 .debug_abbrev  0x0000000000006751      0x296 /home/efesxzc/intelFPGA_lite/19.1/nios2eds/bin/gnu/H-x86_64-pc-linux-gnu/bin/../lib/gcc/nios2-elf/8.3.1/../../../../../H-x86_64-pc-linux-gnu/nios2-elf/lib/mno-hw-mul/libc.a(lib_a-sprintf.o)
 .debug_abbrev  0x00000000000069e7      0x20d /home/efesxzc/intelFPGA_lite/19.1/nios2eds/bin/gnu/H-x86_64-pc-linux-gnu/bin/../lib/gcc/nios2-elf/8.3.1/../../../../../H-x86_64-pc-linux-gnu/nios2-elf/lib/mno-hw-mul/libc.a(lib_a-strcpy.o)
 .debug_abbrev  0x0000000000006bf4      0x1f9 /home/efesxzc/intelFPGA_lite/19.1/nios2eds/bin/gnu/H-x86_64-pc-linux-gnu/bin/../lib/gcc/nios2-elf/8.3.1/../../../../../H-x86_64-pc-linux-gnu/nios2-elf/lib/mno-hw-mul/libc.a(lib_a-strlen.o)
 .debug_abbrev  0x0000000000006ded      0x1f9 /home/efesxzc/intelFPGA_lite/19.1/nios2eds/bin/gnu/H-x86_64-pc-linux-gnu/bin/../lib/gcc/nios2-elf/8.3.1/../../../../../H-x86_64-pc-linux-gnu/nios2-elf/lib/mno-hw-mul/libc.a(lib_a-strncmp.o)
 .debug_abbrev  0x0000000000006fe6      0x223 /home/efesxzc/intelFPGA_lite/19.1/nios2eds/bin/gnu/H-x86_64-pc-linux-gnu/bin/../lib/gcc/nios2-elf/8.3.1/../../../../../H-x86_64-pc-linux-gnu/nios2-elf/lib/mno-hw-mul/libc.a(lib_a-strncpy.o)
 .debug_abbrev  0x0000000000007209      0x3b4 /home/efesxzc/intelFPGA_lite/19.1/nios2eds/bin/gnu/H-x86_64-pc-linux-gnu/bin/../lib/gcc/nios2-elf/8.3.1/../../../../../H-x86_64-pc-linux-gnu/nios2-elf/lib/mno-hw-mul/libc.a(lib_a-strstr.o)
 .debug_abbrev  0x00000000000075bd      0x2db /home/efesxzc/intelFPGA_lite/19.1/nios2eds/bin/gnu/H-x86_64-pc-linux-gnu/bin/../lib/gcc/nios2-elf/8.3.1/../../../../../H-x86_64-pc-linux-gnu/nios2-elf/lib/mno-hw-mul/libc.a(lib_a-strtol.o)
 .debug_abbrev  0x0000000000007898      0x413 /home/efesxzc/intelFPGA_lite/19.1/nios2eds/bin/gnu/H-x86_64-pc-linux-gnu/bin/../lib/gcc/nios2-elf/8.3.1/../../../../../H-x86_64-pc-linux-gnu/nios2-elf/lib/mno-hw-mul/libc.a(lib_a-svfprintf.o)
 .debug_abbrev  0x0000000000007cab      0x464 /home/efesxzc/intelFPGA_lite/19.1/nios2eds/bin/gnu/H-x86_64-pc-linux-gnu/bin/../lib/gcc/nios2-elf/8.3.1/../../../../../H-x86_64-pc-linux-gnu/nios2-elf/lib/mno-hw-mul/libc.a(lib_a-vfprintf.o)
 .debug_abbrev  0x000000000000810f      0x294 /home/efesxzc/intelFPGA_lite/19.1/nios2eds/bin/gnu/H-x86_64-pc-linux-gnu/bin/../lib/gcc/nios2-elf/8.3.1/../../../../../H-x86_64-pc-linux-gnu/nios2-elf/lib/mno-hw-mul/libc.a(lib_a-wsetup.o)
 .debug_abbrev  0x00000000000083a3      0x1d6 /home/efesxzc/intelFPGA_lite/19.1/nios2eds/bin/gnu/H-x86_64-pc-linux-gnu/bin/../lib/gcc/nios2-elf/8.3.1/../../../../../H-x86_64-pc-linux-gnu/nios2-elf/lib/mno-hw-mul/libc.a(lib_a-ctype_.o)
 .debug_abbrev  0x0000000000008579      0x342 /home/efesxzc/intelFPGA_lite/19.1/nios2eds/bin/gnu/H-x86_64-pc-linux-gnu/bin/../lib/gcc/nios2-elf/8.3.1/../../../../../H-x86_64-pc-linux-gnu/nios2-elf/lib/mno-hw-mul/libc.a(lib_a-dtoa.o)
 .debug_abbrev  0x00000000000088bb      0x322 /home/efesxzc/intelFPGA_lite/19.1/nios2eds/bin/gnu/H-x86_64-pc-linux-gnu/bin/../lib/gcc/nios2-elf/8.3.1/../../../../../H-x86_64-pc-linux-gnu/nios2-elf/lib/mno-hw-mul/libc.a(lib_a-fflush.o)
 .debug_abbrev  0x0000000000008bdd      0x475 /home/efesxzc/intelFPGA_lite/19.1/nios2eds/bin/gnu/H-x86_64-pc-linux-gnu/bin/../lib/gcc/nios2-elf/8.3.1/../../../../../H-x86_64-pc-linux-gnu/nios2-elf/lib/mno-hw-mul/libc.a(lib_a-findfp.o)
 .debug_abbrev  0x0000000000009052      0x2c9 /home/efesxzc/intelFPGA_lite/19.1/nios2eds/bin/gnu/H-x86_64-pc-linux-gnu/bin/../lib/gcc/nios2-elf/8.3.1/../../../../../H-x86_64-pc-linux-gnu/nios2-elf/lib/mno-hw-mul/libc.a(lib_a-freer.o)
 .debug_abbrev  0x000000000000931b      0x2cd /home/efesxzc/intelFPGA_lite/19.1/nios2eds/bin/gnu/H-x86_64-pc-linux-gnu/bin/../lib/gcc/nios2-elf/8.3.1/../../../../../H-x86_64-pc-linux-gnu/nios2-elf/lib/mno-hw-mul/libc.a(lib_a-fvwrite.o)
 .debug_abbrev  0x00000000000095e8      0x25f /home/efesxzc/intelFPGA_lite/19.1/nios2eds/bin/gnu/H-x86_64-pc-linux-gnu/bin/../lib/gcc/nios2-elf/8.3.1/../../../../../H-x86_64-pc-linux-gnu/nios2-elf/lib/mno-hw-mul/libc.a(lib_a-fwalk.o)
 .debug_abbrev  0x0000000000009847      0x1c9 /home/efesxzc/intelFPGA_lite/19.1/nios2eds/bin/gnu/H-x86_64-pc-linux-gnu/bin/../lib/gcc/nios2-elf/8.3.1/../../../../../H-x86_64-pc-linux-gnu/nios2-elf/lib/mno-hw-mul/libc.a(lib_a-impure.o)
 .debug_abbrev  0x0000000000009a10      0x288 /home/efesxzc/intelFPGA_lite/19.1/nios2eds/bin/gnu/H-x86_64-pc-linux-gnu/bin/../lib/gcc/nios2-elf/8.3.1/../../../../../H-x86_64-pc-linux-gnu/nios2-elf/lib/mno-hw-mul/libc.a(lib_a-localeconv.o)
 .debug_abbrev  0x0000000000009c98      0x349 /home/efesxzc/intelFPGA_lite/19.1/nios2eds/bin/gnu/H-x86_64-pc-linux-gnu/bin/../lib/gcc/nios2-elf/8.3.1/../../../../../H-x86_64-pc-linux-gnu/nios2-elf/lib/mno-hw-mul/libc.a(lib_a-makebuf.o)
 .debug_abbrev  0x0000000000009fe1      0x321 /home/efesxzc/intelFPGA_lite/19.1/nios2eds/bin/gnu/H-x86_64-pc-linux-gnu/bin/../lib/gcc/nios2-elf/8.3.1/../../../../../H-x86_64-pc-linux-gnu/nios2-elf/lib/mno-hw-mul/libc.a(lib_a-mallocr.o)
 .debug_abbrev  0x000000000000a302      0x226 /home/efesxzc/intelFPGA_lite/19.1/nios2eds/bin/gnu/H-x86_64-pc-linux-gnu/bin/../lib/gcc/nios2-elf/8.3.1/../../../../../H-x86_64-pc-linux-gnu/nios2-elf/lib/mno-hw-mul/libc.a(lib_a-memchr.o)
 .debug_abbrev  0x000000000000a528      0x48a /home/efesxzc/intelFPGA_lite/19.1/nios2eds/bin/gnu/H-x86_64-pc-linux-gnu/bin/../lib/gcc/nios2-elf/8.3.1/../../../../../H-x86_64-pc-linux-gnu/nios2-elf/lib/mno-hw-mul/libc.a(lib_a-mprec.o)
 .debug_abbrev  0x000000000000a9b2      0x28d /home/efesxzc/intelFPGA_lite/19.1/nios2eds/bin/gnu/H-x86_64-pc-linux-gnu/bin/../lib/gcc/nios2-elf/8.3.1/../../../../../H-x86_64-pc-linux-gnu/nios2-elf/lib/mno-hw-mul/libc.a(lib_a-reallocr.o)
 .debug_abbrev  0x000000000000ac3f      0x261 /home/efesxzc/intelFPGA_lite/19.1/nios2eds/bin/gnu/H-x86_64-pc-linux-gnu/bin/../lib/gcc/nios2-elf/8.3.1/../../../../../H-x86_64-pc-linux-gnu/nios2-elf/lib/mno-hw-mul/libc.a(lib_a-sbrkr.o)
 .debug_abbrev  0x000000000000aea0      0x2be /home/efesxzc/intelFPGA_lite/19.1/nios2eds/bin/gnu/H-x86_64-pc-linux-gnu/bin/../lib/gcc/nios2-elf/8.3.1/../../../../../H-x86_64-pc-linux-gnu/nios2-elf/lib/mno-hw-mul/libc.a(lib_a-stdio.o)
 .debug_abbrev  0x000000000000b15e      0x20d /home/efesxzc/intelFPGA_lite/19.1/nios2eds/bin/gnu/H-x86_64-pc-linux-gnu/bin/../lib/gcc/nios2-elf/8.3.1/../../../../../H-x86_64-pc-linux-gnu/nios2-elf/lib/mno-hw-mul/libc.a(lib_a-strchr.o)
 .debug_abbrev  0x000000000000b36b      0x1f7 /home/efesxzc/intelFPGA_lite/19.1/nios2eds/bin/gnu/H-x86_64-pc-linux-gnu/bin/../lib/gcc/nios2-elf/8.3.1/../../../../../H-x86_64-pc-linux-gnu/nios2-elf/lib/mno-hw-mul/libc.a(lib_a-strnlen.o)
 .debug_abbrev  0x000000000000b562      0x361 /home/efesxzc/intelFPGA_lite/19.1/nios2eds/bin/gnu/H-x86_64-pc-linux-gnu/bin/../lib/gcc/nios2-elf/8.3.1/../../../../../H-x86_64-pc-linux-gnu/nios2-elf/lib/mno-hw-mul/libc.a(lib_a-svfiprintf.o)
 .debug_abbrev  0x000000000000b8c3      0x48a /home/efesxzc/intelFPGA_lite/19.1/nios2eds/bin/gnu/H-x86_64-pc-linux-gnu/bin/../lib/gcc/nios2-elf/8.3.1/../../../../../H-x86_64-pc-linux-gnu/nios2-elf/lib/mno-hw-mul/libc.a(lib_a-vfiprintf.o)
 .debug_abbrev  0x000000000000bd4d      0x23b /home/efesxzc/intelFPGA_lite/19.1/nios2eds/bin/gnu/H-x86_64-pc-linux-gnu/bin/../lib/gcc/nios2-elf/8.3.1/../../../../../H-x86_64-pc-linux-gnu/nios2-elf/lib/mno-hw-mul/libc.a(lib_a-writer.o)
 .debug_abbrev  0x000000000000bf88      0x236 /home/efesxzc/intelFPGA_lite/19.1/nios2eds/bin/gnu/H-x86_64-pc-linux-gnu/bin/../lib/gcc/nios2-elf/8.3.1/../../../../../H-x86_64-pc-linux-gnu/nios2-elf/lib/mno-hw-mul/libc.a(closer.o)
 .debug_abbrev  0x000000000000c1be      0x286 /home/efesxzc/intelFPGA_lite/19.1/nios2eds/bin/gnu/H-x86_64-pc-linux-gnu/bin/../lib/gcc/nios2-elf/8.3.1/../../../../../H-x86_64-pc-linux-gnu/nios2-elf/lib/mno-hw-mul/libc.a(lib_a-callocr.o)
 .debug_abbrev  0x000000000000c444      0x338 /home/efesxzc/intelFPGA_lite/19.1/nios2eds/bin/gnu/H-x86_64-pc-linux-gnu/bin/../lib/gcc/nios2-elf/8.3.1/../../../../../H-x86_64-pc-linux-gnu/nios2-elf/lib/mno-hw-mul/libc.a(lib_a-fclose.o)
 .debug_abbrev  0x000000000000c77c      0x34a /home/efesxzc/intelFPGA_lite/19.1/nios2eds/bin/gnu/H-x86_64-pc-linux-gnu/bin/../lib/gcc/nios2-elf/8.3.1/../../../../../H-x86_64-pc-linux-gnu/nios2-elf/lib/mno-hw-mul/libc.a(lib_a-fputwc.o)
 .debug_abbrev  0x000000000000cac6      0x24a /home/efesxzc/intelFPGA_lite/19.1/nios2eds/bin/gnu/H-x86_64-pc-linux-gnu/bin/../lib/gcc/nios2-elf/8.3.1/../../../../../H-x86_64-pc-linux-gnu/nios2-elf/lib/mno-hw-mul/libc.a(lib_a-fstatr.o)
 .debug_abbrev  0x000000000000cd10      0x1d5 /home/efesxzc/intelFPGA_lite/19.1/nios2eds/bin/gnu/H-x86_64-pc-linux-gnu/bin/../lib/gcc/nios2-elf/8.3.1/../../../../../H-x86_64-pc-linux-gnu/nios2-elf/lib/mno-hw-mul/libc.a(lib_a-int_errno.o)
 .debug_abbrev  0x000000000000cee5      0x236 /home/efesxzc/intelFPGA_lite/19.1/nios2eds/bin/gnu/H-x86_64-pc-linux-gnu/bin/../lib/gcc/nios2-elf/8.3.1/../../../../../H-x86_64-pc-linux-gnu/nios2-elf/lib/mno-hw-mul/libc.a(lib_a-isattyr.o)
 .debug_abbrev  0x000000000000d11b      0x2ec /home/efesxzc/intelFPGA_lite/19.1/nios2eds/bin/gnu/H-x86_64-pc-linux-gnu/bin/../lib/gcc/nios2-elf/8.3.1/../../../../../H-x86_64-pc-linux-gnu/nios2-elf/lib/mno-hw-mul/libc.a(lib_a-locale.o)
 .debug_abbrev  0x000000000000d407      0x24a /home/efesxzc/intelFPGA_lite/19.1/nios2eds/bin/gnu/H-x86_64-pc-linux-gnu/bin/../lib/gcc/nios2-elf/8.3.1/../../../../../H-x86_64-pc-linux-gnu/nios2-elf/lib/mno-hw-mul/libc.a(lib_a-lseekr.o)
 .debug_abbrev  0x000000000000d651      0x292 /home/efesxzc/intelFPGA_lite/19.1/nios2eds/bin/gnu/H-x86_64-pc-linux-gnu/bin/../lib/gcc/nios2-elf/8.3.1/../../../../../H-x86_64-pc-linux-gnu/nios2-elf/lib/mno-hw-mul/libc.a(lib_a-mbtowc_r.o)
 .debug_abbrev  0x000000000000d8e3      0x236 /home/efesxzc/intelFPGA_lite/19.1/nios2eds/bin/gnu/H-x86_64-pc-linux-gnu/bin/../lib/gcc/nios2-elf/8.3.1/../../../../../H-x86_64-pc-linux-gnu/nios2-elf/lib/mno-hw-mul/libc.a(lib_a-readr.o)
 .debug_abbrev  0x000000000000db19      0x1f9 /home/efesxzc/intelFPGA_lite/19.1/nios2eds/bin/gnu/H-x86_64-pc-linux-gnu/bin/../lib/gcc/nios2-elf/8.3.1/../../../../../H-x86_64-pc-linux-gnu/nios2-elf/lib/mno-hw-mul/libc.a(lib_a-strcmp.o)
 .debug_abbrev  0x000000000000dd12      0x2d4 /home/efesxzc/intelFPGA_lite/19.1/nios2eds/bin/gnu/H-x86_64-pc-linux-gnu/bin/../lib/gcc/nios2-elf/8.3.1/../../../../../H-x86_64-pc-linux-gnu/nios2-elf/lib/mno-hw-mul/libc.a(lib_a-wbuf.o)
 .debug_abbrev  0x000000000000dfe6      0x264 /home/efesxzc/intelFPGA_lite/19.1/nios2eds/bin/gnu/H-x86_64-pc-linux-gnu/bin/../lib/gcc/nios2-elf/8.3.1/../../../../../H-x86_64-pc-linux-gnu/nios2-elf/lib/mno-hw-mul/libc.a(lib_a-wcrtomb.o)
 .debug_abbrev  0x000000000000e24a      0x27a /home/efesxzc/intelFPGA_lite/19.1/nios2eds/bin/gnu/H-x86_64-pc-linux-gnu/bin/../lib/gcc/nios2-elf/8.3.1/../../../../../H-x86_64-pc-linux-gnu/nios2-elf/lib/mno-hw-mul/libc.a(lib_a-wctomb_r.o)
 .debug_abbrev  0x000000000000e4c4      0x157 /home/efesxzc/intelFPGA_lite/19.1/nios2eds/bin/gnu/H-x86_64-pc-linux-gnu/bin/../lib/gcc/nios2-elf/8.3.1/mno-hw-mul/libgcc.a(_muldi3.o)
 .debug_abbrev  0x000000000000e61b      0x1cb /home/efesxzc/intelFPGA_lite/19.1/nios2eds/bin/gnu/H-x86_64-pc-linux-gnu/bin/../lib/gcc/nios2-elf/8.3.1/mno-hw-mul/libgcc.a(_udivdi3.o)
 .debug_abbrev  0x000000000000e7e6      0x200 /home/efesxzc/intelFPGA_lite/19.1/nios2eds/bin/gnu/H-x86_64-pc-linux-gnu/bin/../lib/gcc/nios2-elf/8.3.1/mno-hw-mul/libgcc.a(_umoddi3.o)
 .debug_abbrev  0x000000000000e9e6      0x1a8 /home/efesxzc/intelFPGA_lite/19.1/nios2eds/bin/gnu/H-x86_64-pc-linux-gnu/bin/../lib/gcc/nios2-elf/8.3.1/mno-hw-mul/libgcc.a(adddf3.o)
 .debug_abbrev  0x000000000000eb8e      0x199 /home/efesxzc/intelFPGA_lite/19.1/nios2eds/bin/gnu/H-x86_64-pc-linux-gnu/bin/../lib/gcc/nios2-elf/8.3.1/mno-hw-mul/libgcc.a(divdf3.o)
 .debug_abbrev  0x000000000000ed27      0x17b /home/efesxzc/intelFPGA_lite/19.1/nios2eds/bin/gnu/H-x86_64-pc-linux-gnu/bin/../lib/gcc/nios2-elf/8.3.1/mno-hw-mul/libgcc.a(eqdf2.o)
 .debug_abbrev  0x000000000000eea2      0x18e /home/efesxzc/intelFPGA_lite/19.1/nios2eds/bin/gnu/H-x86_64-pc-linux-gnu/bin/../lib/gcc/nios2-elf/8.3.1/mno-hw-mul/libgcc.a(gedf2.o)
 .debug_abbrev  0x000000000000f030      0x18e /home/efesxzc/intelFPGA_lite/19.1/nios2eds/bin/gnu/H-x86_64-pc-linux-gnu/bin/../lib/gcc/nios2-elf/8.3.1/mno-hw-mul/libgcc.a(ledf2.o)
 .debug_abbrev  0x000000000000f1be      0x1a0 /home/efesxzc/intelFPGA_lite/19.1/nios2eds/bin/gnu/H-x86_64-pc-linux-gnu/bin/../lib/gcc/nios2-elf/8.3.1/mno-hw-mul/libgcc.a(muldf3.o)
 .debug_abbrev  0x000000000000f35e      0x1a8 /home/efesxzc/intelFPGA_lite/19.1/nios2eds/bin/gnu/H-x86_64-pc-linux-gnu/bin/../lib/gcc/nios2-elf/8.3.1/mno-hw-mul/libgcc.a(subdf3.o)
 .debug_abbrev  0x000000000000f506      0x17b /home/efesxzc/intelFPGA_lite/19.1/nios2eds/bin/gnu/H-x86_64-pc-linux-gnu/bin/../lib/gcc/nios2-elf/8.3.1/mno-hw-mul/libgcc.a(unorddf2.o)
 .debug_abbrev  0x000000000000f681      0x17f /home/efesxzc/intelFPGA_lite/19.1/nios2eds/bin/gnu/H-x86_64-pc-linux-gnu/bin/../lib/gcc/nios2-elf/8.3.1/mno-hw-mul/libgcc.a(fixdfsi.o)
 .debug_abbrev  0x000000000000f800      0x18a /home/efesxzc/intelFPGA_lite/19.1/nios2eds/bin/gnu/H-x86_64-pc-linux-gnu/bin/../lib/gcc/nios2-elf/8.3.1/mno-hw-mul/libgcc.a(floatsidf.o)
 .debug_abbrev  0x000000000000f98a      0x18a /home/efesxzc/intelFPGA_lite/19.1/nios2eds/bin/gnu/H-x86_64-pc-linux-gnu/bin/../lib/gcc/nios2-elf/8.3.1/mno-hw-mul/libgcc.a(floatunsidf.o)
 .debug_abbrev  0x000000000000fb14       0xa8 /home/efesxzc/intelFPGA_lite/19.1/nios2eds/bin/gnu/H-x86_64-pc-linux-gnu/bin/../lib/gcc/nios2-elf/8.3.1/mno-hw-mul/libgcc.a(_clz.o)
 .debug_abbrev  0x000000000000fbbc       0xf7 /home/efesxzc/intelFPGA_lite/19.1/nios2eds/bin/gnu/H-x86_64-pc-linux-gnu/bin/../lib/gcc/nios2-elf/8.3.1/mno-hw-mul/libgcc.a(_clzsi2.o)
 .debug_abbrev  0x000000000000fcb3      0x23f ../civ_002_bsp//libhal_bsp.a(alt_close.o)
 .debug_abbrev  0x000000000000fef2      0x212 ../civ_002_bsp//libhal_bsp.a(alt_dev.o)
 .debug_abbrev  0x0000000000010104      0x1df ../civ_002_bsp//libhal_bsp.a(alt_errno.o)
 .debug_abbrev  0x00000000000102e3      0x23f ../civ_002_bsp//libhal_bsp.a(alt_fstat.o)
 .debug_abbrev  0x0000000000010522      0x274 ../civ_002_bsp//libhal_bsp.a(alt_irq_handler.o)
 .debug_abbrev  0x0000000000010796       0x44 ../civ_002_bsp//libhal_bsp.a(alt_irq_vars.o)
 .debug_abbrev  0x00000000000107da      0x23f ../civ_002_bsp//libhal_bsp.a(alt_isatty.o)
 .debug_abbrev  0x0000000000010a19      0x21c ../civ_002_bsp//libhal_bsp.a(alt_load.o)
 .debug_abbrev  0x0000000000010c35      0x23f ../civ_002_bsp//libhal_bsp.a(alt_lseek.o)
 .debug_abbrev  0x0000000000010e74      0x21e ../civ_002_bsp//libhal_bsp.a(alt_main.o)
 .debug_abbrev  0x0000000000011092      0x1fa ../civ_002_bsp//libhal_bsp.a(alt_malloc_lock.o)
 .debug_abbrev  0x000000000001128c      0x250 ../civ_002_bsp//libhal_bsp.a(alt_read.o)
 .debug_abbrev  0x00000000000114dc       0xea ../civ_002_bsp//libhal_bsp.a(alt_release_fd.o)
 .debug_abbrev  0x00000000000115c6      0x28e ../civ_002_bsp//libhal_bsp.a(alt_sbrk.o)
 .debug_abbrev  0x0000000000011854      0x255 ../civ_002_bsp//libhal_bsp.a(alt_write.o)
 .debug_abbrev  0x0000000000011aa9      0x268 ../civ_002_bsp//libhal_bsp.a(alt_sys_init.o)
 .debug_abbrev  0x0000000000011d11      0x44a ../civ_002_bsp//libhal_bsp.a(altera_avalon_i2c.o)
 .debug_abbrev  0x000000000001215b       0x92 ../civ_002_bsp//libhal_bsp.a(altera_avalon_spi.o)
 .debug_abbrev  0x00000000000121ed      0x2d3 ../civ_002_bsp//libhal_bsp.a(altera_avalon_timer_sc.o)
 .debug_abbrev  0x00000000000124c0      0x202 ../civ_002_bsp//libhal_bsp.a(alt_busy_sleep.o)
 .debug_abbrev  0x00000000000126c2      0x1e0 ../civ_002_bsp//libhal_bsp.a(alt_dcache_flush_all.o)
 .debug_abbrev  0x00000000000128a2      0x268 ../civ_002_bsp//libhal_bsp.a(alt_dev_llist_insert.o)
 .debug_abbrev  0x0000000000012b0a       0x81 ../civ_002_bsp//libhal_bsp.a(alt_do_ctors.o)
 .debug_abbrev  0x0000000000012b8b       0x81 ../civ_002_bsp//libhal_bsp.a(alt_do_dtors.o)
 .debug_abbrev  0x0000000000012c0c      0x21a ../civ_002_bsp//libhal_bsp.a(alt_find_dev.o)
 .debug_abbrev  0x0000000000012e26      0x1e0 ../civ_002_bsp//libhal_bsp.a(alt_icache_flush_all.o)
 .debug_abbrev  0x0000000000013006       0xba ../civ_002_bsp//libhal_bsp.a(alt_printf.o)
 .debug_abbrev  0x00000000000130c0      0x1e0 ../civ_002_bsp//libhal_bsp.a(alt_putchar.o)
 .debug_abbrev  0x00000000000132a0      0x2be ../civ_002_bsp//libhal_bsp.a(alt_tick.o)
 .debug_abbrev  0x000000000001355e      0x1e5 ../civ_002_bsp//libhal_bsp.a(altera_nios2_gen2_irq.o)
 .debug_abbrev  0x0000000000013743      0x243 /home/efesxzc/intelFPGA_lite/19.1/nios2eds/bin/gnu/H-x86_64-pc-linux-gnu/bin/../lib/gcc/nios2-elf/8.3.1/../../../../../H-x86_64-pc-linux-gnu/nios2-elf/lib/mno-hw-mul/libc.a(lib_a-atexit.o)
 .debug_abbrev  0x0000000000013986      0x230 /home/efesxzc/intelFPGA_lite/19.1/nios2eds/bin/gnu/H-x86_64-pc-linux-gnu/bin/../lib/gcc/nios2-elf/8.3.1/../../../../../H-x86_64-pc-linux-gnu/nios2-elf/lib/mno-hw-mul/libc.a(lib_a-exit.o)
 .debug_abbrev  0x0000000000013bb6      0x25e /home/efesxzc/intelFPGA_lite/19.1/nios2eds/bin/gnu/H-x86_64-pc-linux-gnu/bin/../lib/gcc/nios2-elf/8.3.1/../../../../../H-x86_64-pc-linux-gnu/nios2-elf/lib/mno-hw-mul/libc.a(lib_a-putchar.o)
 .debug_abbrev  0x0000000000013e14      0x263 /home/efesxzc/intelFPGA_lite/19.1/nios2eds/bin/gnu/H-x86_64-pc-linux-gnu/bin/../lib/gcc/nios2-elf/8.3.1/../../../../../H-x86_64-pc-linux-gnu/nios2-elf/lib/mno-hw-mul/libc.a(lib_a-__atexit.o)
 .debug_abbrev  0x0000000000014077      0x26c /home/efesxzc/intelFPGA_lite/19.1/nios2eds/bin/gnu/H-x86_64-pc-linux-gnu/bin/../lib/gcc/nios2-elf/8.3.1/../../../../../H-x86_64-pc-linux-gnu/nios2-elf/lib/mno-hw-mul/libc.a(lib_a-__call_atexit.o)
 .debug_abbrev  0x00000000000142e3      0x29e /home/efesxzc/intelFPGA_lite/19.1/nios2eds/bin/gnu/H-x86_64-pc-linux-gnu/bin/../lib/gcc/nios2-elf/8.3.1/../../../../../H-x86_64-pc-linux-gnu/nios2-elf/lib/mno-hw-mul/libc.a(lib_a-putc.o)
 .debug_abbrev  0x0000000000014581      0x256 ../civ_002_bsp//libhal_bsp.a(alt_exit.o)

.debug_line     0x0000000000000000    0x27850
 *(.debug_line)
 .debug_line    0x0000000000000000       0x66 ../civ_002_bsp//obj/HAL/src/crt0.o
 .debug_line    0x0000000000000066      0x310 obj/default/./CLI-Commands.o
 .debug_line    0x0000000000000376      0x3dd obj/default/./at24c08.o
 .debug_line    0x0000000000000753      0x45c obj/default/./http_server.o
 .debug_line    0x0000000000000baf      0x32c obj/default/./lm75.o
 .debug_line    0x0000000000000edb      0x365 obj/default/./main.o
 .debug_line    0x0000000000001240      0x308 obj/default/./telnet_server.o
 .debug_line    0x0000000000001548      0x11d obj/default/FreeRTOS/FreeRTOS-Kernel/croutine.o
 .debug_line    0x0000000000001665      0x503 obj/default/FreeRTOS/FreeRTOS-Kernel/event_groups.o
 .debug_line    0x0000000000001b68      0x36f obj/default/FreeRTOS/FreeRTOS-Kernel/list.o
 .debug_line    0x0000000000001ed7      0x411 obj/default/FreeRTOS/FreeRTOS-Kernel/portable/GCC/NiosII/port.o
 .debug_line    0x00000000000022e8      0x261 obj/default/FreeRTOS/FreeRTOS-Kernel/portable/portTimer.o
 .debug_line    0x0000000000002549      0x9fe obj/default/FreeRTOS/FreeRTOS-Kernel/queue.o
 .debug_line    0x0000000000002f47      0x67d obj/default/FreeRTOS/FreeRTOS-Kernel/stream_buffer.o
 .debug_line    0x00000000000035c4     0x1367 obj/default/FreeRTOS/FreeRTOS-Kernel/tasks.o
 .debug_line    0x000000000000492b      0x184 obj/default/FreeRTOS/FreeRTOS-Kernel/timers.o
 .debug_line    0x0000000000004aaf      0x3f9 obj/default/FreeRTOS/FreeRTOS-Plus-CLI/FreeRTOS_CLI.o
 .debug_line    0x0000000000004ea8      0x684 obj/default/FreeRTOS/FreeRTOS-Plus-TCP/FreeRTOS_ARP.o
 .debug_line    0x000000000000552c      0x260 obj/default/FreeRTOS/FreeRTOS-Plus-TCP/FreeRTOS_DHCP.o
 .debug_line    0x000000000000578c      0x260 obj/default/FreeRTOS/FreeRTOS-Plus-TCP/FreeRTOS_DNS.o
 .debug_line    0x00000000000059ec      0xe4e obj/default/FreeRTOS/FreeRTOS-Plus-TCP/FreeRTOS_IP.o
 .debug_line    0x000000000000683a     0x17e9 obj/default/FreeRTOS/FreeRTOS-Plus-TCP/FreeRTOS_Sockets.o
 .debug_line    0x0000000000008023      0x454 obj/default/FreeRTOS/FreeRTOS-Plus-TCP/FreeRTOS_Stream_Buffer.o
 .debug_line    0x0000000000008477     0x1764 obj/default/FreeRTOS/FreeRTOS-Plus-TCP/FreeRTOS_TCP_IP.o
 .debug_line    0x0000000000009bdb      0x594 obj/default/FreeRTOS/FreeRTOS-Plus-TCP/FreeRTOS_TCP_WIN.o
 .debug_line    0x000000000000a16f      0x44b obj/default/FreeRTOS/FreeRTOS-Plus-TCP/FreeRTOS_UDP_IP.o
 .debug_line    0x000000000000a5ba      0x40e obj/default/FreeRTOS/FreeRTOS-Plus-TCP/portable/NetworkInterface/ENC28J60/NetworkInterface.o
 .debug_line    0x000000000000a9c8      0x4dd obj/default/FreeRTOS/FreeRTOS-Plus-TCP/portable/NetworkInterface/ENC28J60/enc.o
 .debug_line    0x000000000000aea5      0x51a obj/default/FreeRTOS/FreeRTOS-Kernel/portable/MemMang/heap_4.o
 .debug_line    0x000000000000b3bf      0x43c obj/default/FreeRTOS/FreeRTOS-Plus-TCP/portable/BufferManagement/BufferAllocation_1.o
 .debug_line    0x000000000000b7fb       0xf7 obj/default/FreeRTOS/FreeRTOS-Kernel/portable/GCC/NiosII/port_asm.o
 .debug_line    0x000000000000b8f2      0x307 /home/efesxzc/intelFPGA_lite/19.1/nios2eds/bin/gnu/H-x86_64-pc-linux-gnu/bin/../lib/gcc/nios2-elf/8.3.1/mno-hw-mul/libgcc.a(lib2-divmod.o)
 .debug_line    0x000000000000bbf9       0xb3 /home/efesxzc/intelFPGA_lite/19.1/nios2eds/bin/gnu/H-x86_64-pc-linux-gnu/bin/../lib/gcc/nios2-elf/8.3.1/mno-hw-mul/libgcc.a(lib2-mul.o)
 .debug_line    0x000000000000bcac      0x262 /home/efesxzc/intelFPGA_lite/19.1/nios2eds/bin/gnu/H-x86_64-pc-linux-gnu/bin/../lib/gcc/nios2-elf/8.3.1/../../../../../H-x86_64-pc-linux-gnu/nios2-elf/lib/mno-hw-mul/libc.a(lib_a-memcmp.o)
 .debug_line    0x000000000000bf0e      0x31b /home/efesxzc/intelFPGA_lite/19.1/nios2eds/bin/gnu/H-x86_64-pc-linux-gnu/bin/../lib/gcc/nios2-elf/8.3.1/../../../../../H-x86_64-pc-linux-gnu/nios2-elf/lib/mno-hw-mul/libc.a(lib_a-memcpy.o)
 .debug_line    0x000000000000c229      0x34d /home/efesxzc/intelFPGA_lite/19.1/nios2eds/bin/gnu/H-x86_64-pc-linux-gnu/bin/../lib/gcc/nios2-elf/8.3.1/../../../../../H-x86_64-pc-linux-gnu/nios2-elf/lib/mno-hw-mul/libc.a(lib_a-memmove.o)
 .debug_line    0x000000000000c576      0x345 /home/efesxzc/intelFPGA_lite/19.1/nios2eds/bin/gnu/H-x86_64-pc-linux-gnu/bin/../lib/gcc/nios2-elf/8.3.1/../../../../../H-x86_64-pc-linux-gnu/nios2-elf/lib/mno-hw-mul/libc.a(lib_a-memset.o)
 .debug_line    0x000000000000c8bb      0x268 /home/efesxzc/intelFPGA_lite/19.1/nios2eds/bin/gnu/H-x86_64-pc-linux-gnu/bin/../lib/gcc/nios2-elf/8.3.1/../../../../../H-x86_64-pc-linux-gnu/nios2-elf/lib/mno-hw-mul/libc.a(lib_a-printf.o)
 .debug_line    0x000000000000cb23      0x302 /home/efesxzc/intelFPGA_lite/19.1/nios2eds/bin/gnu/H-x86_64-pc-linux-gnu/bin/../lib/gcc/nios2-elf/8.3.1/../../../../../H-x86_64-pc-linux-gnu/nios2-elf/lib/mno-hw-mul/libc.a(lib_a-puts.o)
 .debug_line    0x000000000000ce25      0x244 /home/efesxzc/intelFPGA_lite/19.1/nios2eds/bin/gnu/H-x86_64-pc-linux-gnu/bin/../lib/gcc/nios2-elf/8.3.1/../../../../../H-x86_64-pc-linux-gnu/nios2-elf/lib/mno-hw-mul/libc.a(lib_a-rand.o)
 .debug_line    0x000000000000d069      0x446 /home/efesxzc/intelFPGA_lite/19.1/nios2eds/bin/gnu/H-x86_64-pc-linux-gnu/bin/../lib/gcc/nios2-elf/8.3.1/../../../../../H-x86_64-pc-linux-gnu/nios2-elf/lib/mno-hw-mul/libc.a(lib_a-snprintf.o)
 .debug_line    0x000000000000d4af      0x2d9 /home/efesxzc/intelFPGA_lite/19.1/nios2eds/bin/gnu/H-x86_64-pc-linux-gnu/bin/../lib/gcc/nios2-elf/8.3.1/../../../../../H-x86_64-pc-linux-gnu/nios2-elf/lib/mno-hw-mul/libc.a(lib_a-sprintf.o)
 .debug_line    0x000000000000d788      0x255 /home/efesxzc/intelFPGA_lite/19.1/nios2eds/bin/gnu/H-x86_64-pc-linux-gnu/bin/../lib/gcc/nios2-elf/8.3.1/../../../../../H-x86_64-pc-linux-gnu/nios2-elf/lib/mno-hw-mul/libc.a(lib_a-strcpy.o)
 .debug_line    0x000000000000d9dd      0x247 /home/efesxzc/intelFPGA_lite/19.1/nios2eds/bin/gnu/H-x86_64-pc-linux-gnu/bin/../lib/gcc/nios2-elf/8.3.1/../../../../../H-x86_64-pc-linux-gnu/nios2-elf/lib/mno-hw-mul/libc.a(lib_a-strlen.o)
 .debug_line    0x000000000000dc24      0x2c8 /home/efesxzc/intelFPGA_lite/19.1/nios2eds/bin/gnu/H-x86_64-pc-linux-gnu/bin/../lib/gcc/nios2-elf/8.3.1/../../../../../H-x86_64-pc-linux-gnu/nios2-elf/lib/mno-hw-mul/libc.a(lib_a-strncmp.o)
 .debug_line    0x000000000000deec      0x2a5 /home/efesxzc/intelFPGA_lite/19.1/nios2eds/bin/gnu/H-x86_64-pc-linux-gnu/bin/../lib/gcc/nios2-elf/8.3.1/../../../../../H-x86_64-pc-linux-gnu/nios2-elf/lib/mno-hw-mul/libc.a(lib_a-strncpy.o)
 .debug_line    0x000000000000e191      0x84a /home/efesxzc/intelFPGA_lite/19.1/nios2eds/bin/gnu/H-x86_64-pc-linux-gnu/bin/../lib/gcc/nios2-elf/8.3.1/../../../../../H-x86_64-pc-linux-gnu/nios2-elf/lib/mno-hw-mul/libc.a(lib_a-strstr.o)
 .debug_line    0x000000000000e9db      0x49c /home/efesxzc/intelFPGA_lite/19.1/nios2eds/bin/gnu/H-x86_64-pc-linux-gnu/bin/../lib/gcc/nios2-elf/8.3.1/../../../../../H-x86_64-pc-linux-gnu/nios2-elf/lib/mno-hw-mul/libc.a(lib_a-strtol.o)
 .debug_line    0x000000000000ee77     0x1973 /home/efesxzc/intelFPGA_lite/19.1/nios2eds/bin/gnu/H-x86_64-pc-linux-gnu/bin/../lib/gcc/nios2-elf/8.3.1/../../../../../H-x86_64-pc-linux-gnu/nios2-elf/lib/mno-hw-mul/libc.a(lib_a-svfprintf.o)
 .debug_line    0x00000000000107ea     0x1a8d /home/efesxzc/intelFPGA_lite/19.1/nios2eds/bin/gnu/H-x86_64-pc-linux-gnu/bin/../lib/gcc/nios2-elf/8.3.1/../../../../../H-x86_64-pc-linux-gnu/nios2-elf/lib/mno-hw-mul/libc.a(lib_a-vfprintf.o)
 .debug_line    0x0000000000012277      0x393 /home/efesxzc/intelFPGA_lite/19.1/nios2eds/bin/gnu/H-x86_64-pc-linux-gnu/bin/../lib/gcc/nios2-elf/8.3.1/../../../../../H-x86_64-pc-linux-gnu/nios2-elf/lib/mno-hw-mul/libc.a(lib_a-wsetup.o)
 .debug_line    0x000000000001260a      0x24e /home/efesxzc/intelFPGA_lite/19.1/nios2eds/bin/gnu/H-x86_64-pc-linux-gnu/bin/../lib/gcc/nios2-elf/8.3.1/../../../../../H-x86_64-pc-linux-gnu/nios2-elf/lib/mno-hw-mul/libc.a(lib_a-ctype_.o)
 .debug_line    0x0000000000012858     0x14c2 /home/efesxzc/intelFPGA_lite/19.1/nios2eds/bin/gnu/H-x86_64-pc-linux-gnu/bin/../lib/gcc/nios2-elf/8.3.1/../../../../../H-x86_64-pc-linux-gnu/nios2-elf/lib/mno-hw-mul/libc.a(lib_a-dtoa.o)
 .debug_line    0x0000000000013d1a      0x4f4 /home/efesxzc/intelFPGA_lite/19.1/nios2eds/bin/gnu/H-x86_64-pc-linux-gnu/bin/../lib/gcc/nios2-elf/8.3.1/../../../../../H-x86_64-pc-linux-gnu/nios2-elf/lib/mno-hw-mul/libc.a(lib_a-fflush.o)
 .debug_line    0x000000000001420e      0x676 /home/efesxzc/intelFPGA_lite/19.1/nios2eds/bin/gnu/H-x86_64-pc-linux-gnu/bin/../lib/gcc/nios2-elf/8.3.1/../../../../../H-x86_64-pc-linux-gnu/nios2-elf/lib/mno-hw-mul/libc.a(lib_a-findfp.o)
 .debug_line    0x0000000000014884      0x5c3 /home/efesxzc/intelFPGA_lite/19.1/nios2eds/bin/gnu/H-x86_64-pc-linux-gnu/bin/../lib/gcc/nios2-elf/8.3.1/../../../../../H-x86_64-pc-linux-gnu/nios2-elf/lib/mno-hw-mul/libc.a(lib_a-freer.o)
 .debug_line    0x0000000000014e47      0x6dd /home/efesxzc/intelFPGA_lite/19.1/nios2eds/bin/gnu/H-x86_64-pc-linux-gnu/bin/../lib/gcc/nios2-elf/8.3.1/../../../../../H-x86_64-pc-linux-gnu/nios2-elf/lib/mno-hw-mul/libc.a(lib_a-fvwrite.o)
 .debug_line    0x0000000000015524      0x34c /home/efesxzc/intelFPGA_lite/19.1/nios2eds/bin/gnu/H-x86_64-pc-linux-gnu/bin/../lib/gcc/nios2-elf/8.3.1/../../../../../H-x86_64-pc-linux-gnu/nios2-elf/lib/mno-hw-mul/libc.a(lib_a-fwalk.o)
 .debug_line    0x0000000000015870      0x164 /home/efesxzc/intelFPGA_lite/19.1/nios2eds/bin/gnu/H-x86_64-pc-linux-gnu/bin/../lib/gcc/nios2-elf/8.3.1/../../../../../H-x86_64-pc-linux-gnu/nios2-elf/lib/mno-hw-mul/libc.a(lib_a-impure.o)
 .debug_line    0x00000000000159d4      0x295 /home/efesxzc/intelFPGA_lite/19.1/nios2eds/bin/gnu/H-x86_64-pc-linux-gnu/bin/../lib/gcc/nios2-elf/8.3.1/../../../../../H-x86_64-pc-linux-gnu/nios2-elf/lib/mno-hw-mul/libc.a(lib_a-localeconv.o)
 .debug_line    0x0000000000015c69      0x469 /home/efesxzc/intelFPGA_lite/19.1/nios2eds/bin/gnu/H-x86_64-pc-linux-gnu/bin/../lib/gcc/nios2-elf/8.3.1/../../../../../H-x86_64-pc-linux-gnu/nios2-elf/lib/mno-hw-mul/libc.a(lib_a-makebuf.o)
 .debug_line    0x00000000000160d2      0x939 /home/efesxzc/intelFPGA_lite/19.1/nios2eds/bin/gnu/H-x86_64-pc-linux-gnu/bin/../lib/gcc/nios2-elf/8.3.1/../../../../../H-x86_64-pc-linux-gnu/nios2-elf/lib/mno-hw-mul/libc.a(lib_a-mallocr.o)
 .debug_line    0x0000000000016a0b      0x2ae /home/efesxzc/intelFPGA_lite/19.1/nios2eds/bin/gnu/H-x86_64-pc-linux-gnu/bin/../lib/gcc/nios2-elf/8.3.1/../../../../../H-x86_64-pc-linux-gnu/nios2-elf/lib/mno-hw-mul/libc.a(lib_a-memchr.o)
 .debug_line    0x0000000000016cb9     0x14c7 /home/efesxzc/intelFPGA_lite/19.1/nios2eds/bin/gnu/H-x86_64-pc-linux-gnu/bin/../lib/gcc/nios2-elf/8.3.1/../../../../../H-x86_64-pc-linux-gnu/nios2-elf/lib/mno-hw-mul/libc.a(lib_a-mprec.o)
 .debug_line    0x0000000000018180      0x832 /home/efesxzc/intelFPGA_lite/19.1/nios2eds/bin/gnu/H-x86_64-pc-linux-gnu/bin/../lib/gcc/nios2-elf/8.3.1/../../../../../H-x86_64-pc-linux-gnu/nios2-elf/lib/mno-hw-mul/libc.a(lib_a-reallocr.o)
 .debug_line    0x00000000000189b2      0x233 /home/efesxzc/intelFPGA_lite/19.1/nios2eds/bin/gnu/H-x86_64-pc-linux-gnu/bin/../lib/gcc/nios2-elf/8.3.1/../../../../../H-x86_64-pc-linux-gnu/nios2-elf/lib/mno-hw-mul/libc.a(lib_a-sbrkr.o)
 .debug_line    0x0000000000018be5      0x357 /home/efesxzc/intelFPGA_lite/19.1/nios2eds/bin/gnu/H-x86_64-pc-linux-gnu/bin/../lib/gcc/nios2-elf/8.3.1/../../../../../H-x86_64-pc-linux-gnu/nios2-elf/lib/mno-hw-mul/libc.a(lib_a-stdio.o)
 .debug_line    0x0000000000018f3c      0x2e5 /home/efesxzc/intelFPGA_lite/19.1/nios2eds/bin/gnu/H-x86_64-pc-linux-gnu/bin/../lib/gcc/nios2-elf/8.3.1/../../../../../H-x86_64-pc-linux-gnu/nios2-elf/lib/mno-hw-mul/libc.a(lib_a-strchr.o)
 .debug_line    0x0000000000019221      0x216 /home/efesxzc/intelFPGA_lite/19.1/nios2eds/bin/gnu/H-x86_64-pc-linux-gnu/bin/../lib/gcc/nios2-elf/8.3.1/../../../../../H-x86_64-pc-linux-gnu/nios2-elf/lib/mno-hw-mul/libc.a(lib_a-strnlen.o)
 .debug_line    0x0000000000019437     0x1104 /home/efesxzc/intelFPGA_lite/19.1/nios2eds/bin/gnu/H-x86_64-pc-linux-gnu/bin/../lib/gcc/nios2-elf/8.3.1/../../../../../H-x86_64-pc-linux-gnu/nios2-elf/lib/mno-hw-mul/libc.a(lib_a-svfiprintf.o)
 .debug_line    0x000000000001a53b     0x142a /home/efesxzc/intelFPGA_lite/19.1/nios2eds/bin/gnu/H-x86_64-pc-linux-gnu/bin/../lib/gcc/nios2-elf/8.3.1/../../../../../H-x86_64-pc-linux-gnu/nios2-elf/lib/mno-hw-mul/libc.a(lib_a-vfiprintf.o)
 .debug_line    0x000000000001b965      0x232 /home/efesxzc/intelFPGA_lite/19.1/nios2eds/bin/gnu/H-x86_64-pc-linux-gnu/bin/../lib/gcc/nios2-elf/8.3.1/../../../../../H-x86_64-pc-linux-gnu/nios2-elf/lib/mno-hw-mul/libc.a(lib_a-writer.o)
 .debug_line    0x000000000001bb97      0x233 /home/efesxzc/intelFPGA_lite/19.1/nios2eds/bin/gnu/H-x86_64-pc-linux-gnu/bin/../lib/gcc/nios2-elf/8.3.1/../../../../../H-x86_64-pc-linux-gnu/nios2-elf/lib/mno-hw-mul/libc.a(closer.o)
 .debug_line    0x000000000001bdca      0x288 /home/efesxzc/intelFPGA_lite/19.1/nios2eds/bin/gnu/H-x86_64-pc-linux-gnu/bin/../lib/gcc/nios2-elf/8.3.1/../../../../../H-x86_64-pc-linux-gnu/nios2-elf/lib/mno-hw-mul/libc.a(lib_a-callocr.o)
 .debug_line    0x000000000001c052      0x2fc /home/efesxzc/intelFPGA_lite/19.1/nios2eds/bin/gnu/H-x86_64-pc-linux-gnu/bin/../lib/gcc/nios2-elf/8.3.1/../../../../../H-x86_64-pc-linux-gnu/nios2-elf/lib/mno-hw-mul/libc.a(lib_a-fclose.o)
 .debug_line    0x000000000001c34e      0x3af /home/efesxzc/intelFPGA_lite/19.1/nios2eds/bin/gnu/H-x86_64-pc-linux-gnu/bin/../lib/gcc/nios2-elf/8.3.1/../../../../../H-x86_64-pc-linux-gnu/nios2-elf/lib/mno-hw-mul/libc.a(lib_a-fputwc.o)
 .debug_line    0x000000000001c6fd      0x2e1 /home/efesxzc/intelFPGA_lite/19.1/nios2eds/bin/gnu/H-x86_64-pc-linux-gnu/bin/../lib/gcc/nios2-elf/8.3.1/../../../../../H-x86_64-pc-linux-gnu/nios2-elf/lib/mno-hw-mul/libc.a(lib_a-fstatr.o)
 .debug_line    0x000000000001c9de      0x1d5 /home/efesxzc/intelFPGA_lite/19.1/nios2eds/bin/gnu/H-x86_64-pc-linux-gnu/bin/../lib/gcc/nios2-elf/8.3.1/../../../../../H-x86_64-pc-linux-gnu/nios2-elf/lib/mno-hw-mul/libc.a(lib_a-int_errno.o)
 .debug_line    0x000000000001cbb3      0x234 /home/efesxzc/intelFPGA_lite/19.1/nios2eds/bin/gnu/H-x86_64-pc-linux-gnu/bin/../lib/gcc/nios2-elf/8.3.1/../../../../../H-x86_64-pc-linux-gnu/nios2-elf/lib/mno-hw-mul/libc.a(lib_a-isattyr.o)
 .debug_line    0x000000000001cde7      0x357 /home/efesxzc/intelFPGA_lite/19.1/nios2eds/bin/gnu/H-x86_64-pc-linux-gnu/bin/../lib/gcc/nios2-elf/8.3.1/../../../../../H-x86_64-pc-linux-gnu/nios2-elf/lib/mno-hw-mul/libc.a(lib_a-locale.o)
 .debug_line    0x000000000001d13e      0x232 /home/efesxzc/intelFPGA_lite/19.1/nios2eds/bin/gnu/H-x86_64-pc-linux-gnu/bin/../lib/gcc/nios2-elf/8.3.1/../../../../../H-x86_64-pc-linux-gnu/nios2-elf/lib/mno-hw-mul/libc.a(lib_a-lseekr.o)
 .debug_line    0x000000000001d370      0x2dd /home/efesxzc/intelFPGA_lite/19.1/nios2eds/bin/gnu/H-x86_64-pc-linux-gnu/bin/../lib/gcc/nios2-elf/8.3.1/../../../../../H-x86_64-pc-linux-gnu/nios2-elf/lib/mno-hw-mul/libc.a(lib_a-mbtowc_r.o)
 .debug_line    0x000000000001d64d      0x231 /home/efesxzc/intelFPGA_lite/19.1/nios2eds/bin/gnu/H-x86_64-pc-linux-gnu/bin/../lib/gcc/nios2-elf/8.3.1/../../../../../H-x86_64-pc-linux-gnu/nios2-elf/lib/mno-hw-mul/libc.a(lib_a-readr.o)
 .debug_line    0x000000000001d87e      0x26a /home/efesxzc/intelFPGA_lite/19.1/nios2eds/bin/gnu/H-x86_64-pc-linux-gnu/bin/../lib/gcc/nios2-elf/8.3.1/../../../../../H-x86_64-pc-linux-gnu/nios2-elf/lib/mno-hw-mul/libc.a(lib_a-strcmp.o)
 .debug_line    0x000000000001dae8      0x356 /home/efesxzc/intelFPGA_lite/19.1/nios2eds/bin/gnu/H-x86_64-pc-linux-gnu/bin/../lib/gcc/nios2-elf/8.3.1/../../../../../H-x86_64-pc-linux-gnu/nios2-elf/lib/mno-hw-mul/libc.a(lib_a-wbuf.o)
 .debug_line    0x000000000001de3e      0x37c /home/efesxzc/intelFPGA_lite/19.1/nios2eds/bin/gnu/H-x86_64-pc-linux-gnu/bin/../lib/gcc/nios2-elf/8.3.1/../../../../../H-x86_64-pc-linux-gnu/nios2-elf/lib/mno-hw-mul/libc.a(lib_a-wcrtomb.o)
 .debug_line    0x000000000001e1ba      0x2ca /home/efesxzc/intelFPGA_lite/19.1/nios2eds/bin/gnu/H-x86_64-pc-linux-gnu/bin/../lib/gcc/nios2-elf/8.3.1/../../../../../H-x86_64-pc-linux-gnu/nios2-elf/lib/mno-hw-mul/libc.a(lib_a-wctomb_r.o)
 .debug_line    0x000000000001e484      0x194 /home/efesxzc/intelFPGA_lite/19.1/nios2eds/bin/gnu/H-x86_64-pc-linux-gnu/bin/../lib/gcc/nios2-elf/8.3.1/mno-hw-mul/libgcc.a(_muldi3.o)
 .debug_line    0x000000000001e618      0x3b2 /home/efesxzc/intelFPGA_lite/19.1/nios2eds/bin/gnu/H-x86_64-pc-linux-gnu/bin/../lib/gcc/nios2-elf/8.3.1/mno-hw-mul/libgcc.a(_udivdi3.o)
 .debug_line    0x000000000001e9ca      0x3df /home/efesxzc/intelFPGA_lite/19.1/nios2eds/bin/gnu/H-x86_64-pc-linux-gnu/bin/../lib/gcc/nios2-elf/8.3.1/mno-hw-mul/libgcc.a(_umoddi3.o)
 .debug_line    0x000000000001eda9      0xdcf /home/efesxzc/intelFPGA_lite/19.1/nios2eds/bin/gnu/H-x86_64-pc-linux-gnu/bin/../lib/gcc/nios2-elf/8.3.1/mno-hw-mul/libgcc.a(adddf3.o)
 .debug_line    0x000000000001fb78      0xa48 /home/efesxzc/intelFPGA_lite/19.1/nios2eds/bin/gnu/H-x86_64-pc-linux-gnu/bin/../lib/gcc/nios2-elf/8.3.1/mno-hw-mul/libgcc.a(divdf3.o)
 .debug_line    0x00000000000205c0      0x13a /home/efesxzc/intelFPGA_lite/19.1/nios2eds/bin/gnu/H-x86_64-pc-linux-gnu/bin/../lib/gcc/nios2-elf/8.3.1/mno-hw-mul/libgcc.a(eqdf2.o)
 .debug_line    0x00000000000206fa      0x194 /home/efesxzc/intelFPGA_lite/19.1/nios2eds/bin/gnu/H-x86_64-pc-linux-gnu/bin/../lib/gcc/nios2-elf/8.3.1/mno-hw-mul/libgcc.a(gedf2.o)
 .debug_line    0x000000000002088e      0x193 /home/efesxzc/intelFPGA_lite/19.1/nios2eds/bin/gnu/H-x86_64-pc-linux-gnu/bin/../lib/gcc/nios2-elf/8.3.1/mno-hw-mul/libgcc.a(ledf2.o)
 .debug_line    0x0000000000020a21      0x8c7 /home/efesxzc/intelFPGA_lite/19.1/nios2eds/bin/gnu/H-x86_64-pc-linux-gnu/bin/../lib/gcc/nios2-elf/8.3.1/mno-hw-mul/libgcc.a(muldf3.o)
 .debug_line    0x00000000000212e8      0xd39 /home/efesxzc/intelFPGA_lite/19.1/nios2eds/bin/gnu/H-x86_64-pc-linux-gnu/bin/../lib/gcc/nios2-elf/8.3.1/mno-hw-mul/libgcc.a(subdf3.o)
 .debug_line    0x0000000000022021      0x114 /home/efesxzc/intelFPGA_lite/19.1/nios2eds/bin/gnu/H-x86_64-pc-linux-gnu/bin/../lib/gcc/nios2-elf/8.3.1/mno-hw-mul/libgcc.a(unorddf2.o)
 .debug_line    0x0000000000022135      0x165 /home/efesxzc/intelFPGA_lite/19.1/nios2eds/bin/gnu/H-x86_64-pc-linux-gnu/bin/../lib/gcc/nios2-elf/8.3.1/mno-hw-mul/libgcc.a(fixdfsi.o)
 .debug_line    0x000000000002229a      0x1b3 /home/efesxzc/intelFPGA_lite/19.1/nios2eds/bin/gnu/H-x86_64-pc-linux-gnu/bin/../lib/gcc/nios2-elf/8.3.1/mno-hw-mul/libgcc.a(floatsidf.o)
 .debug_line    0x000000000002244d      0x19e /home/efesxzc/intelFPGA_lite/19.1/nios2eds/bin/gnu/H-x86_64-pc-linux-gnu/bin/../lib/gcc/nios2-elf/8.3.1/mno-hw-mul/libgcc.a(floatunsidf.o)
 .debug_line    0x00000000000225eb       0xb4 /home/efesxzc/intelFPGA_lite/19.1/nios2eds/bin/gnu/H-x86_64-pc-linux-gnu/bin/../lib/gcc/nios2-elf/8.3.1/mno-hw-mul/libgcc.a(_clz.o)
 .debug_line    0x000000000002269f      0x103 /home/efesxzc/intelFPGA_lite/19.1/nios2eds/bin/gnu/H-x86_64-pc-linux-gnu/bin/../lib/gcc/nios2-elf/8.3.1/mno-hw-mul/libgcc.a(_clzsi2.o)
 .debug_line    0x00000000000227a2      0x25e ../civ_002_bsp//libhal_bsp.a(alt_close.o)
 .debug_line    0x0000000000022a00      0x2b6 ../civ_002_bsp//libhal_bsp.a(alt_dev.o)
 .debug_line    0x0000000000022cb6      0x151 ../civ_002_bsp//libhal_bsp.a(alt_errno.o)
 .debug_line    0x0000000000022e07      0x320 ../civ_002_bsp//libhal_bsp.a(alt_fstat.o)
 .debug_line    0x0000000000023127      0x1d4 ../civ_002_bsp//libhal_bsp.a(alt_irq_handler.o)
 .debug_line    0x00000000000232fb       0x50 ../civ_002_bsp//libhal_bsp.a(alt_irq_vars.o)
 .debug_line    0x000000000002334b      0x322 ../civ_002_bsp//libhal_bsp.a(alt_isatty.o)
 .debug_line    0x000000000002366d      0x202 ../civ_002_bsp//libhal_bsp.a(alt_load.o)
 .debug_line    0x000000000002386f      0x243 ../civ_002_bsp//libhal_bsp.a(alt_lseek.o)
 .debug_line    0x0000000000023ab2      0x2e5 ../civ_002_bsp//libhal_bsp.a(alt_main.o)
 .debug_line    0x0000000000023d97      0x144 ../civ_002_bsp//libhal_bsp.a(alt_malloc_lock.o)
 .debug_line    0x0000000000023edb      0x351 ../civ_002_bsp//libhal_bsp.a(alt_read.o)
 .debug_line    0x000000000002422c       0xb6 ../civ_002_bsp//libhal_bsp.a(alt_release_fd.o)
 .debug_line    0x00000000000242e2      0x1c9 ../civ_002_bsp//libhal_bsp.a(alt_sbrk.o)
 .debug_line    0x00000000000244ab      0x354 ../civ_002_bsp//libhal_bsp.a(alt_write.o)
 .debug_line    0x00000000000247ff      0x1e1 ../civ_002_bsp//libhal_bsp.a(alt_sys_init.o)
 .debug_line    0x00000000000249e0      0xa3b ../civ_002_bsp//libhal_bsp.a(altera_avalon_i2c.o)
 .debug_line    0x000000000002541b      0x122 ../civ_002_bsp//libhal_bsp.a(altera_avalon_spi.o)
 .debug_line    0x000000000002553d      0x230 ../civ_002_bsp//libhal_bsp.a(altera_avalon_timer_sc.o)
 .debug_line    0x000000000002576d      0x1d6 ../civ_002_bsp//libhal_bsp.a(alt_busy_sleep.o)
 .debug_line    0x0000000000025943      0x1af ../civ_002_bsp//libhal_bsp.a(alt_dcache_flush_all.o)
 .debug_line    0x0000000000025af2      0x203 ../civ_002_bsp//libhal_bsp.a(alt_dev_llist_insert.o)
 .debug_line    0x0000000000025cf5       0x66 ../civ_002_bsp//libhal_bsp.a(alt_do_ctors.o)
 .debug_line    0x0000000000025d5b       0x66 ../civ_002_bsp//libhal_bsp.a(alt_do_dtors.o)
 .debug_line    0x0000000000025dc1      0x1ca ../civ_002_bsp//libhal_bsp.a(alt_find_dev.o)
 .debug_line    0x0000000000025f8b      0x1ad ../civ_002_bsp//libhal_bsp.a(alt_icache_flush_all.o)
 .debug_line    0x0000000000026138      0x165 ../civ_002_bsp//libhal_bsp.a(alt_printf.o)
 .debug_line    0x000000000002629d      0x145 ../civ_002_bsp//libhal_bsp.a(alt_putchar.o)
 .debug_line    0x00000000000263e2      0x25d ../civ_002_bsp//libhal_bsp.a(alt_tick.o)
 .debug_line    0x000000000002663f      0x157 ../civ_002_bsp//libhal_bsp.a(altera_nios2_gen2_irq.o)
 .debug_line    0x0000000000026796      0x1fe /home/efesxzc/intelFPGA_lite/19.1/nios2eds/bin/gnu/H-x86_64-pc-linux-gnu/bin/../lib/gcc/nios2-elf/8.3.1/../../../../../H-x86_64-pc-linux-gnu/nios2-elf/lib/mno-hw-mul/libc.a(lib_a-atexit.o)
 .debug_line    0x0000000000026994      0x226 /home/efesxzc/intelFPGA_lite/19.1/nios2eds/bin/gnu/H-x86_64-pc-linux-gnu/bin/../lib/gcc/nios2-elf/8.3.1/../../../../../H-x86_64-pc-linux-gnu/nios2-elf/lib/mno-hw-mul/libc.a(lib_a-exit.o)
 .debug_line    0x0000000000026bba      0x243 /home/efesxzc/intelFPGA_lite/19.1/nios2eds/bin/gnu/H-x86_64-pc-linux-gnu/bin/../lib/gcc/nios2-elf/8.3.1/../../../../../H-x86_64-pc-linux-gnu/nios2-elf/lib/mno-hw-mul/libc.a(lib_a-putchar.o)
 .debug_line    0x0000000000026dfd      0x286 /home/efesxzc/intelFPGA_lite/19.1/nios2eds/bin/gnu/H-x86_64-pc-linux-gnu/bin/../lib/gcc/nios2-elf/8.3.1/../../../../../H-x86_64-pc-linux-gnu/nios2-elf/lib/mno-hw-mul/libc.a(lib_a-__atexit.o)
 .debug_line    0x0000000000027083      0x2c7 /home/efesxzc/intelFPGA_lite/19.1/nios2eds/bin/gnu/H-x86_64-pc-linux-gnu/bin/../lib/gcc/nios2-elf/8.3.1/../../../../../H-x86_64-pc-linux-gnu/nios2-elf/lib/mno-hw-mul/libc.a(lib_a-__call_atexit.o)
 .debug_line    0x000000000002734a      0x389 /home/efesxzc/intelFPGA_lite/19.1/nios2eds/bin/gnu/H-x86_64-pc-linux-gnu/bin/../lib/gcc/nios2-elf/8.3.1/../../../../../H-x86_64-pc-linux-gnu/nios2-elf/lib/mno-hw-mul/libc.a(lib_a-putc.o)
 .debug_line    0x00000000000276d3      0x17d ../civ_002_bsp//libhal_bsp.a(alt_exit.o)

.debug_frame    0x0000000000000000     0x6c0c
 *(.debug_frame)
 .debug_frame   0x0000000000000000      0x104 obj/default/./CLI-Commands.o
 .debug_frame   0x0000000000000104      0x150 obj/default/./at24c08.o
 .debug_frame   0x0000000000000254       0x9c obj/default/./http_server.o
 .debug_frame   0x00000000000002f0       0xc0 obj/default/./lm75.o
 .debug_frame   0x00000000000003b0      0x16c obj/default/./main.o
 .debug_frame   0x000000000000051c       0x54 obj/default/./telnet_server.o
 .debug_frame   0x0000000000000570      0x1e0 obj/default/FreeRTOS/FreeRTOS-Kernel/event_groups.o
 .debug_frame   0x0000000000000750       0xc4 obj/default/FreeRTOS/FreeRTOS-Kernel/list.o
 .debug_frame   0x0000000000000814      0x11c obj/default/FreeRTOS/FreeRTOS-Kernel/portable/GCC/NiosII/port.o
 .debug_frame   0x0000000000000930       0x58 obj/default/FreeRTOS/FreeRTOS-Kernel/portable/portTimer.o
 .debug_frame   0x0000000000000988      0x4dc obj/default/FreeRTOS/FreeRTOS-Kernel/queue.o
 .debug_frame   0x0000000000000e64      0x3b4 obj/default/FreeRTOS/FreeRTOS-Kernel/stream_buffer.o
 .debug_frame   0x0000000000001218      0x9c4 obj/default/FreeRTOS/FreeRTOS-Kernel/tasks.o
 .debug_frame   0x0000000000001bdc       0xf4 obj/default/FreeRTOS/FreeRTOS-Plus-CLI/FreeRTOS_CLI.o
 .debug_frame   0x0000000000001cd0      0x20c obj/default/FreeRTOS/FreeRTOS-Plus-TCP/FreeRTOS_ARP.o
 .debug_frame   0x0000000000001edc      0x850 obj/default/FreeRTOS/FreeRTOS-Plus-TCP/FreeRTOS_IP.o
 .debug_frame   0x000000000000272c      0xaf8 obj/default/FreeRTOS/FreeRTOS-Plus-TCP/FreeRTOS_Sockets.o
 .debug_frame   0x0000000000003224      0x140 obj/default/FreeRTOS/FreeRTOS-Plus-TCP/FreeRTOS_Stream_Buffer.o
 .debug_frame   0x0000000000003364      0x7d4 obj/default/FreeRTOS/FreeRTOS-Plus-TCP/FreeRTOS_TCP_IP.o
 .debug_frame   0x0000000000003b38      0x250 obj/default/FreeRTOS/FreeRTOS-Plus-TCP/FreeRTOS_TCP_WIN.o
 .debug_frame   0x0000000000003d88       0xa8 obj/default/FreeRTOS/FreeRTOS-Plus-TCP/FreeRTOS_UDP_IP.o
 .debug_frame   0x0000000000003e30      0x168 obj/default/FreeRTOS/FreeRTOS-Plus-TCP/portable/NetworkInterface/ENC28J60/NetworkInterface.o
 .debug_frame   0x0000000000003f98      0x304 obj/default/FreeRTOS/FreeRTOS-Plus-TCP/portable/NetworkInterface/ENC28J60/enc.o
 .debug_frame   0x000000000000429c      0x13c obj/default/FreeRTOS/FreeRTOS-Kernel/portable/MemMang/heap_4.o
 .debug_frame   0x00000000000043d8      0x194 obj/default/FreeRTOS/FreeRTOS-Plus-TCP/portable/BufferManagement/BufferAllocation_1.o
 .debug_frame   0x000000000000456c       0x50 /home/efesxzc/intelFPGA_lite/19.1/nios2eds/bin/gnu/H-x86_64-pc-linux-gnu/bin/../lib/gcc/nios2-elf/8.3.1/mno-hw-mul/libgcc.a(lib2-divmod.o)
 .debug_frame   0x00000000000045bc       0x20 /home/efesxzc/intelFPGA_lite/19.1/nios2eds/bin/gnu/H-x86_64-pc-linux-gnu/bin/../lib/gcc/nios2-elf/8.3.1/mno-hw-mul/libgcc.a(lib2-mul.o)
 .debug_frame   0x00000000000045dc       0x20 /home/efesxzc/intelFPGA_lite/19.1/nios2eds/bin/gnu/H-x86_64-pc-linux-gnu/bin/../lib/gcc/nios2-elf/8.3.1/../../../../../H-x86_64-pc-linux-gnu/nios2-elf/lib/mno-hw-mul/libc.a(lib_a-memcmp.o)
 .debug_frame   0x00000000000045fc       0x20 /home/efesxzc/intelFPGA_lite/19.1/nios2eds/bin/gnu/H-x86_64-pc-linux-gnu/bin/../lib/gcc/nios2-elf/8.3.1/../../../../../H-x86_64-pc-linux-gnu/nios2-elf/lib/mno-hw-mul/libc.a(lib_a-memcpy.o)
 .debug_frame   0x000000000000461c       0x20 /home/efesxzc/intelFPGA_lite/19.1/nios2eds/bin/gnu/H-x86_64-pc-linux-gnu/bin/../lib/gcc/nios2-elf/8.3.1/../../../../../H-x86_64-pc-linux-gnu/nios2-elf/lib/mno-hw-mul/libc.a(lib_a-memmove.o)
 .debug_frame   0x000000000000463c       0x20 /home/efesxzc/intelFPGA_lite/19.1/nios2eds/bin/gnu/H-x86_64-pc-linux-gnu/bin/../lib/gcc/nios2-elf/8.3.1/../../../../../H-x86_64-pc-linux-gnu/nios2-elf/lib/mno-hw-mul/libc.a(lib_a-memset.o)
 .debug_frame   0x000000000000465c       0x48 /home/efesxzc/intelFPGA_lite/19.1/nios2eds/bin/gnu/H-x86_64-pc-linux-gnu/bin/../lib/gcc/nios2-elf/8.3.1/../../../../../H-x86_64-pc-linux-gnu/nios2-elf/lib/mno-hw-mul/libc.a(lib_a-printf.o)
 .debug_frame   0x00000000000046a4       0x48 /home/efesxzc/intelFPGA_lite/19.1/nios2eds/bin/gnu/H-x86_64-pc-linux-gnu/bin/../lib/gcc/nios2-elf/8.3.1/../../../../../H-x86_64-pc-linux-gnu/nios2-elf/lib/mno-hw-mul/libc.a(lib_a-puts.o)
 .debug_frame   0x00000000000046ec       0x44 /home/efesxzc/intelFPGA_lite/19.1/nios2eds/bin/gnu/H-x86_64-pc-linux-gnu/bin/../lib/gcc/nios2-elf/8.3.1/../../../../../H-x86_64-pc-linux-gnu/nios2-elf/lib/mno-hw-mul/libc.a(lib_a-rand.o)
 .debug_frame   0x0000000000004730       0x70 /home/efesxzc/intelFPGA_lite/19.1/nios2eds/bin/gnu/H-x86_64-pc-linux-gnu/bin/../lib/gcc/nios2-elf/8.3.1/../../../../../H-x86_64-pc-linux-gnu/nios2-elf/lib/mno-hw-mul/libc.a(lib_a-snprintf.o)
 .debug_frame   0x00000000000047a0       0x48 /home/efesxzc/intelFPGA_lite/19.1/nios2eds/bin/gnu/H-x86_64-pc-linux-gnu/bin/../lib/gcc/nios2-elf/8.3.1/../../../../../H-x86_64-pc-linux-gnu/nios2-elf/lib/mno-hw-mul/libc.a(lib_a-sprintf.o)
 .debug_frame   0x00000000000047e8       0x20 /home/efesxzc/intelFPGA_lite/19.1/nios2eds/bin/gnu/H-x86_64-pc-linux-gnu/bin/../lib/gcc/nios2-elf/8.3.1/../../../../../H-x86_64-pc-linux-gnu/nios2-elf/lib/mno-hw-mul/libc.a(lib_a-strcpy.o)
 .debug_frame   0x0000000000004808       0x20 /home/efesxzc/intelFPGA_lite/19.1/nios2eds/bin/gnu/H-x86_64-pc-linux-gnu/bin/../lib/gcc/nios2-elf/8.3.1/../../../../../H-x86_64-pc-linux-gnu/nios2-elf/lib/mno-hw-mul/libc.a(lib_a-strlen.o)
 .debug_frame   0x0000000000004828       0x20 /home/efesxzc/intelFPGA_lite/19.1/nios2eds/bin/gnu/H-x86_64-pc-linux-gnu/bin/../lib/gcc/nios2-elf/8.3.1/../../../../../H-x86_64-pc-linux-gnu/nios2-elf/lib/mno-hw-mul/libc.a(lib_a-strncmp.o)
 .debug_frame   0x0000000000004848       0x20 /home/efesxzc/intelFPGA_lite/19.1/nios2eds/bin/gnu/H-x86_64-pc-linux-gnu/bin/../lib/gcc/nios2-elf/8.3.1/../../../../../H-x86_64-pc-linux-gnu/nios2-elf/lib/mno-hw-mul/libc.a(lib_a-strncpy.o)
 .debug_frame   0x0000000000004868       0xb0 /home/efesxzc/intelFPGA_lite/19.1/nios2eds/bin/gnu/H-x86_64-pc-linux-gnu/bin/../lib/gcc/nios2-elf/8.3.1/../../../../../H-x86_64-pc-linux-gnu/nios2-elf/lib/mno-hw-mul/libc.a(lib_a-strstr.o)
 .debug_frame   0x0000000000004918       0x84 /home/efesxzc/intelFPGA_lite/19.1/nios2eds/bin/gnu/H-x86_64-pc-linux-gnu/bin/../lib/gcc/nios2-elf/8.3.1/../../../../../H-x86_64-pc-linux-gnu/nios2-elf/lib/mno-hw-mul/libc.a(lib_a-strtol.o)
 .debug_frame   0x000000000000499c       0x58 /home/efesxzc/intelFPGA_lite/19.1/nios2eds/bin/gnu/H-x86_64-pc-linux-gnu/bin/../lib/gcc/nios2-elf/8.3.1/../../../../../H-x86_64-pc-linux-gnu/nios2-elf/lib/mno-hw-mul/libc.a(lib_a-svfprintf.o)
 .debug_frame   0x00000000000049f4       0x98 /home/efesxzc/intelFPGA_lite/19.1/nios2eds/bin/gnu/H-x86_64-pc-linux-gnu/bin/../lib/gcc/nios2-elf/8.3.1/../../../../../H-x86_64-pc-linux-gnu/nios2-elf/lib/mno-hw-mul/libc.a(lib_a-vfprintf.o)
 .debug_frame   0x0000000000004a8c       0x38 /home/efesxzc/intelFPGA_lite/19.1/nios2eds/bin/gnu/H-x86_64-pc-linux-gnu/bin/../lib/gcc/nios2-elf/8.3.1/../../../../../H-x86_64-pc-linux-gnu/nios2-elf/lib/mno-hw-mul/libc.a(lib_a-wsetup.o)
 .debug_frame   0x0000000000004ac4       0x9c /home/efesxzc/intelFPGA_lite/19.1/nios2eds/bin/gnu/H-x86_64-pc-linux-gnu/bin/../lib/gcc/nios2-elf/8.3.1/../../../../../H-x86_64-pc-linux-gnu/nios2-elf/lib/mno-hw-mul/libc.a(lib_a-dtoa.o)
 .debug_frame   0x0000000000004b60       0x7c /home/efesxzc/intelFPGA_lite/19.1/nios2eds/bin/gnu/H-x86_64-pc-linux-gnu/bin/../lib/gcc/nios2-elf/8.3.1/../../../../../H-x86_64-pc-linux-gnu/nios2-elf/lib/mno-hw-mul/libc.a(lib_a-fflush.o)
 .debug_frame   0x0000000000004bdc      0x124 /home/efesxzc/intelFPGA_lite/19.1/nios2eds/bin/gnu/H-x86_64-pc-linux-gnu/bin/../lib/gcc/nios2-elf/8.3.1/../../../../../H-x86_64-pc-linux-gnu/nios2-elf/lib/mno-hw-mul/libc.a(lib_a-findfp.o)
 .debug_frame   0x0000000000004d00       0x78 /home/efesxzc/intelFPGA_lite/19.1/nios2eds/bin/gnu/H-x86_64-pc-linux-gnu/bin/../lib/gcc/nios2-elf/8.3.1/../../../../../H-x86_64-pc-linux-gnu/nios2-elf/lib/mno-hw-mul/libc.a(lib_a-freer.o)
 .debug_frame   0x0000000000004d78       0x7c /home/efesxzc/intelFPGA_lite/19.1/nios2eds/bin/gnu/H-x86_64-pc-linux-gnu/bin/../lib/gcc/nios2-elf/8.3.1/../../../../../H-x86_64-pc-linux-gnu/nios2-elf/lib/mno-hw-mul/libc.a(lib_a-fvwrite.o)
 .debug_frame   0x0000000000004df4       0x7c /home/efesxzc/intelFPGA_lite/19.1/nios2eds/bin/gnu/H-x86_64-pc-linux-gnu/bin/../lib/gcc/nios2-elf/8.3.1/../../../../../H-x86_64-pc-linux-gnu/nios2-elf/lib/mno-hw-mul/libc.a(lib_a-fwalk.o)
 .debug_frame   0x0000000000004e70       0x40 /home/efesxzc/intelFPGA_lite/19.1/nios2eds/bin/gnu/H-x86_64-pc-linux-gnu/bin/../lib/gcc/nios2-elf/8.3.1/../../../../../H-x86_64-pc-linux-gnu/nios2-elf/lib/mno-hw-mul/libc.a(lib_a-localeconv.o)
 .debug_frame   0x0000000000004eb0       0x68 /home/efesxzc/intelFPGA_lite/19.1/nios2eds/bin/gnu/H-x86_64-pc-linux-gnu/bin/../lib/gcc/nios2-elf/8.3.1/../../../../../H-x86_64-pc-linux-gnu/nios2-elf/lib/mno-hw-mul/libc.a(lib_a-makebuf.o)
 .debug_frame   0x0000000000004f18       0x58 /home/efesxzc/intelFPGA_lite/19.1/nios2eds/bin/gnu/H-x86_64-pc-linux-gnu/bin/../lib/gcc/nios2-elf/8.3.1/../../../../../H-x86_64-pc-linux-gnu/nios2-elf/lib/mno-hw-mul/libc.a(lib_a-mallocr.o)
 .debug_frame   0x0000000000004f70       0x20 /home/efesxzc/intelFPGA_lite/19.1/nios2eds/bin/gnu/H-x86_64-pc-linux-gnu/bin/../lib/gcc/nios2-elf/8.3.1/../../../../../H-x86_64-pc-linux-gnu/nios2-elf/lib/mno-hw-mul/libc.a(lib_a-memchr.o)
 .debug_frame   0x0000000000004f90      0x2fc /home/efesxzc/intelFPGA_lite/19.1/nios2eds/bin/gnu/H-x86_64-pc-linux-gnu/bin/../lib/gcc/nios2-elf/8.3.1/../../../../../H-x86_64-pc-linux-gnu/nios2-elf/lib/mno-hw-mul/libc.a(lib_a-mprec.o)
 .debug_frame   0x000000000000528c       0x70 /home/efesxzc/intelFPGA_lite/19.1/nios2eds/bin/gnu/H-x86_64-pc-linux-gnu/bin/../lib/gcc/nios2-elf/8.3.1/../../../../../H-x86_64-pc-linux-gnu/nios2-elf/lib/mno-hw-mul/libc.a(lib_a-reallocr.o)
 .debug_frame   0x00000000000052fc       0x3c /home/efesxzc/intelFPGA_lite/19.1/nios2eds/bin/gnu/H-x86_64-pc-linux-gnu/bin/../lib/gcc/nios2-elf/8.3.1/../../../../../H-x86_64-pc-linux-gnu/nios2-elf/lib/mno-hw-mul/libc.a(lib_a-sbrkr.o)
 .debug_frame   0x0000000000005338       0xb8 /home/efesxzc/intelFPGA_lite/19.1/nios2eds/bin/gnu/H-x86_64-pc-linux-gnu/bin/../lib/gcc/nios2-elf/8.3.1/../../../../../H-x86_64-pc-linux-gnu/nios2-elf/lib/mno-hw-mul/libc.a(lib_a-stdio.o)
 .debug_frame   0x00000000000053f0       0x20 /home/efesxzc/intelFPGA_lite/19.1/nios2eds/bin/gnu/H-x86_64-pc-linux-gnu/bin/../lib/gcc/nios2-elf/8.3.1/../../../../../H-x86_64-pc-linux-gnu/nios2-elf/lib/mno-hw-mul/libc.a(lib_a-strchr.o)
 .debug_frame   0x0000000000005410       0x20 /home/efesxzc/intelFPGA_lite/19.1/nios2eds/bin/gnu/H-x86_64-pc-linux-gnu/bin/../lib/gcc/nios2-elf/8.3.1/../../../../../H-x86_64-pc-linux-gnu/nios2-elf/lib/mno-hw-mul/libc.a(lib_a-strnlen.o)
 .debug_frame   0x0000000000005430       0x9c /home/efesxzc/intelFPGA_lite/19.1/nios2eds/bin/gnu/H-x86_64-pc-linux-gnu/bin/../lib/gcc/nios2-elf/8.3.1/../../../../../H-x86_64-pc-linux-gnu/nios2-elf/lib/mno-hw-mul/libc.a(lib_a-svfiprintf.o)
 .debug_frame   0x00000000000054cc       0xec /home/efesxzc/intelFPGA_lite/19.1/nios2eds/bin/gnu/H-x86_64-pc-linux-gnu/bin/../lib/gcc/nios2-elf/8.3.1/../../../../../H-x86_64-pc-linux-gnu/nios2-elf/lib/mno-hw-mul/libc.a(lib_a-vfiprintf.o)
 .debug_frame   0x00000000000055b8       0x3c /home/efesxzc/intelFPGA_lite/19.1/nios2eds/bin/gnu/H-x86_64-pc-linux-gnu/bin/../lib/gcc/nios2-elf/8.3.1/../../../../../H-x86_64-pc-linux-gnu/nios2-elf/lib/mno-hw-mul/libc.a(lib_a-writer.o)
 .debug_frame   0x00000000000055f4       0x3c /home/efesxzc/intelFPGA_lite/19.1/nios2eds/bin/gnu/H-x86_64-pc-linux-gnu/bin/../lib/gcc/nios2-elf/8.3.1/../../../../../H-x86_64-pc-linux-gnu/nios2-elf/lib/mno-hw-mul/libc.a(closer.o)
 .debug_frame   0x0000000000005630       0x34 /home/efesxzc/intelFPGA_lite/19.1/nios2eds/bin/gnu/H-x86_64-pc-linux-gnu/bin/../lib/gcc/nios2-elf/8.3.1/../../../../../H-x86_64-pc-linux-gnu/nios2-elf/lib/mno-hw-mul/libc.a(lib_a-callocr.o)
 .debug_frame   0x0000000000005664       0x4c /home/efesxzc/intelFPGA_lite/19.1/nios2eds/bin/gnu/H-x86_64-pc-linux-gnu/bin/../lib/gcc/nios2-elf/8.3.1/../../../../../H-x86_64-pc-linux-gnu/nios2-elf/lib/mno-hw-mul/libc.a(lib_a-fclose.o)
 .debug_frame   0x00000000000056b0       0x7c /home/efesxzc/intelFPGA_lite/19.1/nios2eds/bin/gnu/H-x86_64-pc-linux-gnu/bin/../lib/gcc/nios2-elf/8.3.1/../../../../../H-x86_64-pc-linux-gnu/nios2-elf/lib/mno-hw-mul/libc.a(lib_a-fputwc.o)
 .debug_frame   0x000000000000572c       0x3c /home/efesxzc/intelFPGA_lite/19.1/nios2eds/bin/gnu/H-x86_64-pc-linux-gnu/bin/../lib/gcc/nios2-elf/8.3.1/../../../../../H-x86_64-pc-linux-gnu/nios2-elf/lib/mno-hw-mul/libc.a(lib_a-fstatr.o)
 .debug_frame   0x0000000000005768       0x3c /home/efesxzc/intelFPGA_lite/19.1/nios2eds/bin/gnu/H-x86_64-pc-linux-gnu/bin/../lib/gcc/nios2-elf/8.3.1/../../../../../H-x86_64-pc-linux-gnu/nios2-elf/lib/mno-hw-mul/libc.a(lib_a-isattyr.o)
 .debug_frame   0x00000000000057a4       0x58 /home/efesxzc/intelFPGA_lite/19.1/nios2eds/bin/gnu/H-x86_64-pc-linux-gnu/bin/../lib/gcc/nios2-elf/8.3.1/../../../../../H-x86_64-pc-linux-gnu/nios2-elf/lib/mno-hw-mul/libc.a(lib_a-locale.o)
 .debug_frame   0x00000000000057fc       0x3c /home/efesxzc/intelFPGA_lite/19.1/nios2eds/bin/gnu/H-x86_64-pc-linux-gnu/bin/../lib/gcc/nios2-elf/8.3.1/../../../../../H-x86_64-pc-linux-gnu/nios2-elf/lib/mno-hw-mul/libc.a(lib_a-lseekr.o)
 .debug_frame   0x0000000000005838       0x40 /home/efesxzc/intelFPGA_lite/19.1/nios2eds/bin/gnu/H-x86_64-pc-linux-gnu/bin/../lib/gcc/nios2-elf/8.3.1/../../../../../H-x86_64-pc-linux-gnu/nios2-elf/lib/mno-hw-mul/libc.a(lib_a-mbtowc_r.o)
 .debug_frame   0x0000000000005878       0x3c /home/efesxzc/intelFPGA_lite/19.1/nios2eds/bin/gnu/H-x86_64-pc-linux-gnu/bin/../lib/gcc/nios2-elf/8.3.1/../../../../../H-x86_64-pc-linux-gnu/nios2-elf/lib/mno-hw-mul/libc.a(lib_a-readr.o)
 .debug_frame   0x00000000000058b4       0x20 /home/efesxzc/intelFPGA_lite/19.1/nios2eds/bin/gnu/H-x86_64-pc-linux-gnu/bin/../lib/gcc/nios2-elf/8.3.1/../../../../../H-x86_64-pc-linux-gnu/nios2-elf/lib/mno-hw-mul/libc.a(lib_a-strcmp.o)
 .debug_frame   0x00000000000058d4       0x50 /home/efesxzc/intelFPGA_lite/19.1/nios2eds/bin/gnu/H-x86_64-pc-linux-gnu/bin/../lib/gcc/nios2-elf/8.3.1/../../../../../H-x86_64-pc-linux-gnu/nios2-elf/lib/mno-hw-mul/libc.a(lib_a-wbuf.o)
 .debug_frame   0x0000000000005924       0x60 /home/efesxzc/intelFPGA_lite/19.1/nios2eds/bin/gnu/H-x86_64-pc-linux-gnu/bin/../lib/gcc/nios2-elf/8.3.1/../../../../../H-x86_64-pc-linux-gnu/nios2-elf/lib/mno-hw-mul/libc.a(lib_a-wcrtomb.o)
 .debug_frame   0x0000000000005984       0x30 /home/efesxzc/intelFPGA_lite/19.1/nios2eds/bin/gnu/H-x86_64-pc-linux-gnu/bin/../lib/gcc/nios2-elf/8.3.1/../../../../../H-x86_64-pc-linux-gnu/nios2-elf/lib/mno-hw-mul/libc.a(lib_a-wctomb_r.o)
 .debug_frame   0x00000000000059b4       0x54 /home/efesxzc/intelFPGA_lite/19.1/nios2eds/bin/gnu/H-x86_64-pc-linux-gnu/bin/../lib/gcc/nios2-elf/8.3.1/mno-hw-mul/libgcc.a(_muldi3.o)
 .debug_frame   0x0000000000005a08       0x54 /home/efesxzc/intelFPGA_lite/19.1/nios2eds/bin/gnu/H-x86_64-pc-linux-gnu/bin/../lib/gcc/nios2-elf/8.3.1/mno-hw-mul/libgcc.a(_udivdi3.o)
 .debug_frame   0x0000000000005a5c       0x54 /home/efesxzc/intelFPGA_lite/19.1/nios2eds/bin/gnu/H-x86_64-pc-linux-gnu/bin/../lib/gcc/nios2-elf/8.3.1/mno-hw-mul/libgcc.a(_umoddi3.o)
 .debug_frame   0x0000000000005ab0       0x44 /home/efesxzc/intelFPGA_lite/19.1/nios2eds/bin/gnu/H-x86_64-pc-linux-gnu/bin/../lib/gcc/nios2-elf/8.3.1/mno-hw-mul/libgcc.a(adddf3.o)
 .debug_frame   0x0000000000005af4       0x58 /home/efesxzc/intelFPGA_lite/19.1/nios2eds/bin/gnu/H-x86_64-pc-linux-gnu/bin/../lib/gcc/nios2-elf/8.3.1/mno-hw-mul/libgcc.a(divdf3.o)
 .debug_frame   0x0000000000005b4c       0x20 /home/efesxzc/intelFPGA_lite/19.1/nios2eds/bin/gnu/H-x86_64-pc-linux-gnu/bin/../lib/gcc/nios2-elf/8.3.1/mno-hw-mul/libgcc.a(eqdf2.o)
 .debug_frame   0x0000000000005b6c       0x20 /home/efesxzc/intelFPGA_lite/19.1/nios2eds/bin/gnu/H-x86_64-pc-linux-gnu/bin/../lib/gcc/nios2-elf/8.3.1/mno-hw-mul/libgcc.a(gedf2.o)
 .debug_frame   0x0000000000005b8c       0x20 /home/efesxzc/intelFPGA_lite/19.1/nios2eds/bin/gnu/H-x86_64-pc-linux-gnu/bin/../lib/gcc/nios2-elf/8.3.1/mno-hw-mul/libgcc.a(ledf2.o)
 .debug_frame   0x0000000000005bac       0x58 /home/efesxzc/intelFPGA_lite/19.1/nios2eds/bin/gnu/H-x86_64-pc-linux-gnu/bin/../lib/gcc/nios2-elf/8.3.1/mno-hw-mul/libgcc.a(muldf3.o)
 .debug_frame   0x0000000000005c04       0x44 /home/efesxzc/intelFPGA_lite/19.1/nios2eds/bin/gnu/H-x86_64-pc-linux-gnu/bin/../lib/gcc/nios2-elf/8.3.1/mno-hw-mul/libgcc.a(subdf3.o)
 .debug_frame   0x0000000000005c48       0x20 /home/efesxzc/intelFPGA_lite/19.1/nios2eds/bin/gnu/H-x86_64-pc-linux-gnu/bin/../lib/gcc/nios2-elf/8.3.1/mno-hw-mul/libgcc.a(unorddf2.o)
 .debug_frame   0x0000000000005c68       0x20 /home/efesxzc/intelFPGA_lite/19.1/nios2eds/bin/gnu/H-x86_64-pc-linux-gnu/bin/../lib/gcc/nios2-elf/8.3.1/mno-hw-mul/libgcc.a(fixdfsi.o)
 .debug_frame   0x0000000000005c88       0x38 /home/efesxzc/intelFPGA_lite/19.1/nios2eds/bin/gnu/H-x86_64-pc-linux-gnu/bin/../lib/gcc/nios2-elf/8.3.1/mno-hw-mul/libgcc.a(floatsidf.o)
 .debug_frame   0x0000000000005cc0       0x34 /home/efesxzc/intelFPGA_lite/19.1/nios2eds/bin/gnu/H-x86_64-pc-linux-gnu/bin/../lib/gcc/nios2-elf/8.3.1/mno-hw-mul/libgcc.a(floatunsidf.o)
 .debug_frame   0x0000000000005cf4       0x20 /home/efesxzc/intelFPGA_lite/19.1/nios2eds/bin/gnu/H-x86_64-pc-linux-gnu/bin/../lib/gcc/nios2-elf/8.3.1/mno-hw-mul/libgcc.a(_clzsi2.o)
 .debug_frame   0x0000000000005d14       0x60 ../civ_002_bsp//libhal_bsp.a(alt_close.o)
 .debug_frame   0x0000000000005d74       0x34 ../civ_002_bsp//libhal_bsp.a(alt_dev.o)
 .debug_frame   0x0000000000005da8       0x60 ../civ_002_bsp//libhal_bsp.a(alt_fstat.o)
 .debug_frame   0x0000000000005e08       0x38 ../civ_002_bsp//libhal_bsp.a(alt_irq_handler.o)
 .debug_frame   0x0000000000005e40       0x60 ../civ_002_bsp//libhal_bsp.a(alt_isatty.o)
 .debug_frame   0x0000000000005ea0       0x5c ../civ_002_bsp//libhal_bsp.a(alt_load.o)
 .debug_frame   0x0000000000005efc       0x60 ../civ_002_bsp//libhal_bsp.a(alt_lseek.o)
 .debug_frame   0x0000000000005f5c       0x2c ../civ_002_bsp//libhal_bsp.a(alt_main.o)
 .debug_frame   0x0000000000005f88       0x58 ../civ_002_bsp//libhal_bsp.a(alt_malloc_lock.o)
 .debug_frame   0x0000000000005fe0       0x60 ../civ_002_bsp//libhal_bsp.a(alt_read.o)
 .debug_frame   0x0000000000006040       0x34 ../civ_002_bsp//libhal_bsp.a(alt_release_fd.o)
 .debug_frame   0x0000000000006074       0x34 ../civ_002_bsp//libhal_bsp.a(alt_sbrk.o)
 .debug_frame   0x00000000000060a8       0x60 ../civ_002_bsp//libhal_bsp.a(alt_write.o)
 .debug_frame   0x0000000000006108       0x60 ../civ_002_bsp//libhal_bsp.a(alt_sys_init.o)
 .debug_frame   0x0000000000006168      0x5dc ../civ_002_bsp//libhal_bsp.a(altera_avalon_i2c.o)
 .debug_frame   0x0000000000006744       0x34 ../civ_002_bsp//libhal_bsp.a(altera_avalon_spi.o)
 .debug_frame   0x0000000000006778       0x60 ../civ_002_bsp//libhal_bsp.a(altera_avalon_timer_sc.o)
 .debug_frame   0x00000000000067d8       0x38 ../civ_002_bsp//libhal_bsp.a(alt_busy_sleep.o)
 .debug_frame   0x0000000000006810       0x34 ../civ_002_bsp//libhal_bsp.a(alt_dcache_flush_all.o)
 .debug_frame   0x0000000000006844       0x60 ../civ_002_bsp//libhal_bsp.a(alt_dev_llist_insert.o)
 .debug_frame   0x00000000000068a4       0x38 ../civ_002_bsp//libhal_bsp.a(alt_do_ctors.o)
 .debug_frame   0x00000000000068dc       0x38 ../civ_002_bsp//libhal_bsp.a(alt_do_dtors.o)
 .debug_frame   0x0000000000006914       0x38 ../civ_002_bsp//libhal_bsp.a(alt_find_dev.o)
 .debug_frame   0x000000000000694c       0x34 ../civ_002_bsp//libhal_bsp.a(alt_icache_flush_all.o)
 .debug_frame   0x0000000000006980       0x38 ../civ_002_bsp//libhal_bsp.a(alt_printf.o)
 .debug_frame   0x00000000000069b8       0x38 ../civ_002_bsp//libhal_bsp.a(alt_putchar.o)
 .debug_frame   0x00000000000069f0       0x5c ../civ_002_bsp//libhal_bsp.a(alt_tick.o)
 .debug_frame   0x0000000000006a4c       0x34 ../civ_002_bsp//libhal_bsp.a(altera_nios2_gen2_irq.o)
 .debug_frame   0x0000000000006a80       0x20 /home/efesxzc/intelFPGA_lite/19.1/nios2eds/bin/gnu/H-x86_64-pc-linux-gnu/bin/../lib/gcc/nios2-elf/8.3.1/../../../../../H-x86_64-pc-linux-gnu/nios2-elf/lib/mno-hw-mul/libc.a(lib_a-atexit.o)
 .debug_frame   0x0000000000006aa0       0x28 /home/efesxzc/intelFPGA_lite/19.1/nios2eds/bin/gnu/H-x86_64-pc-linux-gnu/bin/../lib/gcc/nios2-elf/8.3.1/../../../../../H-x86_64-pc-linux-gnu/nios2-elf/lib/mno-hw-mul/libc.a(lib_a-exit.o)
 .debug_frame   0x0000000000006ac8       0x30 /home/efesxzc/intelFPGA_lite/19.1/nios2eds/bin/gnu/H-x86_64-pc-linux-gnu/bin/../lib/gcc/nios2-elf/8.3.1/../../../../../H-x86_64-pc-linux-gnu/nios2-elf/lib/mno-hw-mul/libc.a(lib_a-putchar.o)
 .debug_frame   0x0000000000006af8       0x20 /home/efesxzc/intelFPGA_lite/19.1/nios2eds/bin/gnu/H-x86_64-pc-linux-gnu/bin/../lib/gcc/nios2-elf/8.3.1/../../../../../H-x86_64-pc-linux-gnu/nios2-elf/lib/mno-hw-mul/libc.a(lib_a-__atexit.o)
 .debug_frame   0x0000000000006b18       0x50 /home/efesxzc/intelFPGA_lite/19.1/nios2eds/bin/gnu/H-x86_64-pc-linux-gnu/bin/../lib/gcc/nios2-elf/8.3.1/../../../../../H-x86_64-pc-linux-gnu/nios2-elf/lib/mno-hw-mul/libc.a(lib_a-__call_atexit.o)
 .debug_frame   0x0000000000006b68       0x78 /home/efesxzc/intelFPGA_lite/19.1/nios2eds/bin/gnu/H-x86_64-pc-linux-gnu/bin/../lib/gcc/nios2-elf/8.3.1/../../../../../H-x86_64-pc-linux-gnu/nios2-elf/lib/mno-hw-mul/libc.a(lib_a-putc.o)
 .debug_frame   0x0000000000006be0       0x2c ../civ_002_bsp//libhal_bsp.a(alt_exit.o)

.debug_str      0x0000000000000000     0xa19f
 *(.debug_str)
 .debug_str     0x0000000000000000       0x5d ../civ_002_bsp//obj/HAL/src/crt0.o
 .debug_str     0x000000000000005d      0x71e obj/default/./CLI-Commands.o
                                        0x7fb (size before relaxing)
 .debug_str     0x000000000000077b      0x269 obj/default/./at24c08.o
                                        0x7ec (size before relaxing)
 .debug_str     0x00000000000009e4      0x1eb obj/default/./http_server.o
                                        0x7ad (size before relaxing)
 .debug_str     0x0000000000000bcf       0x88 obj/default/./lm75.o
                                        0x7f3 (size before relaxing)
 .debug_str     0x0000000000000c57      0x3bf obj/default/./main.o
                                        0xa0e (size before relaxing)
 .debug_str     0x0000000000001016       0x59 obj/default/./telnet_server.o
                                        0x70e (size before relaxing)
 .debug_str     0x000000000000106f       0x24 obj/default/FreeRTOS/FreeRTOS-Kernel/croutine.o
                                        0x53c (size before relaxing)
 .debug_str     0x0000000000001093      0x2f1 obj/default/FreeRTOS/FreeRTOS-Kernel/event_groups.o
                                        0x8f6 (size before relaxing)
 .debug_str     0x0000000000001384       0xad obj/default/FreeRTOS/FreeRTOS-Kernel/list.o
                                        0x695 (size before relaxing)
 .debug_str     0x0000000000001431      0x17c obj/default/FreeRTOS/FreeRTOS-Kernel/portable/GCC/NiosII/port.o
                                        0x6fd (size before relaxing)
 .debug_str     0x00000000000015ad       0x5f obj/default/FreeRTOS/FreeRTOS-Kernel/portable/portTimer.o
                                        0x5d2 (size before relaxing)
 .debug_str     0x000000000000160c      0x579 obj/default/FreeRTOS/FreeRTOS-Kernel/queue.o
                                        0xc1a (size before relaxing)
 .debug_str     0x0000000000001b85      0x4a5 obj/default/FreeRTOS/FreeRTOS-Kernel/stream_buffer.o
                                        0xb30 (size before relaxing)
 .debug_str     0x000000000000202a      0xc86 obj/default/FreeRTOS/FreeRTOS-Kernel/tasks.o
                                       0x14a2 (size before relaxing)
 .debug_str     0x0000000000002cb0       0x22 obj/default/FreeRTOS/FreeRTOS-Kernel/timers.o
                                        0x544 (size before relaxing)
 .debug_str     0x0000000000002cd2      0x1f1 obj/default/FreeRTOS/FreeRTOS-Plus-CLI/FreeRTOS_CLI.o
                                        0x82a (size before relaxing)
 .debug_str     0x0000000000002ec3      0x78f obj/default/FreeRTOS/FreeRTOS-Plus-TCP/FreeRTOS_ARP.o
                                        0xf0f (size before relaxing)
 .debug_str     0x0000000000003652       0x2b obj/default/FreeRTOS/FreeRTOS-Plus-TCP/FreeRTOS_DHCP.o
                                        0x7ec (size before relaxing)
 .debug_str     0x000000000000367d       0x2a obj/default/FreeRTOS/FreeRTOS-Plus-TCP/FreeRTOS_DNS.o
                                        0x7eb (size before relaxing)
 .debug_str     0x00000000000036a7     0x10d4 obj/default/FreeRTOS/FreeRTOS-Plus-TCP/FreeRTOS_IP.o
                                       0x200a (size before relaxing)
 .debug_str     0x000000000000477b      0xb43 obj/default/FreeRTOS/FreeRTOS-Plus-TCP/FreeRTOS_Sockets.o
                                       0x1dec (size before relaxing)
 .debug_str     0x00000000000052be       0xa3 obj/default/FreeRTOS/FreeRTOS-Plus-TCP/FreeRTOS_Stream_Buffer.o
                                        0x983 (size before relaxing)
 .debug_str     0x0000000000005361      0x6da obj/default/FreeRTOS/FreeRTOS-Plus-TCP/FreeRTOS_TCP_IP.o
                                       0x1c3a (size before relaxing)
 .debug_str     0x0000000000005a3b      0x1a5 obj/default/FreeRTOS/FreeRTOS-Plus-TCP/FreeRTOS_TCP_WIN.o
                                        0xc11 (size before relaxing)
 .debug_str     0x0000000000005be0       0x97 obj/default/FreeRTOS/FreeRTOS-Plus-TCP/FreeRTOS_UDP_IP.o
                                       0x1267 (size before relaxing)
 .debug_str     0x0000000000005c77      0x1b8 obj/default/FreeRTOS/FreeRTOS-Plus-TCP/portable/NetworkInterface/ENC28J60/NetworkInterface.o
                                        0xbb4 (size before relaxing)
 .debug_str     0x0000000000005e2f      0x19a obj/default/FreeRTOS/FreeRTOS-Plus-TCP/portable/NetworkInterface/ENC28J60/enc.o
                                        0x714 (size before relaxing)
 .debug_str     0x0000000000005fc9      0x1f0 obj/default/FreeRTOS/FreeRTOS-Kernel/portable/MemMang/heap_4.o
                                        0x85d (size before relaxing)
 .debug_str     0x00000000000061b9      0x1bd obj/default/FreeRTOS/FreeRTOS-Plus-TCP/portable/BufferManagement/BufferAllocation_1.o
                                        0xac8 (size before relaxing)
 .debug_str     0x0000000000006376       0x38 obj/default/FreeRTOS/FreeRTOS-Kernel/portable/GCC/NiosII/port_asm.o
                                         0x82 (size before relaxing)
 .debug_str     0x00000000000063ae      0x193 /home/efesxzc/intelFPGA_lite/19.1/nios2eds/bin/gnu/H-x86_64-pc-linux-gnu/bin/../lib/gcc/nios2-elf/8.3.1/mno-hw-mul/libgcc.a(lib2-divmod.o)
                                        0x1de (size before relaxing)
 .debug_str     0x0000000000006541       0x42 /home/efesxzc/intelFPGA_lite/19.1/nios2eds/bin/gnu/H-x86_64-pc-linux-gnu/bin/../lib/gcc/nios2-elf/8.3.1/mno-hw-mul/libgcc.a(lib2-mul.o)
                                        0x19f (size before relaxing)
 .debug_str     0x0000000000006583      0x137 /home/efesxzc/intelFPGA_lite/19.1/nios2eds/bin/gnu/H-x86_64-pc-linux-gnu/bin/../lib/gcc/nios2-elf/8.3.1/../../../../../H-x86_64-pc-linux-gnu/nios2-elf/lib/mno-hw-mul/libc.a(lib_a-memcmp.o)
                                        0x5b9 (size before relaxing)
 .debug_str     0x00000000000066ba      0x2b8 /home/efesxzc/intelFPGA_lite/19.1/nios2eds/bin/gnu/H-x86_64-pc-linux-gnu/bin/../lib/gcc/nios2-elf/8.3.1/../../../../../H-x86_64-pc-linux-gnu/nios2-elf/lib/mno-hw-mul/libc.a(lib_a-memcpy.o)
                                        0x8f5 (size before relaxing)
 .debug_str     0x0000000000006972       0x5a /home/efesxzc/intelFPGA_lite/19.1/nios2eds/bin/gnu/H-x86_64-pc-linux-gnu/bin/../lib/gcc/nios2-elf/8.3.1/../../../../../H-x86_64-pc-linux-gnu/nios2-elf/lib/mno-hw-mul/libc.a(lib_a-memmove.o)
                                        0x901 (size before relaxing)
 .debug_str     0x00000000000069cc       0x4c /home/efesxzc/intelFPGA_lite/19.1/nios2eds/bin/gnu/H-x86_64-pc-linux-gnu/bin/../lib/gcc/nios2-elf/8.3.1/../../../../../H-x86_64-pc-linux-gnu/nios2-elf/lib/mno-hw-mul/libc.a(lib_a-memset.o)
                                        0x8e2 (size before relaxing)
 .debug_str     0x0000000000006a18      0x21d /home/efesxzc/intelFPGA_lite/19.1/nios2eds/bin/gnu/H-x86_64-pc-linux-gnu/bin/../lib/gcc/nios2-elf/8.3.1/../../../../../H-x86_64-pc-linux-gnu/nios2-elf/lib/mno-hw-mul/libc.a(lib_a-printf.o)
                                        0x749 (size before relaxing)
 .debug_str     0x0000000000006c35       0xaa /home/efesxzc/intelFPGA_lite/19.1/nios2eds/bin/gnu/H-x86_64-pc-linux-gnu/bin/../lib/gcc/nios2-elf/8.3.1/../../../../../H-x86_64-pc-linux-gnu/nios2-elf/lib/mno-hw-mul/libc.a(lib_a-puts.o)
                                        0x76a (size before relaxing)
 .debug_str     0x0000000000006cdf       0xd3 /home/efesxzc/intelFPGA_lite/19.1/nios2eds/bin/gnu/H-x86_64-pc-linux-gnu/bin/../lib/gcc/nios2-elf/8.3.1/../../../../../H-x86_64-pc-linux-gnu/nios2-elf/lib/mno-hw-mul/libc.a(lib_a-rand.o)
                                        0x5c9 (size before relaxing)
 .debug_str     0x0000000000006db2       0x6d /home/efesxzc/intelFPGA_lite/19.1/nios2eds/bin/gnu/H-x86_64-pc-linux-gnu/bin/../lib/gcc/nios2-elf/8.3.1/../../../../../H-x86_64-pc-linux-gnu/nios2-elf/lib/mno-hw-mul/libc.a(lib_a-snprintf.o)
                                        0x764 (size before relaxing)
 .debug_str     0x0000000000006e1f       0x4a /home/efesxzc/intelFPGA_lite/19.1/nios2eds/bin/gnu/H-x86_64-pc-linux-gnu/bin/../lib/gcc/nios2-elf/8.3.1/../../../../../H-x86_64-pc-linux-gnu/nios2-elf/lib/mno-hw-mul/libc.a(lib_a-sprintf.o)
                                        0x73e (size before relaxing)
 .debug_str     0x0000000000006e69       0x3f /home/efesxzc/intelFPGA_lite/19.1/nios2eds/bin/gnu/H-x86_64-pc-linux-gnu/bin/../lib/gcc/nios2-elf/8.3.1/../../../../../H-x86_64-pc-linux-gnu/nios2-elf/lib/mno-hw-mul/libc.a(lib_a-strcpy.o)
                                        0x5d4 (size before relaxing)
 .debug_str     0x0000000000006ea8       0x3f /home/efesxzc/intelFPGA_lite/19.1/nios2eds/bin/gnu/H-x86_64-pc-linux-gnu/bin/../lib/gcc/nios2-elf/8.3.1/../../../../../H-x86_64-pc-linux-gnu/nios2-elf/lib/mno-hw-mul/libc.a(lib_a-strlen.o)
                                        0x5cc (size before relaxing)
 .debug_str     0x0000000000006ee7       0x48 /home/efesxzc/intelFPGA_lite/19.1/nios2eds/bin/gnu/H-x86_64-pc-linux-gnu/bin/../lib/gcc/nios2-elf/8.3.1/../../../../../H-x86_64-pc-linux-gnu/nios2-elf/lib/mno-hw-mul/libc.a(lib_a-strncmp.o)
                                        0x5bb (size before relaxing)
 .debug_str     0x0000000000006f2f       0x48 /home/efesxzc/intelFPGA_lite/19.1/nios2eds/bin/gnu/H-x86_64-pc-linux-gnu/bin/../lib/gcc/nios2-elf/8.3.1/../../../../../H-x86_64-pc-linux-gnu/nios2-elf/lib/mno-hw-mul/libc.a(lib_a-strncpy.o)
                                        0x5e3 (size before relaxing)
 .debug_str     0x0000000000006f77      0x105 /home/efesxzc/intelFPGA_lite/19.1/nios2eds/bin/gnu/H-x86_64-pc-linux-gnu/bin/../lib/gcc/nios2-elf/8.3.1/../../../../../H-x86_64-pc-linux-gnu/nios2-elf/lib/mno-hw-mul/libc.a(lib_a-strstr.o)
                                        0x6ce (size before relaxing)
 .debug_str     0x000000000000707c       0xae /home/efesxzc/intelFPGA_lite/19.1/nios2eds/bin/gnu/H-x86_64-pc-linux-gnu/bin/../lib/gcc/nios2-elf/8.3.1/../../../../../H-x86_64-pc-linux-gnu/nios2-elf/lib/mno-hw-mul/libc.a(lib_a-strtol.o)
                                        0x970 (size before relaxing)
 .debug_str     0x000000000000712a      0x1c5 /home/efesxzc/intelFPGA_lite/19.1/nios2eds/bin/gnu/H-x86_64-pc-linux-gnu/bin/../lib/gcc/nios2-elf/8.3.1/../../../../../H-x86_64-pc-linux-gnu/nios2-elf/lib/mno-hw-mul/libc.a(lib_a-svfprintf.o)
                                        0xc8e (size before relaxing)
 .debug_str     0x00000000000072ef       0x31 /home/efesxzc/intelFPGA_lite/19.1/nios2eds/bin/gnu/H-x86_64-pc-linux-gnu/bin/../lib/gcc/nios2-elf/8.3.1/../../../../../H-x86_64-pc-linux-gnu/nios2-elf/lib/mno-hw-mul/libc.a(lib_a-vfprintf.o)
                                        0xce0 (size before relaxing)
 .debug_str     0x0000000000007320       0x53 /home/efesxzc/intelFPGA_lite/19.1/nios2eds/bin/gnu/H-x86_64-pc-linux-gnu/bin/../lib/gcc/nios2-elf/8.3.1/../../../../../H-x86_64-pc-linux-gnu/nios2-elf/lib/mno-hw-mul/libc.a(lib_a-wsetup.o)
                                        0x739 (size before relaxing)
 .debug_str     0x0000000000007373       0xd6 /home/efesxzc/intelFPGA_lite/19.1/nios2eds/bin/gnu/H-x86_64-pc-linux-gnu/bin/../lib/gcc/nios2-elf/8.3.1/../../../../../H-x86_64-pc-linux-gnu/nios2-elf/lib/mno-hw-mul/libc.a(lib_a-ctype_.o)
                                        0x8d6 (size before relaxing)
 .debug_str     0x0000000000007449      0x186 /home/efesxzc/intelFPGA_lite/19.1/nios2eds/bin/gnu/H-x86_64-pc-linux-gnu/bin/../lib/gcc/nios2-elf/8.3.1/../../../../../H-x86_64-pc-linux-gnu/nios2-elf/lib/mno-hw-mul/libc.a(lib_a-dtoa.o)
                                        0xaaf (size before relaxing)
 .debug_str     0x00000000000075cf       0x6e /home/efesxzc/intelFPGA_lite/19.1/nios2eds/bin/gnu/H-x86_64-pc-linux-gnu/bin/../lib/gcc/nios2-elf/8.3.1/../../../../../H-x86_64-pc-linux-gnu/nios2-elf/lib/mno-hw-mul/libc.a(lib_a-fflush.o)
                                        0x767 (size before relaxing)
 .debug_str     0x000000000000763d      0x187 /home/efesxzc/intelFPGA_lite/19.1/nios2eds/bin/gnu/H-x86_64-pc-linux-gnu/bin/../lib/gcc/nios2-elf/8.3.1/../../../../../H-x86_64-pc-linux-gnu/nios2-elf/lib/mno-hw-mul/libc.a(lib_a-findfp.o)
                                        0x888 (size before relaxing)
 .debug_str     0x00000000000077c4      0x1ac /home/efesxzc/intelFPGA_lite/19.1/nios2eds/bin/gnu/H-x86_64-pc-linux-gnu/bin/../lib/gcc/nios2-elf/8.3.1/../../../../../H-x86_64-pc-linux-gnu/nios2-elf/lib/mno-hw-mul/libc.a(lib_a-freer.o)
                                        0x796 (size before relaxing)
 .debug_str     0x0000000000007970       0x68 /home/efesxzc/intelFPGA_lite/19.1/nios2eds/bin/gnu/H-x86_64-pc-linux-gnu/bin/../lib/gcc/nios2-elf/8.3.1/../../../../../H-x86_64-pc-linux-gnu/nios2-elf/lib/mno-hw-mul/libc.a(lib_a-fvwrite.o)
                                        0x7c9 (size before relaxing)
 .debug_str     0x00000000000079d8       0x4c /home/efesxzc/intelFPGA_lite/19.1/nios2eds/bin/gnu/H-x86_64-pc-linux-gnu/bin/../lib/gcc/nios2-elf/8.3.1/../../../../../H-x86_64-pc-linux-gnu/nios2-elf/lib/mno-hw-mul/libc.a(lib_a-fwalk.o)
                                        0x72b (size before relaxing)
 .debug_str     0x0000000000007a24       0xd9 /home/efesxzc/intelFPGA_lite/19.1/nios2eds/bin/gnu/H-x86_64-pc-linux-gnu/bin/../lib/gcc/nios2-elf/8.3.1/../../../../../H-x86_64-pc-linux-gnu/nios2-elf/lib/mno-hw-mul/libc.a(lib_a-impure.o)
                                        0x5b5 (size before relaxing)
 .debug_str     0x0000000000007afd       0xfc /home/efesxzc/intelFPGA_lite/19.1/nios2eds/bin/gnu/H-x86_64-pc-linux-gnu/bin/../lib/gcc/nios2-elf/8.3.1/../../../../../H-x86_64-pc-linux-gnu/nios2-elf/lib/mno-hw-mul/libc.a(lib_a-localeconv.o)
                                        0x947 (size before relaxing)
 .debug_str     0x0000000000007bf9      0x175 /home/efesxzc/intelFPGA_lite/19.1/nios2eds/bin/gnu/H-x86_64-pc-linux-gnu/bin/../lib/gcc/nios2-elf/8.3.1/../../../../../H-x86_64-pc-linux-gnu/nios2-elf/lib/mno-hw-mul/libc.a(lib_a-makebuf.o)
                                        0x8b5 (size before relaxing)
 .debug_str     0x0000000000007d6e       0xb6 /home/efesxzc/intelFPGA_lite/19.1/nios2eds/bin/gnu/H-x86_64-pc-linux-gnu/bin/../lib/gcc/nios2-elf/8.3.1/../../../../../H-x86_64-pc-linux-gnu/nios2-elf/lib/mno-hw-mul/libc.a(lib_a-mallocr.o)
                                        0x81d (size before relaxing)
 .debug_str     0x0000000000007e24       0x44 /home/efesxzc/intelFPGA_lite/19.1/nios2eds/bin/gnu/H-x86_64-pc-linux-gnu/bin/../lib/gcc/nios2-elf/8.3.1/../../../../../H-x86_64-pc-linux-gnu/nios2-elf/lib/mno-hw-mul/libc.a(lib_a-memchr.o)
                                        0x5d3 (size before relaxing)
 .debug_str     0x0000000000007e68       0x98 /home/efesxzc/intelFPGA_lite/19.1/nios2eds/bin/gnu/H-x86_64-pc-linux-gnu/bin/../lib/gcc/nios2-elf/8.3.1/../../../../../H-x86_64-pc-linux-gnu/nios2-elf/lib/mno-hw-mul/libc.a(lib_a-mprec.o)
                                        0xa58 (size before relaxing)
 .debug_str     0x0000000000007f00       0x4e /home/efesxzc/intelFPGA_lite/19.1/nios2eds/bin/gnu/H-x86_64-pc-linux-gnu/bin/../lib/gcc/nios2-elf/8.3.1/../../../../../H-x86_64-pc-linux-gnu/nios2-elf/lib/mno-hw-mul/libc.a(lib_a-reallocr.o)
                                        0x7d4 (size before relaxing)
 .debug_str     0x0000000000007f4e       0x51 /home/efesxzc/intelFPGA_lite/19.1/nios2eds/bin/gnu/H-x86_64-pc-linux-gnu/bin/../lib/gcc/nios2-elf/8.3.1/../../../../../H-x86_64-pc-linux-gnu/nios2-elf/lib/mno-hw-mul/libc.a(lib_a-sbrkr.o)
                                        0x5f7 (size before relaxing)
 .debug_str     0x0000000000007f9f       0x9d /home/efesxzc/intelFPGA_lite/19.1/nios2eds/bin/gnu/H-x86_64-pc-linux-gnu/bin/../lib/gcc/nios2-elf/8.3.1/../../../../../H-x86_64-pc-linux-gnu/nios2-elf/lib/mno-hw-mul/libc.a(lib_a-stdio.o)
                                        0x77f (size before relaxing)
 .debug_str     0x000000000000803c       0x3f /home/efesxzc/intelFPGA_lite/19.1/nios2eds/bin/gnu/H-x86_64-pc-linux-gnu/bin/../lib/gcc/nios2-elf/8.3.1/../../../../../H-x86_64-pc-linux-gnu/nios2-elf/lib/mno-hw-mul/libc.a(lib_a-strchr.o)
                                        0x5c4 (size before relaxing)
 .debug_str     0x000000000000807b       0x40 /home/efesxzc/intelFPGA_lite/19.1/nios2eds/bin/gnu/H-x86_64-pc-linux-gnu/bin/../lib/gcc/nios2-elf/8.3.1/../../../../../H-x86_64-pc-linux-gnu/nios2-elf/lib/mno-hw-mul/libc.a(lib_a-strnlen.o)
                                        0x5c1 (size before relaxing)
 .debug_str     0x00000000000080bb       0x19 /home/efesxzc/intelFPGA_lite/19.1/nios2eds/bin/gnu/H-x86_64-pc-linux-gnu/bin/../lib/gcc/nios2-elf/8.3.1/../../../../../H-x86_64-pc-linux-gnu/nios2-elf/lib/mno-hw-mul/libc.a(lib_a-svfiprintf.o)
                                        0xc20 (size before relaxing)
 .debug_str     0x00000000000080d4       0x37 /home/efesxzc/intelFPGA_lite/19.1/nios2eds/bin/gnu/H-x86_64-pc-linux-gnu/bin/../lib/gcc/nios2-elf/8.3.1/../../../../../H-x86_64-pc-linux-gnu/nios2-elf/lib/mno-hw-mul/libc.a(lib_a-vfiprintf.o)
                                        0xc48 (size before relaxing)
 .debug_str     0x000000000000810b       0x3e /home/efesxzc/intelFPGA_lite/19.1/nios2eds/bin/gnu/H-x86_64-pc-linux-gnu/bin/../lib/gcc/nios2-elf/8.3.1/../../../../../H-x86_64-pc-linux-gnu/nios2-elf/lib/mno-hw-mul/libc.a(lib_a-writer.o)
                                        0x5fb (size before relaxing)
 .debug_str     0x0000000000008149       0x3e /home/efesxzc/intelFPGA_lite/19.1/nios2eds/bin/gnu/H-x86_64-pc-linux-gnu/bin/../lib/gcc/nios2-elf/8.3.1/../../../../../H-x86_64-pc-linux-gnu/nios2-elf/lib/mno-hw-mul/libc.a(closer.o)
                                        0x5eb (size before relaxing)
 .debug_str     0x0000000000008187        0xf /home/efesxzc/intelFPGA_lite/19.1/nios2eds/bin/gnu/H-x86_64-pc-linux-gnu/bin/../lib/gcc/nios2-elf/8.3.1/../../../../../H-x86_64-pc-linux-gnu/nios2-elf/lib/mno-hw-mul/libc.a(lib_a-callocr.o)
                                        0x752 (size before relaxing)
 .debug_str     0x0000000000008196       0x4f /home/efesxzc/intelFPGA_lite/19.1/nios2eds/bin/gnu/H-x86_64-pc-linux-gnu/bin/../lib/gcc/nios2-elf/8.3.1/../../../../../H-x86_64-pc-linux-gnu/nios2-elf/lib/mno-hw-mul/libc.a(lib_a-fclose.o)
                                        0x750 (size before relaxing)
 .debug_str     0x00000000000081e5       0x70 /home/efesxzc/intelFPGA_lite/19.1/nios2eds/bin/gnu/H-x86_64-pc-linux-gnu/bin/../lib/gcc/nios2-elf/8.3.1/../../../../../H-x86_64-pc-linux-gnu/nios2-elf/lib/mno-hw-mul/libc.a(lib_a-fputwc.o)
                                        0x770 (size before relaxing)
 .debug_str     0x0000000000008255       0x4a /home/efesxzc/intelFPGA_lite/19.1/nios2eds/bin/gnu/H-x86_64-pc-linux-gnu/bin/../lib/gcc/nios2-elf/8.3.1/../../../../../H-x86_64-pc-linux-gnu/nios2-elf/lib/mno-hw-mul/libc.a(lib_a-fstatr.o)
                                        0x75b (size before relaxing)
 .debug_str     0x000000000000829f       0x41 /home/efesxzc/intelFPGA_lite/19.1/nios2eds/bin/gnu/H-x86_64-pc-linux-gnu/bin/../lib/gcc/nios2-elf/8.3.1/../../../../../H-x86_64-pc-linux-gnu/nios2-elf/lib/mno-hw-mul/libc.a(lib_a-int_errno.o)
                                        0x5bc (size before relaxing)
 .debug_str     0x00000000000082e0       0x46 /home/efesxzc/intelFPGA_lite/19.1/nios2eds/bin/gnu/H-x86_64-pc-linux-gnu/bin/../lib/gcc/nios2-elf/8.3.1/../../../../../H-x86_64-pc-linux-gnu/nios2-elf/lib/mno-hw-mul/libc.a(lib_a-isattyr.o)
                                        0x5ee (size before relaxing)
 .debug_str     0x0000000000008326       0x72 /home/efesxzc/intelFPGA_lite/19.1/nios2eds/bin/gnu/H-x86_64-pc-linux-gnu/bin/../lib/gcc/nios2-elf/8.3.1/../../../../../H-x86_64-pc-linux-gnu/nios2-elf/lib/mno-hw-mul/libc.a(lib_a-locale.o)
                                        0x990 (size before relaxing)
 .debug_str     0x0000000000008398       0x44 /home/efesxzc/intelFPGA_lite/19.1/nios2eds/bin/gnu/H-x86_64-pc-linux-gnu/bin/../lib/gcc/nios2-elf/8.3.1/../../../../../H-x86_64-pc-linux-gnu/nios2-elf/lib/mno-hw-mul/libc.a(lib_a-lseekr.o)
                                        0x5f2 (size before relaxing)
 .debug_str     0x00000000000083dc       0x60 /home/efesxzc/intelFPGA_lite/19.1/nios2eds/bin/gnu/H-x86_64-pc-linux-gnu/bin/../lib/gcc/nios2-elf/8.3.1/../../../../../H-x86_64-pc-linux-gnu/nios2-elf/lib/mno-hw-mul/libc.a(lib_a-mbtowc_r.o)
                                        0x958 (size before relaxing)
 .debug_str     0x000000000000843c       0x3d /home/efesxzc/intelFPGA_lite/19.1/nios2eds/bin/gnu/H-x86_64-pc-linux-gnu/bin/../lib/gcc/nios2-elf/8.3.1/../../../../../H-x86_64-pc-linux-gnu/nios2-elf/lib/mno-hw-mul/libc.a(lib_a-readr.o)
                                        0x5f8 (size before relaxing)
 .debug_str     0x0000000000008479       0x3f /home/efesxzc/intelFPGA_lite/19.1/nios2eds/bin/gnu/H-x86_64-pc-linux-gnu/bin/../lib/gcc/nios2-elf/8.3.1/../../../../../H-x86_64-pc-linux-gnu/nios2-elf/lib/mno-hw-mul/libc.a(lib_a-strcmp.o)
                                        0x5b2 (size before relaxing)
 .debug_str     0x00000000000084b8       0x44 /home/efesxzc/intelFPGA_lite/19.1/nios2eds/bin/gnu/H-x86_64-pc-linux-gnu/bin/../lib/gcc/nios2-elf/8.3.1/../../../../../H-x86_64-pc-linux-gnu/nios2-elf/lib/mno-hw-mul/libc.a(lib_a-wbuf.o)
                                        0x73e (size before relaxing)
 .debug_str     0x00000000000084fc       0x4f /home/efesxzc/intelFPGA_lite/19.1/nios2eds/bin/gnu/H-x86_64-pc-linux-gnu/bin/../lib/gcc/nios2-elf/8.3.1/../../../../../H-x86_64-pc-linux-gnu/nios2-elf/lib/mno-hw-mul/libc.a(lib_a-wcrtomb.o)
                                        0x952 (size before relaxing)
 .debug_str     0x000000000000854b       0x61 /home/efesxzc/intelFPGA_lite/19.1/nios2eds/bin/gnu/H-x86_64-pc-linux-gnu/bin/../lib/gcc/nios2-elf/8.3.1/../../../../../H-x86_64-pc-linux-gnu/nios2-elf/lib/mno-hw-mul/libc.a(lib_a-wctomb_r.o)
                                        0x95f (size before relaxing)
 .debug_str     0x00000000000085ac      0x10d /home/efesxzc/intelFPGA_lite/19.1/nios2eds/bin/gnu/H-x86_64-pc-linux-gnu/bin/../lib/gcc/nios2-elf/8.3.1/mno-hw-mul/libgcc.a(_muldi3.o)
                                        0x2b4 (size before relaxing)
 .debug_str     0x00000000000086b9       0xee /home/efesxzc/intelFPGA_lite/19.1/nios2eds/bin/gnu/H-x86_64-pc-linux-gnu/bin/../lib/gcc/nios2-elf/8.3.1/mno-hw-mul/libgcc.a(_udivdi3.o)
                                        0x310 (size before relaxing)
 .debug_str     0x00000000000087a7        0xa /home/efesxzc/intelFPGA_lite/19.1/nios2eds/bin/gnu/H-x86_64-pc-linux-gnu/bin/../lib/gcc/nios2-elf/8.3.1/mno-hw-mul/libgcc.a(_umoddi3.o)
                                        0x310 (size before relaxing)
 .debug_str     0x00000000000087b1      0x186 /home/efesxzc/intelFPGA_lite/19.1/nios2eds/bin/gnu/H-x86_64-pc-linux-gnu/bin/../lib/gcc/nios2-elf/8.3.1/mno-hw-mul/libgcc.a(adddf3.o)
                                        0x332 (size before relaxing)
 .debug_str     0x0000000000008937      0x19d /home/efesxzc/intelFPGA_lite/19.1/nios2eds/bin/gnu/H-x86_64-pc-linux-gnu/bin/../lib/gcc/nios2-elf/8.3.1/mno-hw-mul/libgcc.a(divdf3.o)
                                        0x3f4 (size before relaxing)
 .debug_str     0x0000000000008ad4       0x4a /home/efesxzc/intelFPGA_lite/19.1/nios2eds/bin/gnu/H-x86_64-pc-linux-gnu/bin/../lib/gcc/nios2-elf/8.3.1/mno-hw-mul/libgcc.a(eqdf2.o)
                                        0x23e (size before relaxing)
 .debug_str     0x0000000000008b1e       0x5d /home/efesxzc/intelFPGA_lite/19.1/nios2eds/bin/gnu/H-x86_64-pc-linux-gnu/bin/../lib/gcc/nios2-elf/8.3.1/mno-hw-mul/libgcc.a(gedf2.o)
                                        0x262 (size before relaxing)
 .debug_str     0x0000000000008b7b       0x39 /home/efesxzc/intelFPGA_lite/19.1/nios2eds/bin/gnu/H-x86_64-pc-linux-gnu/bin/../lib/gcc/nios2-elf/8.3.1/mno-hw-mul/libgcc.a(ledf2.o)
                                        0x262 (size before relaxing)
 .debug_str     0x0000000000008bb4      0x160 /home/efesxzc/intelFPGA_lite/19.1/nios2eds/bin/gnu/H-x86_64-pc-linux-gnu/bin/../lib/gcc/nios2-elf/8.3.1/mno-hw-mul/libgcc.a(muldf3.o)
                                        0x44c (size before relaxing)
 .debug_str     0x0000000000008d14       0x3b /home/efesxzc/intelFPGA_lite/19.1/nios2eds/bin/gnu/H-x86_64-pc-linux-gnu/bin/../lib/gcc/nios2-elf/8.3.1/mno-hw-mul/libgcc.a(subdf3.o)
                                        0x332 (size before relaxing)
 .debug_str     0x0000000000008d4f       0x3f /home/efesxzc/intelFPGA_lite/19.1/nios2eds/bin/gnu/H-x86_64-pc-linux-gnu/bin/../lib/gcc/nios2-elf/8.3.1/mno-hw-mul/libgcc.a(unorddf2.o)
                                        0x244 (size before relaxing)
 .debug_str     0x0000000000008d8e       0x50 /home/efesxzc/intelFPGA_lite/19.1/nios2eds/bin/gnu/H-x86_64-pc-linux-gnu/bin/../lib/gcc/nios2-elf/8.3.1/mno-hw-mul/libgcc.a(fixdfsi.o)
                                        0x249 (size before relaxing)
 .debug_str     0x0000000000008dde       0x6e /home/efesxzc/intelFPGA_lite/19.1/nios2eds/bin/gnu/H-x86_64-pc-linux-gnu/bin/../lib/gcc/nios2-elf/8.3.1/mno-hw-mul/libgcc.a(floatsidf.o)
                                        0x2e4 (size before relaxing)
 .debug_str     0x0000000000008e4c       0x45 /home/efesxzc/intelFPGA_lite/19.1/nios2eds/bin/gnu/H-x86_64-pc-linux-gnu/bin/../lib/gcc/nios2-elf/8.3.1/mno-hw-mul/libgcc.a(floatunsidf.o)
                                        0x2e1 (size before relaxing)
 .debug_str     0x0000000000008e91      0x257 /home/efesxzc/intelFPGA_lite/19.1/nios2eds/bin/gnu/H-x86_64-pc-linux-gnu/bin/../lib/gcc/nios2-elf/8.3.1/mno-hw-mul/libgcc.a(_clz.o)
 .debug_str     0x0000000000008e91        0x9 /home/efesxzc/intelFPGA_lite/19.1/nios2eds/bin/gnu/H-x86_64-pc-linux-gnu/bin/../lib/gcc/nios2-elf/8.3.1/mno-hw-mul/libgcc.a(_clzsi2.o)
                                        0x274 (size before relaxing)
 .debug_str     0x0000000000008e9a       0xa5 ../civ_002_bsp//libhal_bsp.a(alt_close.o)
                                        0x651 (size before relaxing)
 .debug_str     0x0000000000008f3f       0x32 ../civ_002_bsp//libhal_bsp.a(alt_dev.o)
                                        0x7aa (size before relaxing)
 .debug_str     0x0000000000008f71       0x14 ../civ_002_bsp//libhal_bsp.a(alt_errno.o)
                                        0x540 (size before relaxing)
 .debug_str     0x0000000000008f85       0x14 ../civ_002_bsp//libhal_bsp.a(alt_fstat.o)
                                        0x782 (size before relaxing)
 .debug_str     0x0000000000008f99       0x3a ../civ_002_bsp//libhal_bsp.a(alt_irq_handler.o)
                                        0x592 (size before relaxing)
 .debug_str     0x0000000000008fd3       0x29 ../civ_002_bsp//libhal_bsp.a(alt_irq_vars.o)
                                        0x148 (size before relaxing)
 .debug_str     0x0000000000008ffc       0x15 ../civ_002_bsp//libhal_bsp.a(alt_isatty.o)
                                        0x78a (size before relaxing)
 .debug_str     0x0000000000009011       0xe4 ../civ_002_bsp//libhal_bsp.a(alt_load.o)
                                        0x600 (size before relaxing)
 .debug_str     0x00000000000090f5       0x14 ../civ_002_bsp//libhal_bsp.a(alt_lseek.o)
                                        0x658 (size before relaxing)
 .debug_str     0x0000000000009109       0x44 ../civ_002_bsp//libhal_bsp.a(alt_main.o)
                                        0x7cd (size before relaxing)
 .debug_str     0x000000000000914d       0x1a ../civ_002_bsp//libhal_bsp.a(alt_malloc_lock.o)
                                        0x53d (size before relaxing)
 .debug_str     0x0000000000009167       0x13 ../civ_002_bsp//libhal_bsp.a(alt_read.o)
                                        0x7ba (size before relaxing)
 .debug_str     0x000000000000917a       0x28 ../civ_002_bsp//libhal_bsp.a(alt_release_fd.o)
                                        0x1ff (size before relaxing)
 .debug_str     0x00000000000091a2       0x61 ../civ_002_bsp//libhal_bsp.a(alt_sbrk.o)
                                        0x5cf (size before relaxing)
 .debug_str     0x0000000000009203       0x14 ../civ_002_bsp//libhal_bsp.a(alt_write.o)
                                        0x7bb (size before relaxing)
 .debug_str     0x0000000000009217       0x6a ../civ_002_bsp//libhal_bsp.a(alt_sys_init.o)
                                        0x741 (size before relaxing)
 .debug_str     0x0000000000009281      0x928 ../civ_002_bsp//libhal_bsp.a(altera_avalon_i2c.o)
                                       0x1097 (size before relaxing)
 .debug_str     0x0000000000009ba9       0xa5 ../civ_002_bsp//libhal_bsp.a(altera_avalon_spi.o)
                                        0x1ee (size before relaxing)
 .debug_str     0x0000000000009c4e       0x78 ../civ_002_bsp//libhal_bsp.a(altera_avalon_timer_sc.o)
                                        0x680 (size before relaxing)
 .debug_str     0x0000000000009cc6       0x42 ../civ_002_bsp//libhal_bsp.a(alt_busy_sleep.o)
                                        0x54f (size before relaxing)
 .debug_str     0x0000000000009d08       0x34 ../civ_002_bsp//libhal_bsp.a(alt_dcache_flush_all.o)
                                        0x543 (size before relaxing)
 .debug_str     0x0000000000009d3c       0x4b ../civ_002_bsp//libhal_bsp.a(alt_dev_llist_insert.o)
                                        0x5c7 (size before relaxing)
 .debug_str     0x0000000000009d87       0x48 ../civ_002_bsp//libhal_bsp.a(alt_do_ctors.o)
                                         0xde (size before relaxing)
 .debug_str     0x0000000000009dcf       0x4c ../civ_002_bsp//libhal_bsp.a(alt_do_dtors.o)
                                         0xdd (size before relaxing)
 .debug_str     0x0000000000009e1b       0x24 ../civ_002_bsp//libhal_bsp.a(alt_find_dev.o)
                                        0x5f3 (size before relaxing)
 .debug_str     0x0000000000009e3f       0x34 ../civ_002_bsp//libhal_bsp.a(alt_icache_flush_all.o)
                                        0x543 (size before relaxing)
 .debug_str     0x0000000000009e73       0x2c ../civ_002_bsp//libhal_bsp.a(alt_printf.o)
                                        0x108 (size before relaxing)
 .debug_str     0x0000000000009e9f       0x22 ../civ_002_bsp//libhal_bsp.a(alt_putchar.o)
                                        0x527 (size before relaxing)
 .debug_str     0x0000000000009ec1       0x69 ../civ_002_bsp//libhal_bsp.a(alt_tick.o)
                                        0x64d (size before relaxing)
 .debug_str     0x0000000000009f2a       0x3b ../civ_002_bsp//libhal_bsp.a(altera_nios2_gen2_irq.o)
                                        0x557 (size before relaxing)
 .debug_str     0x0000000000009f65       0x83 /home/efesxzc/intelFPGA_lite/19.1/nios2eds/bin/gnu/H-x86_64-pc-linux-gnu/bin/../lib/gcc/nios2-elf/8.3.1/../../../../../H-x86_64-pc-linux-gnu/nios2-elf/lib/mno-hw-mul/libc.a(lib_a-atexit.o)
                                        0x600 (size before relaxing)
 .debug_str     0x0000000000009fe8       0x54 /home/efesxzc/intelFPGA_lite/19.1/nios2eds/bin/gnu/H-x86_64-pc-linux-gnu/bin/../lib/gcc/nios2-elf/8.3.1/../../../../../H-x86_64-pc-linux-gnu/nios2-elf/lib/mno-hw-mul/libc.a(lib_a-exit.o)
                                        0x601 (size before relaxing)
 .debug_str     0x000000000000a03c       0x52 /home/efesxzc/intelFPGA_lite/19.1/nios2eds/bin/gnu/H-x86_64-pc-linux-gnu/bin/../lib/gcc/nios2-elf/8.3.1/../../../../../H-x86_64-pc-linux-gnu/nios2-elf/lib/mno-hw-mul/libc.a(lib_a-putchar.o)
                                        0x706 (size before relaxing)
 .debug_str     0x000000000000a08e       0x5a /home/efesxzc/intelFPGA_lite/19.1/nios2eds/bin/gnu/H-x86_64-pc-linux-gnu/bin/../lib/gcc/nios2-elf/8.3.1/../../../../../H-x86_64-pc-linux-gnu/nios2-elf/lib/mno-hw-mul/libc.a(lib_a-__atexit.o)
                                        0x61e (size before relaxing)
 .debug_str     0x000000000000a0e8       0x4c /home/efesxzc/intelFPGA_lite/19.1/nios2eds/bin/gnu/H-x86_64-pc-linux-gnu/bin/../lib/gcc/nios2-elf/8.3.1/../../../../../H-x86_64-pc-linux-gnu/nios2-elf/lib/mno-hw-mul/libc.a(lib_a-__call_atexit.o)
                                        0x5fe (size before relaxing)
 .debug_str     0x000000000000a134       0x41 /home/efesxzc/intelFPGA_lite/19.1/nios2eds/bin/gnu/H-x86_64-pc-linux-gnu/bin/../lib/gcc/nios2-elf/8.3.1/../../../../../H-x86_64-pc-linux-gnu/nios2-elf/lib/mno-hw-mul/libc.a(lib_a-putc.o)
                                        0x723 (size before relaxing)
 .debug_str     0x000000000000a175       0x2a ../civ_002_bsp//libhal_bsp.a(alt_exit.o)
                                        0x54c (size before relaxing)

.debug_loc      0x0000000000000000    0x23747
 *(.debug_loc)
 .debug_loc     0x0000000000000000      0x5f7 /home/efesxzc/intelFPGA_lite/19.1/nios2eds/bin/gnu/H-x86_64-pc-linux-gnu/bin/../lib/gcc/nios2-elf/8.3.1/mno-hw-mul/libgcc.a(lib2-divmod.o)
 .debug_loc     0x00000000000005f7       0xa7 /home/efesxzc/intelFPGA_lite/19.1/nios2eds/bin/gnu/H-x86_64-pc-linux-gnu/bin/../lib/gcc/nios2-elf/8.3.1/mno-hw-mul/libgcc.a(lib2-mul.o)
 .debug_loc     0x000000000000069e      0x192 /home/efesxzc/intelFPGA_lite/19.1/nios2eds/bin/gnu/H-x86_64-pc-linux-gnu/bin/../lib/gcc/nios2-elf/8.3.1/../../../../../H-x86_64-pc-linux-gnu/nios2-elf/lib/mno-hw-mul/libc.a(lib_a-memcmp.o)
 .debug_loc     0x0000000000000830      0x31e /home/efesxzc/intelFPGA_lite/19.1/nios2eds/bin/gnu/H-x86_64-pc-linux-gnu/bin/../lib/gcc/nios2-elf/8.3.1/../../../../../H-x86_64-pc-linux-gnu/nios2-elf/lib/mno-hw-mul/libc.a(lib_a-memcpy.o)
 .debug_loc     0x0000000000000b4e      0x3c7 /home/efesxzc/intelFPGA_lite/19.1/nios2eds/bin/gnu/H-x86_64-pc-linux-gnu/bin/../lib/gcc/nios2-elf/8.3.1/../../../../../H-x86_64-pc-linux-gnu/nios2-elf/lib/mno-hw-mul/libc.a(lib_a-memmove.o)
 .debug_loc     0x0000000000000f15      0x1b5 /home/efesxzc/intelFPGA_lite/19.1/nios2eds/bin/gnu/H-x86_64-pc-linux-gnu/bin/../lib/gcc/nios2-elf/8.3.1/../../../../../H-x86_64-pc-linux-gnu/nios2-elf/lib/mno-hw-mul/libc.a(lib_a-memset.o)
 .debug_loc     0x00000000000010ca      0x119 /home/efesxzc/intelFPGA_lite/19.1/nios2eds/bin/gnu/H-x86_64-pc-linux-gnu/bin/../lib/gcc/nios2-elf/8.3.1/../../../../../H-x86_64-pc-linux-gnu/nios2-elf/lib/mno-hw-mul/libc.a(lib_a-printf.o)
 .debug_loc     0x00000000000011e3      0x143 /home/efesxzc/intelFPGA_lite/19.1/nios2eds/bin/gnu/H-x86_64-pc-linux-gnu/bin/../lib/gcc/nios2-elf/8.3.1/../../../../../H-x86_64-pc-linux-gnu/nios2-elf/lib/mno-hw-mul/libc.a(lib_a-puts.o)
 .debug_loc     0x0000000000001326       0x15 /home/efesxzc/intelFPGA_lite/19.1/nios2eds/bin/gnu/H-x86_64-pc-linux-gnu/bin/../lib/gcc/nios2-elf/8.3.1/../../../../../H-x86_64-pc-linux-gnu/nios2-elf/lib/mno-hw-mul/libc.a(lib_a-rand.o)
 .debug_loc     0x000000000000133b      0x3bd /home/efesxzc/intelFPGA_lite/19.1/nios2eds/bin/gnu/H-x86_64-pc-linux-gnu/bin/../lib/gcc/nios2-elf/8.3.1/../../../../../H-x86_64-pc-linux-gnu/nios2-elf/lib/mno-hw-mul/libc.a(lib_a-snprintf.o)
 .debug_loc     0x00000000000016f8      0x152 /home/efesxzc/intelFPGA_lite/19.1/nios2eds/bin/gnu/H-x86_64-pc-linux-gnu/bin/../lib/gcc/nios2-elf/8.3.1/../../../../../H-x86_64-pc-linux-gnu/nios2-elf/lib/mno-hw-mul/libc.a(lib_a-sprintf.o)
 .debug_loc     0x000000000000184a      0x122 /home/efesxzc/intelFPGA_lite/19.1/nios2eds/bin/gnu/H-x86_64-pc-linux-gnu/bin/../lib/gcc/nios2-elf/8.3.1/../../../../../H-x86_64-pc-linux-gnu/nios2-elf/lib/mno-hw-mul/libc.a(lib_a-strcpy.o)
 .debug_loc     0x000000000000196c       0x66 /home/efesxzc/intelFPGA_lite/19.1/nios2eds/bin/gnu/H-x86_64-pc-linux-gnu/bin/../lib/gcc/nios2-elf/8.3.1/../../../../../H-x86_64-pc-linux-gnu/nios2-elf/lib/mno-hw-mul/libc.a(lib_a-strlen.o)
 .debug_loc     0x00000000000019d2      0x16c /home/efesxzc/intelFPGA_lite/19.1/nios2eds/bin/gnu/H-x86_64-pc-linux-gnu/bin/../lib/gcc/nios2-elf/8.3.1/../../../../../H-x86_64-pc-linux-gnu/nios2-elf/lib/mno-hw-mul/libc.a(lib_a-strncmp.o)
 .debug_loc     0x0000000000001b3e      0x1ad /home/efesxzc/intelFPGA_lite/19.1/nios2eds/bin/gnu/H-x86_64-pc-linux-gnu/bin/../lib/gcc/nios2-elf/8.3.1/../../../../../H-x86_64-pc-linux-gnu/nios2-elf/lib/mno-hw-mul/libc.a(lib_a-strncpy.o)
 .debug_loc     0x0000000000001ceb      0xef3 /home/efesxzc/intelFPGA_lite/19.1/nios2eds/bin/gnu/H-x86_64-pc-linux-gnu/bin/../lib/gcc/nios2-elf/8.3.1/../../../../../H-x86_64-pc-linux-gnu/nios2-elf/lib/mno-hw-mul/libc.a(lib_a-strstr.o)
 .debug_loc     0x0000000000002bde      0x5b9 /home/efesxzc/intelFPGA_lite/19.1/nios2eds/bin/gnu/H-x86_64-pc-linux-gnu/bin/../lib/gcc/nios2-elf/8.3.1/../../../../../H-x86_64-pc-linux-gnu/nios2-elf/lib/mno-hw-mul/libc.a(lib_a-strtol.o)
 .debug_loc     0x0000000000003197     0x3530 /home/efesxzc/intelFPGA_lite/19.1/nios2eds/bin/gnu/H-x86_64-pc-linux-gnu/bin/../lib/gcc/nios2-elf/8.3.1/../../../../../H-x86_64-pc-linux-gnu/nios2-elf/lib/mno-hw-mul/libc.a(lib_a-svfprintf.o)
 .debug_loc     0x00000000000066c7     0x3831 /home/efesxzc/intelFPGA_lite/19.1/nios2eds/bin/gnu/H-x86_64-pc-linux-gnu/bin/../lib/gcc/nios2-elf/8.3.1/../../../../../H-x86_64-pc-linux-gnu/nios2-elf/lib/mno-hw-mul/libc.a(lib_a-vfprintf.o)
 .debug_loc     0x0000000000009ef8       0xd4 /home/efesxzc/intelFPGA_lite/19.1/nios2eds/bin/gnu/H-x86_64-pc-linux-gnu/bin/../lib/gcc/nios2-elf/8.3.1/../../../../../H-x86_64-pc-linux-gnu/nios2-elf/lib/mno-hw-mul/libc.a(lib_a-wsetup.o)
 .debug_loc     0x0000000000009fcc     0x2edb /home/efesxzc/intelFPGA_lite/19.1/nios2eds/bin/gnu/H-x86_64-pc-linux-gnu/bin/../lib/gcc/nios2-elf/8.3.1/../../../../../H-x86_64-pc-linux-gnu/nios2-elf/lib/mno-hw-mul/libc.a(lib_a-dtoa.o)
 .debug_loc     0x000000000000cea7      0x38e /home/efesxzc/intelFPGA_lite/19.1/nios2eds/bin/gnu/H-x86_64-pc-linux-gnu/bin/../lib/gcc/nios2-elf/8.3.1/../../../../../H-x86_64-pc-linux-gnu/nios2-elf/lib/mno-hw-mul/libc.a(lib_a-fflush.o)
 .debug_loc     0x000000000000d235      0x2f7 /home/efesxzc/intelFPGA_lite/19.1/nios2eds/bin/gnu/H-x86_64-pc-linux-gnu/bin/../lib/gcc/nios2-elf/8.3.1/../../../../../H-x86_64-pc-linux-gnu/nios2-elf/lib/mno-hw-mul/libc.a(lib_a-findfp.o)
 .debug_loc     0x000000000000d52c      0x612 /home/efesxzc/intelFPGA_lite/19.1/nios2eds/bin/gnu/H-x86_64-pc-linux-gnu/bin/../lib/gcc/nios2-elf/8.3.1/../../../../../H-x86_64-pc-linux-gnu/nios2-elf/lib/mno-hw-mul/libc.a(lib_a-freer.o)
 .debug_loc     0x000000000000db3e      0x716 /home/efesxzc/intelFPGA_lite/19.1/nios2eds/bin/gnu/H-x86_64-pc-linux-gnu/bin/../lib/gcc/nios2-elf/8.3.1/../../../../../H-x86_64-pc-linux-gnu/nios2-elf/lib/mno-hw-mul/libc.a(lib_a-fvwrite.o)
 .debug_loc     0x000000000000e254      0x23b /home/efesxzc/intelFPGA_lite/19.1/nios2eds/bin/gnu/H-x86_64-pc-linux-gnu/bin/../lib/gcc/nios2-elf/8.3.1/../../../../../H-x86_64-pc-linux-gnu/nios2-elf/lib/mno-hw-mul/libc.a(lib_a-fwalk.o)
 .debug_loc     0x000000000000e48f       0x25 /home/efesxzc/intelFPGA_lite/19.1/nios2eds/bin/gnu/H-x86_64-pc-linux-gnu/bin/../lib/gcc/nios2-elf/8.3.1/../../../../../H-x86_64-pc-linux-gnu/nios2-elf/lib/mno-hw-mul/libc.a(lib_a-localeconv.o)
 .debug_loc     0x000000000000e4b4      0x224 /home/efesxzc/intelFPGA_lite/19.1/nios2eds/bin/gnu/H-x86_64-pc-linux-gnu/bin/../lib/gcc/nios2-elf/8.3.1/../../../../../H-x86_64-pc-linux-gnu/nios2-elf/lib/mno-hw-mul/libc.a(lib_a-makebuf.o)
 .debug_loc     0x000000000000e6d8      0xd58 /home/efesxzc/intelFPGA_lite/19.1/nios2eds/bin/gnu/H-x86_64-pc-linux-gnu/bin/../lib/gcc/nios2-elf/8.3.1/../../../../../H-x86_64-pc-linux-gnu/nios2-elf/lib/mno-hw-mul/libc.a(lib_a-mallocr.o)
 .debug_loc     0x000000000000f430      0x179 /home/efesxzc/intelFPGA_lite/19.1/nios2eds/bin/gnu/H-x86_64-pc-linux-gnu/bin/../lib/gcc/nios2-elf/8.3.1/../../../../../H-x86_64-pc-linux-gnu/nios2-elf/lib/mno-hw-mul/libc.a(lib_a-memchr.o)
 .debug_loc     0x000000000000f5a9     0x1ee1 /home/efesxzc/intelFPGA_lite/19.1/nios2eds/bin/gnu/H-x86_64-pc-linux-gnu/bin/../lib/gcc/nios2-elf/8.3.1/../../../../../H-x86_64-pc-linux-gnu/nios2-elf/lib/mno-hw-mul/libc.a(lib_a-mprec.o)
 .debug_loc     0x000000000001148a     0x1747 /home/efesxzc/intelFPGA_lite/19.1/nios2eds/bin/gnu/H-x86_64-pc-linux-gnu/bin/../lib/gcc/nios2-elf/8.3.1/../../../../../H-x86_64-pc-linux-gnu/nios2-elf/lib/mno-hw-mul/libc.a(lib_a-reallocr.o)
 .debug_loc     0x0000000000012bd1       0x89 /home/efesxzc/intelFPGA_lite/19.1/nios2eds/bin/gnu/H-x86_64-pc-linux-gnu/bin/../lib/gcc/nios2-elf/8.3.1/../../../../../H-x86_64-pc-linux-gnu/nios2-elf/lib/mno-hw-mul/libc.a(lib_a-sbrkr.o)
 .debug_loc     0x0000000000012c5a      0x43c /home/efesxzc/intelFPGA_lite/19.1/nios2eds/bin/gnu/H-x86_64-pc-linux-gnu/bin/../lib/gcc/nios2-elf/8.3.1/../../../../../H-x86_64-pc-linux-gnu/nios2-elf/lib/mno-hw-mul/libc.a(lib_a-stdio.o)
 .debug_loc     0x0000000000013096      0x180 /home/efesxzc/intelFPGA_lite/19.1/nios2eds/bin/gnu/H-x86_64-pc-linux-gnu/bin/../lib/gcc/nios2-elf/8.3.1/../../../../../H-x86_64-pc-linux-gnu/nios2-elf/lib/mno-hw-mul/libc.a(lib_a-strchr.o)
 .debug_loc     0x0000000000013216       0xd5 /home/efesxzc/intelFPGA_lite/19.1/nios2eds/bin/gnu/H-x86_64-pc-linux-gnu/bin/../lib/gcc/nios2-elf/8.3.1/../../../../../H-x86_64-pc-linux-gnu/nios2-elf/lib/mno-hw-mul/libc.a(lib_a-strnlen.o)
 .debug_loc     0x00000000000132eb     0x1862 /home/efesxzc/intelFPGA_lite/19.1/nios2eds/bin/gnu/H-x86_64-pc-linux-gnu/bin/../lib/gcc/nios2-elf/8.3.1/../../../../../H-x86_64-pc-linux-gnu/nios2-elf/lib/mno-hw-mul/libc.a(lib_a-svfiprintf.o)
 .debug_loc     0x0000000000014b4d     0x2a50 /home/efesxzc/intelFPGA_lite/19.1/nios2eds/bin/gnu/H-x86_64-pc-linux-gnu/bin/../lib/gcc/nios2-elf/8.3.1/../../../../../H-x86_64-pc-linux-gnu/nios2-elf/lib/mno-hw-mul/libc.a(lib_a-vfiprintf.o)
 .debug_loc     0x000000000001759d       0xfa /home/efesxzc/intelFPGA_lite/19.1/nios2eds/bin/gnu/H-x86_64-pc-linux-gnu/bin/../lib/gcc/nios2-elf/8.3.1/../../../../../H-x86_64-pc-linux-gnu/nios2-elf/lib/mno-hw-mul/libc.a(lib_a-writer.o)
 .debug_loc     0x0000000000017697       0x89 /home/efesxzc/intelFPGA_lite/19.1/nios2eds/bin/gnu/H-x86_64-pc-linux-gnu/bin/../lib/gcc/nios2-elf/8.3.1/../../../../../H-x86_64-pc-linux-gnu/nios2-elf/lib/mno-hw-mul/libc.a(closer.o)
 .debug_loc     0x0000000000017720      0x350 /home/efesxzc/intelFPGA_lite/19.1/nios2eds/bin/gnu/H-x86_64-pc-linux-gnu/bin/../lib/gcc/nios2-elf/8.3.1/../../../../../H-x86_64-pc-linux-gnu/nios2-elf/lib/mno-hw-mul/libc.a(lib_a-callocr.o)
 .debug_loc     0x0000000000017a70      0x179 /home/efesxzc/intelFPGA_lite/19.1/nios2eds/bin/gnu/H-x86_64-pc-linux-gnu/bin/../lib/gcc/nios2-elf/8.3.1/../../../../../H-x86_64-pc-linux-gnu/nios2-elf/lib/mno-hw-mul/libc.a(lib_a-fclose.o)
 .debug_loc     0x0000000000017be9      0x307 /home/efesxzc/intelFPGA_lite/19.1/nios2eds/bin/gnu/H-x86_64-pc-linux-gnu/bin/../lib/gcc/nios2-elf/8.3.1/../../../../../H-x86_64-pc-linux-gnu/nios2-elf/lib/mno-hw-mul/libc.a(lib_a-fputwc.o)
 .debug_loc     0x0000000000017ef0       0xc8 /home/efesxzc/intelFPGA_lite/19.1/nios2eds/bin/gnu/H-x86_64-pc-linux-gnu/bin/../lib/gcc/nios2-elf/8.3.1/../../../../../H-x86_64-pc-linux-gnu/nios2-elf/lib/mno-hw-mul/libc.a(lib_a-fstatr.o)
 .debug_loc     0x0000000000017fb8       0x89 /home/efesxzc/intelFPGA_lite/19.1/nios2eds/bin/gnu/H-x86_64-pc-linux-gnu/bin/../lib/gcc/nios2-elf/8.3.1/../../../../../H-x86_64-pc-linux-gnu/nios2-elf/lib/mno-hw-mul/libc.a(lib_a-isattyr.o)
 .debug_loc     0x0000000000018041      0x159 /home/efesxzc/intelFPGA_lite/19.1/nios2eds/bin/gnu/H-x86_64-pc-linux-gnu/bin/../lib/gcc/nios2-elf/8.3.1/../../../../../H-x86_64-pc-linux-gnu/nios2-elf/lib/mno-hw-mul/libc.a(lib_a-locale.o)
 .debug_loc     0x000000000001819a       0xfa /home/efesxzc/intelFPGA_lite/19.1/nios2eds/bin/gnu/H-x86_64-pc-linux-gnu/bin/../lib/gcc/nios2-elf/8.3.1/../../../../../H-x86_64-pc-linux-gnu/nios2-elf/lib/mno-hw-mul/libc.a(lib_a-lseekr.o)
 .debug_loc     0x0000000000018294      0x119 /home/efesxzc/intelFPGA_lite/19.1/nios2eds/bin/gnu/H-x86_64-pc-linux-gnu/bin/../lib/gcc/nios2-elf/8.3.1/../../../../../H-x86_64-pc-linux-gnu/nios2-elf/lib/mno-hw-mul/libc.a(lib_a-mbtowc_r.o)
 .debug_loc     0x00000000000183ad       0xfa /home/efesxzc/intelFPGA_lite/19.1/nios2eds/bin/gnu/H-x86_64-pc-linux-gnu/bin/../lib/gcc/nios2-elf/8.3.1/../../../../../H-x86_64-pc-linux-gnu/nios2-elf/lib/mno-hw-mul/libc.a(lib_a-readr.o)
 .debug_loc     0x00000000000184a7       0xc8 /home/efesxzc/intelFPGA_lite/19.1/nios2eds/bin/gnu/H-x86_64-pc-linux-gnu/bin/../lib/gcc/nios2-elf/8.3.1/../../../../../H-x86_64-pc-linux-gnu/nios2-elf/lib/mno-hw-mul/libc.a(lib_a-strcmp.o)
 .debug_loc     0x000000000001856f      0x201 /home/efesxzc/intelFPGA_lite/19.1/nios2eds/bin/gnu/H-x86_64-pc-linux-gnu/bin/../lib/gcc/nios2-elf/8.3.1/../../../../../H-x86_64-pc-linux-gnu/nios2-elf/lib/mno-hw-mul/libc.a(lib_a-wbuf.o)
 .debug_loc     0x0000000000018770      0x2be /home/efesxzc/intelFPGA_lite/19.1/nios2eds/bin/gnu/H-x86_64-pc-linux-gnu/bin/../lib/gcc/nios2-elf/8.3.1/../../../../../H-x86_64-pc-linux-gnu/nios2-elf/lib/mno-hw-mul/libc.a(lib_a-wcrtomb.o)
 .debug_loc     0x0000000000018a2e       0xa9 /home/efesxzc/intelFPGA_lite/19.1/nios2eds/bin/gnu/H-x86_64-pc-linux-gnu/bin/../lib/gcc/nios2-elf/8.3.1/../../../../../H-x86_64-pc-linux-gnu/nios2-elf/lib/mno-hw-mul/libc.a(lib_a-wctomb_r.o)
 .debug_loc     0x0000000000018ad7      0x198 /home/efesxzc/intelFPGA_lite/19.1/nios2eds/bin/gnu/H-x86_64-pc-linux-gnu/bin/../lib/gcc/nios2-elf/8.3.1/mno-hw-mul/libgcc.a(_muldi3.o)
 .debug_loc     0x0000000000018c6f     0x1528 /home/efesxzc/intelFPGA_lite/19.1/nios2eds/bin/gnu/H-x86_64-pc-linux-gnu/bin/../lib/gcc/nios2-elf/8.3.1/mno-hw-mul/libgcc.a(_udivdi3.o)
 .debug_loc     0x000000000001a197     0x1205 /home/efesxzc/intelFPGA_lite/19.1/nios2eds/bin/gnu/H-x86_64-pc-linux-gnu/bin/../lib/gcc/nios2-elf/8.3.1/mno-hw-mul/libgcc.a(_umoddi3.o)
 .debug_loc     0x000000000001b39c     0x1cba /home/efesxzc/intelFPGA_lite/19.1/nios2eds/bin/gnu/H-x86_64-pc-linux-gnu/bin/../lib/gcc/nios2-elf/8.3.1/mno-hw-mul/libgcc.a(adddf3.o)
 .debug_loc     0x000000000001d056     0x21fc /home/efesxzc/intelFPGA_lite/19.1/nios2eds/bin/gnu/H-x86_64-pc-linux-gnu/bin/../lib/gcc/nios2-elf/8.3.1/mno-hw-mul/libgcc.a(divdf3.o)
 .debug_loc     0x000000000001f252       0xe2 /home/efesxzc/intelFPGA_lite/19.1/nios2eds/bin/gnu/H-x86_64-pc-linux-gnu/bin/../lib/gcc/nios2-elf/8.3.1/mno-hw-mul/libgcc.a(eqdf2.o)
 .debug_loc     0x000000000001f334      0x174 /home/efesxzc/intelFPGA_lite/19.1/nios2eds/bin/gnu/H-x86_64-pc-linux-gnu/bin/../lib/gcc/nios2-elf/8.3.1/mno-hw-mul/libgcc.a(gedf2.o)
 .debug_loc     0x000000000001f4a8      0x166 /home/efesxzc/intelFPGA_lite/19.1/nios2eds/bin/gnu/H-x86_64-pc-linux-gnu/bin/../lib/gcc/nios2-elf/8.3.1/mno-hw-mul/libgcc.a(ledf2.o)
 .debug_loc     0x000000000001f60e     0x152f /home/efesxzc/intelFPGA_lite/19.1/nios2eds/bin/gnu/H-x86_64-pc-linux-gnu/bin/../lib/gcc/nios2-elf/8.3.1/mno-hw-mul/libgcc.a(muldf3.o)
 .debug_loc     0x0000000000020b3d     0x1e4b /home/efesxzc/intelFPGA_lite/19.1/nios2eds/bin/gnu/H-x86_64-pc-linux-gnu/bin/../lib/gcc/nios2-elf/8.3.1/mno-hw-mul/libgcc.a(subdf3.o)
 .debug_loc     0x0000000000022988       0x7a /home/efesxzc/intelFPGA_lite/19.1/nios2eds/bin/gnu/H-x86_64-pc-linux-gnu/bin/../lib/gcc/nios2-elf/8.3.1/mno-hw-mul/libgcc.a(unorddf2.o)
 .debug_loc     0x0000000000022a02      0x139 /home/efesxzc/intelFPGA_lite/19.1/nios2eds/bin/gnu/H-x86_64-pc-linux-gnu/bin/../lib/gcc/nios2-elf/8.3.1/mno-hw-mul/libgcc.a(fixdfsi.o)
 .debug_loc     0x0000000000022b3b      0x255 /home/efesxzc/intelFPGA_lite/19.1/nios2eds/bin/gnu/H-x86_64-pc-linux-gnu/bin/../lib/gcc/nios2-elf/8.3.1/mno-hw-mul/libgcc.a(floatsidf.o)
 .debug_loc     0x0000000000022d90      0x278 /home/efesxzc/intelFPGA_lite/19.1/nios2eds/bin/gnu/H-x86_64-pc-linux-gnu/bin/../lib/gcc/nios2-elf/8.3.1/mno-hw-mul/libgcc.a(floatunsidf.o)
 .debug_loc     0x0000000000023008       0xbe /home/efesxzc/intelFPGA_lite/19.1/nios2eds/bin/gnu/H-x86_64-pc-linux-gnu/bin/../lib/gcc/nios2-elf/8.3.1/mno-hw-mul/libgcc.a(_clzsi2.o)
 .debug_loc     0x00000000000230c6       0x32 /home/efesxzc/intelFPGA_lite/19.1/nios2eds/bin/gnu/H-x86_64-pc-linux-gnu/bin/../lib/gcc/nios2-elf/8.3.1/../../../../../H-x86_64-pc-linux-gnu/nios2-elf/lib/mno-hw-mul/libc.a(lib_a-atexit.o)
 .debug_loc     0x00000000000230f8       0x22 /home/efesxzc/intelFPGA_lite/19.1/nios2eds/bin/gnu/H-x86_64-pc-linux-gnu/bin/../lib/gcc/nios2-elf/8.3.1/../../../../../H-x86_64-pc-linux-gnu/nios2-elf/lib/mno-hw-mul/libc.a(lib_a-exit.o)
 .debug_loc     0x000000000002311a       0x91 /home/efesxzc/intelFPGA_lite/19.1/nios2eds/bin/gnu/H-x86_64-pc-linux-gnu/bin/../lib/gcc/nios2-elf/8.3.1/../../../../../H-x86_64-pc-linux-gnu/nios2-elf/lib/mno-hw-mul/libc.a(lib_a-putchar.o)
 .debug_loc     0x00000000000231ab       0xf7 /home/efesxzc/intelFPGA_lite/19.1/nios2eds/bin/gnu/H-x86_64-pc-linux-gnu/bin/../lib/gcc/nios2-elf/8.3.1/../../../../../H-x86_64-pc-linux-gnu/nios2-elf/lib/mno-hw-mul/libc.a(lib_a-__atexit.o)
 .debug_loc     0x00000000000232a2      0x19e /home/efesxzc/intelFPGA_lite/19.1/nios2eds/bin/gnu/H-x86_64-pc-linux-gnu/bin/../lib/gcc/nios2-elf/8.3.1/../../../../../H-x86_64-pc-linux-gnu/nios2-elf/lib/mno-hw-mul/libc.a(lib_a-__call_atexit.o)
 .debug_loc     0x0000000000023440      0x307 /home/efesxzc/intelFPGA_lite/19.1/nios2eds/bin/gnu/H-x86_64-pc-linux-gnu/bin/../lib/gcc/nios2-elf/8.3.1/../../../../../H-x86_64-pc-linux-gnu/nios2-elf/lib/mno-hw-mul/libc.a(lib_a-putc.o)

.debug_macinfo
 *(.debug_macinfo)

.debug_weaknames
 *(.debug_weaknames)

.debug_funcnames
 *(.debug_funcnames)

.debug_typenames
 *(.debug_typenames)

.debug_varnames
 *(.debug_varnames)

.debug_alt_sim_info
                0x0000000000000000       0x40
 *(.debug_alt_sim_info)
 .debug_alt_sim_info
                0x0000000000000000       0x10 ../civ_002_bsp//obj/HAL/src/crt0.o
 .debug_alt_sim_info
                0x0000000000000010       0x30 ../civ_002_bsp//libhal_bsp.a(alt_busy_sleep.o)
                0x0000000001800000                __alt_data_end = 0x1800000
                0x0000000001800000                PROVIDE (__alt_stack_pointer = __alt_data_end)
                [!provide]                        PROVIDE (__alt_stack_limit = __alt_stack_base)
                0x0000000001064fcc                PROVIDE (__alt_heap_start = end)
                0x0000000001800000                PROVIDE (__alt_heap_limit = 0x1800000)
OUTPUT(civ_002.elf elf32-littlenios2)

.debug_ranges   0x0000000000000000     0x2030
 .debug_ranges  0x0000000000000000       0x20 ../civ_002_bsp//obj/HAL/src/crt0.o
 .debug_ranges  0x0000000000000020       0x18 obj/default/FreeRTOS/FreeRTOS-Plus-TCP/FreeRTOS_IP.o
 .debug_ranges  0x0000000000000038       0x18 obj/default/FreeRTOS/FreeRTOS-Plus-TCP/FreeRTOS_Sockets.o
 .debug_ranges  0x0000000000000050       0x38 obj/default/FreeRTOS/FreeRTOS-Kernel/portable/GCC/NiosII/port_asm.o
 .debug_ranges  0x0000000000000088       0x70 /home/efesxzc/intelFPGA_lite/19.1/nios2eds/bin/gnu/H-x86_64-pc-linux-gnu/bin/../lib/gcc/nios2-elf/8.3.1/mno-hw-mul/libgcc.a(lib2-divmod.o)
 .debug_ranges  0x00000000000000f8       0x10 /home/efesxzc/intelFPGA_lite/19.1/nios2eds/bin/gnu/H-x86_64-pc-linux-gnu/bin/../lib/gcc/nios2-elf/8.3.1/../../../../../H-x86_64-pc-linux-gnu/nios2-elf/lib/mno-hw-mul/libc.a(lib_a-memcmp.o)
 .debug_ranges  0x0000000000000108       0x10 /home/efesxzc/intelFPGA_lite/19.1/nios2eds/bin/gnu/H-x86_64-pc-linux-gnu/bin/../lib/gcc/nios2-elf/8.3.1/../../../../../H-x86_64-pc-linux-gnu/nios2-elf/lib/mno-hw-mul/libc.a(lib_a-memcpy.o)
 .debug_ranges  0x0000000000000118       0x10 /home/efesxzc/intelFPGA_lite/19.1/nios2eds/bin/gnu/H-x86_64-pc-linux-gnu/bin/../lib/gcc/nios2-elf/8.3.1/../../../../../H-x86_64-pc-linux-gnu/nios2-elf/lib/mno-hw-mul/libc.a(lib_a-memmove.o)
 .debug_ranges  0x0000000000000128       0x10 /home/efesxzc/intelFPGA_lite/19.1/nios2eds/bin/gnu/H-x86_64-pc-linux-gnu/bin/../lib/gcc/nios2-elf/8.3.1/../../../../../H-x86_64-pc-linux-gnu/nios2-elf/lib/mno-hw-mul/libc.a(lib_a-memset.o)
 .debug_ranges  0x0000000000000138       0x18 /home/efesxzc/intelFPGA_lite/19.1/nios2eds/bin/gnu/H-x86_64-pc-linux-gnu/bin/../lib/gcc/nios2-elf/8.3.1/../../../../../H-x86_64-pc-linux-gnu/nios2-elf/lib/mno-hw-mul/libc.a(lib_a-printf.o)
 .debug_ranges  0x0000000000000150       0x30 /home/efesxzc/intelFPGA_lite/19.1/nios2eds/bin/gnu/H-x86_64-pc-linux-gnu/bin/../lib/gcc/nios2-elf/8.3.1/../../../../../H-x86_64-pc-linux-gnu/nios2-elf/lib/mno-hw-mul/libc.a(lib_a-puts.o)
 .debug_ranges  0x0000000000000180       0x18 /home/efesxzc/intelFPGA_lite/19.1/nios2eds/bin/gnu/H-x86_64-pc-linux-gnu/bin/../lib/gcc/nios2-elf/8.3.1/../../../../../H-x86_64-pc-linux-gnu/nios2-elf/lib/mno-hw-mul/libc.a(lib_a-rand.o)
 .debug_ranges  0x0000000000000198       0x18 /home/efesxzc/intelFPGA_lite/19.1/nios2eds/bin/gnu/H-x86_64-pc-linux-gnu/bin/../lib/gcc/nios2-elf/8.3.1/../../../../../H-x86_64-pc-linux-gnu/nios2-elf/lib/mno-hw-mul/libc.a(lib_a-snprintf.o)
 .debug_ranges  0x00000000000001b0       0x18 /home/efesxzc/intelFPGA_lite/19.1/nios2eds/bin/gnu/H-x86_64-pc-linux-gnu/bin/../lib/gcc/nios2-elf/8.3.1/../../../../../H-x86_64-pc-linux-gnu/nios2-elf/lib/mno-hw-mul/libc.a(lib_a-sprintf.o)
 .debug_ranges  0x00000000000001c8       0x10 /home/efesxzc/intelFPGA_lite/19.1/nios2eds/bin/gnu/H-x86_64-pc-linux-gnu/bin/../lib/gcc/nios2-elf/8.3.1/../../../../../H-x86_64-pc-linux-gnu/nios2-elf/lib/mno-hw-mul/libc.a(lib_a-strcpy.o)
 .debug_ranges  0x00000000000001d8       0x10 /home/efesxzc/intelFPGA_lite/19.1/nios2eds/bin/gnu/H-x86_64-pc-linux-gnu/bin/../lib/gcc/nios2-elf/8.3.1/../../../../../H-x86_64-pc-linux-gnu/nios2-elf/lib/mno-hw-mul/libc.a(lib_a-strlen.o)
 .debug_ranges  0x00000000000001e8       0x10 /home/efesxzc/intelFPGA_lite/19.1/nios2eds/bin/gnu/H-x86_64-pc-linux-gnu/bin/../lib/gcc/nios2-elf/8.3.1/../../../../../H-x86_64-pc-linux-gnu/nios2-elf/lib/mno-hw-mul/libc.a(lib_a-strncmp.o)
 .debug_ranges  0x00000000000001f8       0x10 /home/efesxzc/intelFPGA_lite/19.1/nios2eds/bin/gnu/H-x86_64-pc-linux-gnu/bin/../lib/gcc/nios2-elf/8.3.1/../../../../../H-x86_64-pc-linux-gnu/nios2-elf/lib/mno-hw-mul/libc.a(lib_a-strncpy.o)
 .debug_ranges  0x0000000000000208       0xd8 /home/efesxzc/intelFPGA_lite/19.1/nios2eds/bin/gnu/H-x86_64-pc-linux-gnu/bin/../lib/gcc/nios2-elf/8.3.1/../../../../../H-x86_64-pc-linux-gnu/nios2-elf/lib/mno-hw-mul/libc.a(lib_a-strstr.o)
 .debug_ranges  0x00000000000002e0       0x28 /home/efesxzc/intelFPGA_lite/19.1/nios2eds/bin/gnu/H-x86_64-pc-linux-gnu/bin/../lib/gcc/nios2-elf/8.3.1/../../../../../H-x86_64-pc-linux-gnu/nios2-elf/lib/mno-hw-mul/libc.a(lib_a-strtol.o)
 .debug_ranges  0x0000000000000308      0x198 /home/efesxzc/intelFPGA_lite/19.1/nios2eds/bin/gnu/H-x86_64-pc-linux-gnu/bin/../lib/gcc/nios2-elf/8.3.1/../../../../../H-x86_64-pc-linux-gnu/nios2-elf/lib/mno-hw-mul/libc.a(lib_a-svfprintf.o)
 .debug_ranges  0x00000000000004a0      0x1c8 /home/efesxzc/intelFPGA_lite/19.1/nios2eds/bin/gnu/H-x86_64-pc-linux-gnu/bin/../lib/gcc/nios2-elf/8.3.1/../../../../../H-x86_64-pc-linux-gnu/nios2-elf/lib/mno-hw-mul/libc.a(lib_a-vfprintf.o)
 .debug_ranges  0x0000000000000668       0x30 /home/efesxzc/intelFPGA_lite/19.1/nios2eds/bin/gnu/H-x86_64-pc-linux-gnu/bin/../lib/gcc/nios2-elf/8.3.1/../../../../../H-x86_64-pc-linux-gnu/nios2-elf/lib/mno-hw-mul/libc.a(lib_a-wsetup.o)
 .debug_ranges  0x0000000000000698       0x18 /home/efesxzc/intelFPGA_lite/19.1/nios2eds/bin/gnu/H-x86_64-pc-linux-gnu/bin/../lib/gcc/nios2-elf/8.3.1/../../../../../H-x86_64-pc-linux-gnu/nios2-elf/lib/mno-hw-mul/libc.a(lib_a-dtoa.o)
 .debug_ranges  0x00000000000006b0       0x78 /home/efesxzc/intelFPGA_lite/19.1/nios2eds/bin/gnu/H-x86_64-pc-linux-gnu/bin/../lib/gcc/nios2-elf/8.3.1/../../../../../H-x86_64-pc-linux-gnu/nios2-elf/lib/mno-hw-mul/libc.a(lib_a-fflush.o)
 .debug_ranges  0x0000000000000728      0x130 /home/efesxzc/intelFPGA_lite/19.1/nios2eds/bin/gnu/H-x86_64-pc-linux-gnu/bin/../lib/gcc/nios2-elf/8.3.1/../../../../../H-x86_64-pc-linux-gnu/nios2-elf/lib/mno-hw-mul/libc.a(lib_a-findfp.o)
 .debug_ranges  0x0000000000000858       0x18 /home/efesxzc/intelFPGA_lite/19.1/nios2eds/bin/gnu/H-x86_64-pc-linux-gnu/bin/../lib/gcc/nios2-elf/8.3.1/../../../../../H-x86_64-pc-linux-gnu/nios2-elf/lib/mno-hw-mul/libc.a(lib_a-freer.o)
 .debug_ranges  0x0000000000000870       0x28 /home/efesxzc/intelFPGA_lite/19.1/nios2eds/bin/gnu/H-x86_64-pc-linux-gnu/bin/../lib/gcc/nios2-elf/8.3.1/../../../../../H-x86_64-pc-linux-gnu/nios2-elf/lib/mno-hw-mul/libc.a(lib_a-fvwrite.o)
 .debug_ranges  0x0000000000000898       0x18 /home/efesxzc/intelFPGA_lite/19.1/nios2eds/bin/gnu/H-x86_64-pc-linux-gnu/bin/../lib/gcc/nios2-elf/8.3.1/../../../../../H-x86_64-pc-linux-gnu/nios2-elf/lib/mno-hw-mul/libc.a(lib_a-fwalk.o)
 .debug_ranges  0x00000000000008b0       0x20 /home/efesxzc/intelFPGA_lite/19.1/nios2eds/bin/gnu/H-x86_64-pc-linux-gnu/bin/../lib/gcc/nios2-elf/8.3.1/../../../../../H-x86_64-pc-linux-gnu/nios2-elf/lib/mno-hw-mul/libc.a(lib_a-localeconv.o)
 .debug_ranges  0x00000000000008d0       0x18 /home/efesxzc/intelFPGA_lite/19.1/nios2eds/bin/gnu/H-x86_64-pc-linux-gnu/bin/../lib/gcc/nios2-elf/8.3.1/../../../../../H-x86_64-pc-linux-gnu/nios2-elf/lib/mno-hw-mul/libc.a(lib_a-makebuf.o)
 .debug_ranges  0x00000000000008e8       0x48 /home/efesxzc/intelFPGA_lite/19.1/nios2eds/bin/gnu/H-x86_64-pc-linux-gnu/bin/../lib/gcc/nios2-elf/8.3.1/../../../../../H-x86_64-pc-linux-gnu/nios2-elf/lib/mno-hw-mul/libc.a(lib_a-mallocr.o)
 .debug_ranges  0x0000000000000930       0x10 /home/efesxzc/intelFPGA_lite/19.1/nios2eds/bin/gnu/H-x86_64-pc-linux-gnu/bin/../lib/gcc/nios2-elf/8.3.1/../../../../../H-x86_64-pc-linux-gnu/nios2-elf/lib/mno-hw-mul/libc.a(lib_a-memchr.o)
 .debug_ranges  0x0000000000000940       0xe8 /home/efesxzc/intelFPGA_lite/19.1/nios2eds/bin/gnu/H-x86_64-pc-linux-gnu/bin/../lib/gcc/nios2-elf/8.3.1/../../../../../H-x86_64-pc-linux-gnu/nios2-elf/lib/mno-hw-mul/libc.a(lib_a-mprec.o)
 .debug_ranges  0x0000000000000a28      0x1a8 /home/efesxzc/intelFPGA_lite/19.1/nios2eds/bin/gnu/H-x86_64-pc-linux-gnu/bin/../lib/gcc/nios2-elf/8.3.1/../../../../../H-x86_64-pc-linux-gnu/nios2-elf/lib/mno-hw-mul/libc.a(lib_a-reallocr.o)
 .debug_ranges  0x0000000000000bd0       0x10 /home/efesxzc/intelFPGA_lite/19.1/nios2eds/bin/gnu/H-x86_64-pc-linux-gnu/bin/../lib/gcc/nios2-elf/8.3.1/../../../../../H-x86_64-pc-linux-gnu/nios2-elf/lib/mno-hw-mul/libc.a(lib_a-sbrkr.o)
 .debug_ranges  0x0000000000000be0       0x30 /home/efesxzc/intelFPGA_lite/19.1/nios2eds/bin/gnu/H-x86_64-pc-linux-gnu/bin/../lib/gcc/nios2-elf/8.3.1/../../../../../H-x86_64-pc-linux-gnu/nios2-elf/lib/mno-hw-mul/libc.a(lib_a-stdio.o)
 .debug_ranges  0x0000000000000c10       0x10 /home/efesxzc/intelFPGA_lite/19.1/nios2eds/bin/gnu/H-x86_64-pc-linux-gnu/bin/../lib/gcc/nios2-elf/8.3.1/../../../../../H-x86_64-pc-linux-gnu/nios2-elf/lib/mno-hw-mul/libc.a(lib_a-strchr.o)
 .debug_ranges  0x0000000000000c20       0x10 /home/efesxzc/intelFPGA_lite/19.1/nios2eds/bin/gnu/H-x86_64-pc-linux-gnu/bin/../lib/gcc/nios2-elf/8.3.1/../../../../../H-x86_64-pc-linux-gnu/nios2-elf/lib/mno-hw-mul/libc.a(lib_a-strnlen.o)
 .debug_ranges  0x0000000000000c30       0x68 /home/efesxzc/intelFPGA_lite/19.1/nios2eds/bin/gnu/H-x86_64-pc-linux-gnu/bin/../lib/gcc/nios2-elf/8.3.1/../../../../../H-x86_64-pc-linux-gnu/nios2-elf/lib/mno-hw-mul/libc.a(lib_a-svfiprintf.o)
 .debug_ranges  0x0000000000000c98      0x1b0 /home/efesxzc/intelFPGA_lite/19.1/nios2eds/bin/gnu/H-x86_64-pc-linux-gnu/bin/../lib/gcc/nios2-elf/8.3.1/../../../../../H-x86_64-pc-linux-gnu/nios2-elf/lib/mno-hw-mul/libc.a(lib_a-vfiprintf.o)
 .debug_ranges  0x0000000000000e48       0x10 /home/efesxzc/intelFPGA_lite/19.1/nios2eds/bin/gnu/H-x86_64-pc-linux-gnu/bin/../lib/gcc/nios2-elf/8.3.1/../../../../../H-x86_64-pc-linux-gnu/nios2-elf/lib/mno-hw-mul/libc.a(lib_a-writer.o)
 .debug_ranges  0x0000000000000e58       0x10 /home/efesxzc/intelFPGA_lite/19.1/nios2eds/bin/gnu/H-x86_64-pc-linux-gnu/bin/../lib/gcc/nios2-elf/8.3.1/../../../../../H-x86_64-pc-linux-gnu/nios2-elf/lib/mno-hw-mul/libc.a(closer.o)
 .debug_ranges  0x0000000000000e68       0x50 /home/efesxzc/intelFPGA_lite/19.1/nios2eds/bin/gnu/H-x86_64-pc-linux-gnu/bin/../lib/gcc/nios2-elf/8.3.1/../../../../../H-x86_64-pc-linux-gnu/nios2-elf/lib/mno-hw-mul/libc.a(lib_a-callocr.o)
 .debug_ranges  0x0000000000000eb8       0x48 /home/efesxzc/intelFPGA_lite/19.1/nios2eds/bin/gnu/H-x86_64-pc-linux-gnu/bin/../lib/gcc/nios2-elf/8.3.1/../../../../../H-x86_64-pc-linux-gnu/nios2-elf/lib/mno-hw-mul/libc.a(lib_a-fclose.o)
 .debug_ranges  0x0000000000000f00       0x58 /home/efesxzc/intelFPGA_lite/19.1/nios2eds/bin/gnu/H-x86_64-pc-linux-gnu/bin/../lib/gcc/nios2-elf/8.3.1/../../../../../H-x86_64-pc-linux-gnu/nios2-elf/lib/mno-hw-mul/libc.a(lib_a-fputwc.o)
 .debug_ranges  0x0000000000000f58       0x10 /home/efesxzc/intelFPGA_lite/19.1/nios2eds/bin/gnu/H-x86_64-pc-linux-gnu/bin/../lib/gcc/nios2-elf/8.3.1/../../../../../H-x86_64-pc-linux-gnu/nios2-elf/lib/mno-hw-mul/libc.a(lib_a-fstatr.o)
 .debug_ranges  0x0000000000000f68       0x10 /home/efesxzc/intelFPGA_lite/19.1/nios2eds/bin/gnu/H-x86_64-pc-linux-gnu/bin/../lib/gcc/nios2-elf/8.3.1/../../../../../H-x86_64-pc-linux-gnu/nios2-elf/lib/mno-hw-mul/libc.a(lib_a-isattyr.o)
 .debug_ranges  0x0000000000000f78       0x20 /home/efesxzc/intelFPGA_lite/19.1/nios2eds/bin/gnu/H-x86_64-pc-linux-gnu/bin/../lib/gcc/nios2-elf/8.3.1/../../../../../H-x86_64-pc-linux-gnu/nios2-elf/lib/mno-hw-mul/libc.a(lib_a-locale.o)
 .debug_ranges  0x0000000000000f98       0x10 /home/efesxzc/intelFPGA_lite/19.1/nios2eds/bin/gnu/H-x86_64-pc-linux-gnu/bin/../lib/gcc/nios2-elf/8.3.1/../../../../../H-x86_64-pc-linux-gnu/nios2-elf/lib/mno-hw-mul/libc.a(lib_a-lseekr.o)
 .debug_ranges  0x0000000000000fa8       0x18 /home/efesxzc/intelFPGA_lite/19.1/nios2eds/bin/gnu/H-x86_64-pc-linux-gnu/bin/../lib/gcc/nios2-elf/8.3.1/../../../../../H-x86_64-pc-linux-gnu/nios2-elf/lib/mno-hw-mul/libc.a(lib_a-mbtowc_r.o)
 .debug_ranges  0x0000000000000fc0       0x10 /home/efesxzc/intelFPGA_lite/19.1/nios2eds/bin/gnu/H-x86_64-pc-linux-gnu/bin/../lib/gcc/nios2-elf/8.3.1/../../../../../H-x86_64-pc-linux-gnu/nios2-elf/lib/mno-hw-mul/libc.a(lib_a-readr.o)
 .debug_ranges  0x0000000000000fd0       0x10 /home/efesxzc/intelFPGA_lite/19.1/nios2eds/bin/gnu/H-x86_64-pc-linux-gnu/bin/../lib/gcc/nios2-elf/8.3.1/../../../../../H-x86_64-pc-linux-gnu/nios2-elf/lib/mno-hw-mul/libc.a(lib_a-strcmp.o)
 .debug_ranges  0x0000000000000fe0       0x40 /home/efesxzc/intelFPGA_lite/19.1/nios2eds/bin/gnu/H-x86_64-pc-linux-gnu/bin/../lib/gcc/nios2-elf/8.3.1/../../../../../H-x86_64-pc-linux-gnu/nios2-elf/lib/mno-hw-mul/libc.a(lib_a-wbuf.o)
 .debug_ranges  0x0000000000001020       0x18 /home/efesxzc/intelFPGA_lite/19.1/nios2eds/bin/gnu/H-x86_64-pc-linux-gnu/bin/../lib/gcc/nios2-elf/8.3.1/../../../../../H-x86_64-pc-linux-gnu/nios2-elf/lib/mno-hw-mul/libc.a(lib_a-wcrtomb.o)
 .debug_ranges  0x0000000000001038       0x18 /home/efesxzc/intelFPGA_lite/19.1/nios2eds/bin/gnu/H-x86_64-pc-linux-gnu/bin/../lib/gcc/nios2-elf/8.3.1/../../../../../H-x86_64-pc-linux-gnu/nios2-elf/lib/mno-hw-mul/libc.a(lib_a-wctomb_r.o)
 .debug_ranges  0x0000000000001050       0x40 /home/efesxzc/intelFPGA_lite/19.1/nios2eds/bin/gnu/H-x86_64-pc-linux-gnu/bin/../lib/gcc/nios2-elf/8.3.1/mno-hw-mul/libgcc.a(_muldi3.o)
 .debug_ranges  0x0000000000001090      0x1c0 /home/efesxzc/intelFPGA_lite/19.1/nios2eds/bin/gnu/H-x86_64-pc-linux-gnu/bin/../lib/gcc/nios2-elf/8.3.1/mno-hw-mul/libgcc.a(_udivdi3.o)
 .debug_ranges  0x0000000000001250      0x180 /home/efesxzc/intelFPGA_lite/19.1/nios2eds/bin/gnu/H-x86_64-pc-linux-gnu/bin/../lib/gcc/nios2-elf/8.3.1/mno-hw-mul/libgcc.a(_umoddi3.o)
 .debug_ranges  0x00000000000013d0      0x2a8 /home/efesxzc/intelFPGA_lite/19.1/nios2eds/bin/gnu/H-x86_64-pc-linux-gnu/bin/../lib/gcc/nios2-elf/8.3.1/mno-hw-mul/libgcc.a(adddf3.o)
 .debug_ranges  0x0000000000001678      0x1d0 /home/efesxzc/intelFPGA_lite/19.1/nios2eds/bin/gnu/H-x86_64-pc-linux-gnu/bin/../lib/gcc/nios2-elf/8.3.1/mno-hw-mul/libgcc.a(divdf3.o)
 .debug_ranges  0x0000000000001848       0x48 /home/efesxzc/intelFPGA_lite/19.1/nios2eds/bin/gnu/H-x86_64-pc-linux-gnu/bin/../lib/gcc/nios2-elf/8.3.1/mno-hw-mul/libgcc.a(eqdf2.o)
 .debug_ranges  0x0000000000001890       0x70 /home/efesxzc/intelFPGA_lite/19.1/nios2eds/bin/gnu/H-x86_64-pc-linux-gnu/bin/../lib/gcc/nios2-elf/8.3.1/mno-hw-mul/libgcc.a(gedf2.o)
 .debug_ranges  0x0000000000001900       0x70 /home/efesxzc/intelFPGA_lite/19.1/nios2eds/bin/gnu/H-x86_64-pc-linux-gnu/bin/../lib/gcc/nios2-elf/8.3.1/mno-hw-mul/libgcc.a(ledf2.o)
 .debug_ranges  0x0000000000001970      0x238 /home/efesxzc/intelFPGA_lite/19.1/nios2eds/bin/gnu/H-x86_64-pc-linux-gnu/bin/../lib/gcc/nios2-elf/8.3.1/mno-hw-mul/libgcc.a(muldf3.o)
 .debug_ranges  0x0000000000001ba8      0x288 /home/efesxzc/intelFPGA_lite/19.1/nios2eds/bin/gnu/H-x86_64-pc-linux-gnu/bin/../lib/gcc/nios2-elf/8.3.1/mno-hw-mul/libgcc.a(subdf3.o)
 .debug_ranges  0x0000000000001e30       0x48 /home/efesxzc/intelFPGA_lite/19.1/nios2eds/bin/gnu/H-x86_64-pc-linux-gnu/bin/../lib/gcc/nios2-elf/8.3.1/mno-hw-mul/libgcc.a(unorddf2.o)
 .debug_ranges  0x0000000000001e78       0x18 /home/efesxzc/intelFPGA_lite/19.1/nios2eds/bin/gnu/H-x86_64-pc-linux-gnu/bin/../lib/gcc/nios2-elf/8.3.1/mno-hw-mul/libgcc.a(fixdfsi.o)
 .debug_ranges  0x0000000000001e90       0x50 /home/efesxzc/intelFPGA_lite/19.1/nios2eds/bin/gnu/H-x86_64-pc-linux-gnu/bin/../lib/gcc/nios2-elf/8.3.1/mno-hw-mul/libgcc.a(floatsidf.o)
 .debug_ranges  0x0000000000001ee0       0x50 /home/efesxzc/intelFPGA_lite/19.1/nios2eds/bin/gnu/H-x86_64-pc-linux-gnu/bin/../lib/gcc/nios2-elf/8.3.1/mno-hw-mul/libgcc.a(floatunsidf.o)
 .debug_ranges  0x0000000000001f30       0x20 /home/efesxzc/intelFPGA_lite/19.1/nios2eds/bin/gnu/H-x86_64-pc-linux-gnu/bin/../lib/gcc/nios2-elf/8.3.1/mno-hw-mul/libgcc.a(_clzsi2.o)
 .debug_ranges  0x0000000000001f50       0x10 ../civ_002_bsp//libhal_bsp.a(alt_irq_handler.o)
 .debug_ranges  0x0000000000001f60       0x10 /home/efesxzc/intelFPGA_lite/19.1/nios2eds/bin/gnu/H-x86_64-pc-linux-gnu/bin/../lib/gcc/nios2-elf/8.3.1/../../../../../H-x86_64-pc-linux-gnu/nios2-elf/lib/mno-hw-mul/libc.a(lib_a-atexit.o)
 .debug_ranges  0x0000000000001f70       0x10 /home/efesxzc/intelFPGA_lite/19.1/nios2eds/bin/gnu/H-x86_64-pc-linux-gnu/bin/../lib/gcc/nios2-elf/8.3.1/../../../../../H-x86_64-pc-linux-gnu/nios2-elf/lib/mno-hw-mul/libc.a(lib_a-exit.o)
 .debug_ranges  0x0000000000001f80       0x18 /home/efesxzc/intelFPGA_lite/19.1/nios2eds/bin/gnu/H-x86_64-pc-linux-gnu/bin/../lib/gcc/nios2-elf/8.3.1/../../../../../H-x86_64-pc-linux-gnu/nios2-elf/lib/mno-hw-mul/libc.a(lib_a-putchar.o)
 .debug_ranges  0x0000000000001f98       0x10 /home/efesxzc/intelFPGA_lite/19.1/nios2eds/bin/gnu/H-x86_64-pc-linux-gnu/bin/../lib/gcc/nios2-elf/8.3.1/../../../../../H-x86_64-pc-linux-gnu/nios2-elf/lib/mno-hw-mul/libc.a(lib_a-__atexit.o)
 .debug_ranges  0x0000000000001fa8       0x30 /home/efesxzc/intelFPGA_lite/19.1/nios2eds/bin/gnu/H-x86_64-pc-linux-gnu/bin/../lib/gcc/nios2-elf/8.3.1/../../../../../H-x86_64-pc-linux-gnu/nios2-elf/lib/mno-hw-mul/libc.a(lib_a-__call_atexit.o)
 .debug_ranges  0x0000000000001fd8       0x58 /home/efesxzc/intelFPGA_lite/19.1/nios2eds/bin/gnu/H-x86_64-pc-linux-gnu/bin/../lib/gcc/nios2-elf/8.3.1/../../../../../H-x86_64-pc-linux-gnu/nios2-elf/lib/mno-hw-mul/libc.a(lib_a-putc.o)
